
c:/Users/Paul/Documents/ParticleWS/MyProjects/Waveshare42/target/5.7.0/bsom/Waveshare42.elf:     file format elf32-littlearm

Sections:
Idx Name          Size      VMA       LMA       File off  Algn
  0 .module_info  00000018  000b4000  000b4000  00004000  2**0
                  CONTENTS, ALLOC, LOAD, READONLY, DATA
  1 .dynalib      00000004  000b4018  000b4018  00004018  2**2
                  CONTENTS, ALLOC, LOAD, READONLY, DATA
  2 .text         00023d1c  000b401c  000b401c  0000401c  2**2
                  CONTENTS, ALLOC, LOAD, READONLY, CODE
  3 .note.gnu.build-id 00000024  000d7d38  000d7d38  00027d38  2**2
                  CONTENTS, ALLOC, LOAD, READONLY, DATA
  4 .data         0000006c  20037070  000d7d5c  00037070  2**2
                  CONTENTS, ALLOC, LOAD, DATA
  5 .bss          00007720  200370dc  200370dc  000570dc  2**2
                  ALLOC
  6 .backup       00000004  2003f400  000d7dc8  0003f400  2**2
                  CONTENTS, ALLOC, LOAD, DATA
  7 .module_info_product 00000006  000d7dcc  000d7dcc  00047dcc  2**0
                  ALLOC
  8 .module_info_suffix 00000024  000d7dd2  000d7dd2  00047dd2  2**0
                  CONTENTS, ALLOC, LOAD, READONLY, DATA
  9 .module_info_crc 00000004  000d7df6  000d7df6  00047df6  2**0
                  CONTENTS, ALLOC, LOAD, READONLY, DATA
 10 .debug_info   001653b3  00000000  00000000  00047dfa  2**0
                  CONTENTS, READONLY, DEBUGGING, OCTETS
 11 .debug_abbrev 000165d2  00000000  00000000  001ad1ad  2**0
                  CONTENTS, READONLY, DEBUGGING, OCTETS
 12 .debug_loc    000450f0  00000000  00000000  001c377f  2**0
                  CONTENTS, READONLY, DEBUGGING, OCTETS
 13 .debug_aranges 00003118  00000000  00000000  0020886f  2**0
                  CONTENTS, READONLY, DEBUGGING, OCTETS
 14 .debug_ranges 0000afa8  00000000  00000000  0020b987  2**0
                  CONTENTS, READONLY, DEBUGGING, OCTETS
 15 .debug_macro  00041b87  00000000  00000000  0021692f  2**0
                  CONTENTS, READONLY, DEBUGGING, OCTETS
 16 .debug_line   0004f8da  00000000  00000000  002584b6  2**0
                  CONTENTS, READONLY, DEBUGGING, OCTETS
 17 .debug_str    00146142  00000000  00000000  002a7d90  2**0
                  CONTENTS, READONLY, DEBUGGING, OCTETS
 18 .debug_frame  000093ac  00000000  00000000  003eded4  2**2
                  CONTENTS, READONLY, DEBUGGING, OCTETS

Disassembly of section .text:

000b401c <__aeabi_drsub>:
   b401c:	f081 4100 	eor.w	r1, r1, #2147483648	; 0x80000000
   b4020:	e002      	b.n	b4028 <__adddf3>
   b4022:	bf00      	nop

000b4024 <__aeabi_dsub>:
   b4024:	f083 4300 	eor.w	r3, r3, #2147483648	; 0x80000000

000b4028 <__adddf3>:
   b4028:	b530      	push	{r4, r5, lr}
   b402a:	ea4f 0441 	mov.w	r4, r1, lsl #1
   b402e:	ea4f 0543 	mov.w	r5, r3, lsl #1
   b4032:	ea94 0f05 	teq	r4, r5
   b4036:	bf08      	it	eq
   b4038:	ea90 0f02 	teqeq	r0, r2
   b403c:	bf1f      	itttt	ne
   b403e:	ea54 0c00 	orrsne.w	ip, r4, r0
   b4042:	ea55 0c02 	orrsne.w	ip, r5, r2
   b4046:	ea7f 5c64 	mvnsne.w	ip, r4, asr #21
   b404a:	ea7f 5c65 	mvnsne.w	ip, r5, asr #21
   b404e:	f000 80e2 	beq.w	b4216 <__adddf3+0x1ee>
   b4052:	ea4f 5454 	mov.w	r4, r4, lsr #21
   b4056:	ebd4 5555 	rsbs	r5, r4, r5, lsr #21
   b405a:	bfb8      	it	lt
   b405c:	426d      	neglt	r5, r5
   b405e:	dd0c      	ble.n	b407a <__adddf3+0x52>
   b4060:	442c      	add	r4, r5
   b4062:	ea80 0202 	eor.w	r2, r0, r2
   b4066:	ea81 0303 	eor.w	r3, r1, r3
   b406a:	ea82 0000 	eor.w	r0, r2, r0
   b406e:	ea83 0101 	eor.w	r1, r3, r1
   b4072:	ea80 0202 	eor.w	r2, r0, r2
   b4076:	ea81 0303 	eor.w	r3, r1, r3
   b407a:	2d36      	cmp	r5, #54	; 0x36
   b407c:	bf88      	it	hi
   b407e:	bd30      	pophi	{r4, r5, pc}
   b4080:	f011 4f00 	tst.w	r1, #2147483648	; 0x80000000
   b4084:	ea4f 3101 	mov.w	r1, r1, lsl #12
   b4088:	f44f 1c80 	mov.w	ip, #1048576	; 0x100000
   b408c:	ea4c 3111 	orr.w	r1, ip, r1, lsr #12
   b4090:	d002      	beq.n	b4098 <__adddf3+0x70>
   b4092:	4240      	negs	r0, r0
   b4094:	eb61 0141 	sbc.w	r1, r1, r1, lsl #1
   b4098:	f013 4f00 	tst.w	r3, #2147483648	; 0x80000000
   b409c:	ea4f 3303 	mov.w	r3, r3, lsl #12
   b40a0:	ea4c 3313 	orr.w	r3, ip, r3, lsr #12
   b40a4:	d002      	beq.n	b40ac <__adddf3+0x84>
   b40a6:	4252      	negs	r2, r2
   b40a8:	eb63 0343 	sbc.w	r3, r3, r3, lsl #1
   b40ac:	ea94 0f05 	teq	r4, r5
   b40b0:	f000 80a7 	beq.w	b4202 <__adddf3+0x1da>
   b40b4:	f1a4 0401 	sub.w	r4, r4, #1
   b40b8:	f1d5 0e20 	rsbs	lr, r5, #32
   b40bc:	db0d      	blt.n	b40da <__adddf3+0xb2>
   b40be:	fa02 fc0e 	lsl.w	ip, r2, lr
   b40c2:	fa22 f205 	lsr.w	r2, r2, r5
   b40c6:	1880      	adds	r0, r0, r2
   b40c8:	f141 0100 	adc.w	r1, r1, #0
   b40cc:	fa03 f20e 	lsl.w	r2, r3, lr
   b40d0:	1880      	adds	r0, r0, r2
   b40d2:	fa43 f305 	asr.w	r3, r3, r5
   b40d6:	4159      	adcs	r1, r3
   b40d8:	e00e      	b.n	b40f8 <__adddf3+0xd0>
   b40da:	f1a5 0520 	sub.w	r5, r5, #32
   b40de:	f10e 0e20 	add.w	lr, lr, #32
   b40e2:	2a01      	cmp	r2, #1
   b40e4:	fa03 fc0e 	lsl.w	ip, r3, lr
   b40e8:	bf28      	it	cs
   b40ea:	f04c 0c02 	orrcs.w	ip, ip, #2
   b40ee:	fa43 f305 	asr.w	r3, r3, r5
   b40f2:	18c0      	adds	r0, r0, r3
   b40f4:	eb51 71e3 	adcs.w	r1, r1, r3, asr #31
   b40f8:	f001 4500 	and.w	r5, r1, #2147483648	; 0x80000000
   b40fc:	d507      	bpl.n	b410e <__adddf3+0xe6>
   b40fe:	f04f 0e00 	mov.w	lr, #0
   b4102:	f1dc 0c00 	rsbs	ip, ip, #0
   b4106:	eb7e 0000 	sbcs.w	r0, lr, r0
   b410a:	eb6e 0101 	sbc.w	r1, lr, r1
   b410e:	f5b1 1f80 	cmp.w	r1, #1048576	; 0x100000
   b4112:	d31b      	bcc.n	b414c <__adddf3+0x124>
   b4114:	f5b1 1f00 	cmp.w	r1, #2097152	; 0x200000
   b4118:	d30c      	bcc.n	b4134 <__adddf3+0x10c>
   b411a:	0849      	lsrs	r1, r1, #1
   b411c:	ea5f 0030 	movs.w	r0, r0, rrx
   b4120:	ea4f 0c3c 	mov.w	ip, ip, rrx
   b4124:	f104 0401 	add.w	r4, r4, #1
   b4128:	ea4f 5244 	mov.w	r2, r4, lsl #21
   b412c:	f512 0f80 	cmn.w	r2, #4194304	; 0x400000
   b4130:	f080 809a 	bcs.w	b4268 <__adddf3+0x240>
   b4134:	f1bc 4f00 	cmp.w	ip, #2147483648	; 0x80000000
   b4138:	bf08      	it	eq
   b413a:	ea5f 0c50 	movseq.w	ip, r0, lsr #1
   b413e:	f150 0000 	adcs.w	r0, r0, #0
   b4142:	eb41 5104 	adc.w	r1, r1, r4, lsl #20
   b4146:	ea41 0105 	orr.w	r1, r1, r5
   b414a:	bd30      	pop	{r4, r5, pc}
   b414c:	ea5f 0c4c 	movs.w	ip, ip, lsl #1
   b4150:	4140      	adcs	r0, r0
   b4152:	eb41 0101 	adc.w	r1, r1, r1
   b4156:	3c01      	subs	r4, #1
   b4158:	bf28      	it	cs
   b415a:	f5b1 1f80 	cmpcs.w	r1, #1048576	; 0x100000
   b415e:	d2e9      	bcs.n	b4134 <__adddf3+0x10c>
   b4160:	f091 0f00 	teq	r1, #0
   b4164:	bf04      	itt	eq
   b4166:	4601      	moveq	r1, r0
   b4168:	2000      	moveq	r0, #0
   b416a:	fab1 f381 	clz	r3, r1
   b416e:	bf08      	it	eq
   b4170:	3320      	addeq	r3, #32
   b4172:	f1a3 030b 	sub.w	r3, r3, #11
   b4176:	f1b3 0220 	subs.w	r2, r3, #32
   b417a:	da0c      	bge.n	b4196 <__adddf3+0x16e>
   b417c:	320c      	adds	r2, #12
   b417e:	dd08      	ble.n	b4192 <__adddf3+0x16a>
   b4180:	f102 0c14 	add.w	ip, r2, #20
   b4184:	f1c2 020c 	rsb	r2, r2, #12
   b4188:	fa01 f00c 	lsl.w	r0, r1, ip
   b418c:	fa21 f102 	lsr.w	r1, r1, r2
   b4190:	e00c      	b.n	b41ac <__adddf3+0x184>
   b4192:	f102 0214 	add.w	r2, r2, #20
   b4196:	bfd8      	it	le
   b4198:	f1c2 0c20 	rsble	ip, r2, #32
   b419c:	fa01 f102 	lsl.w	r1, r1, r2
   b41a0:	fa20 fc0c 	lsr.w	ip, r0, ip
   b41a4:	bfdc      	itt	le
   b41a6:	ea41 010c 	orrle.w	r1, r1, ip
   b41aa:	4090      	lslle	r0, r2
   b41ac:	1ae4      	subs	r4, r4, r3
   b41ae:	bfa2      	ittt	ge
   b41b0:	eb01 5104 	addge.w	r1, r1, r4, lsl #20
   b41b4:	4329      	orrge	r1, r5
   b41b6:	bd30      	popge	{r4, r5, pc}
   b41b8:	ea6f 0404 	mvn.w	r4, r4
   b41bc:	3c1f      	subs	r4, #31
   b41be:	da1c      	bge.n	b41fa <__adddf3+0x1d2>
   b41c0:	340c      	adds	r4, #12
   b41c2:	dc0e      	bgt.n	b41e2 <__adddf3+0x1ba>
   b41c4:	f104 0414 	add.w	r4, r4, #20
   b41c8:	f1c4 0220 	rsb	r2, r4, #32
   b41cc:	fa20 f004 	lsr.w	r0, r0, r4
   b41d0:	fa01 f302 	lsl.w	r3, r1, r2
   b41d4:	ea40 0003 	orr.w	r0, r0, r3
   b41d8:	fa21 f304 	lsr.w	r3, r1, r4
   b41dc:	ea45 0103 	orr.w	r1, r5, r3
   b41e0:	bd30      	pop	{r4, r5, pc}
   b41e2:	f1c4 040c 	rsb	r4, r4, #12
   b41e6:	f1c4 0220 	rsb	r2, r4, #32
   b41ea:	fa20 f002 	lsr.w	r0, r0, r2
   b41ee:	fa01 f304 	lsl.w	r3, r1, r4
   b41f2:	ea40 0003 	orr.w	r0, r0, r3
   b41f6:	4629      	mov	r1, r5
   b41f8:	bd30      	pop	{r4, r5, pc}
   b41fa:	fa21 f004 	lsr.w	r0, r1, r4
   b41fe:	4629      	mov	r1, r5
   b4200:	bd30      	pop	{r4, r5, pc}
   b4202:	f094 0f00 	teq	r4, #0
   b4206:	f483 1380 	eor.w	r3, r3, #1048576	; 0x100000
   b420a:	bf06      	itte	eq
   b420c:	f481 1180 	eoreq.w	r1, r1, #1048576	; 0x100000
   b4210:	3401      	addeq	r4, #1
   b4212:	3d01      	subne	r5, #1
   b4214:	e74e      	b.n	b40b4 <__adddf3+0x8c>
   b4216:	ea7f 5c64 	mvns.w	ip, r4, asr #21
   b421a:	bf18      	it	ne
   b421c:	ea7f 5c65 	mvnsne.w	ip, r5, asr #21
   b4220:	d029      	beq.n	b4276 <__adddf3+0x24e>
   b4222:	ea94 0f05 	teq	r4, r5
   b4226:	bf08      	it	eq
   b4228:	ea90 0f02 	teqeq	r0, r2
   b422c:	d005      	beq.n	b423a <__adddf3+0x212>
   b422e:	ea54 0c00 	orrs.w	ip, r4, r0
   b4232:	bf04      	itt	eq
   b4234:	4619      	moveq	r1, r3
   b4236:	4610      	moveq	r0, r2
   b4238:	bd30      	pop	{r4, r5, pc}
   b423a:	ea91 0f03 	teq	r1, r3
   b423e:	bf1e      	ittt	ne
   b4240:	2100      	movne	r1, #0
   b4242:	2000      	movne	r0, #0
   b4244:	bd30      	popne	{r4, r5, pc}
   b4246:	ea5f 5c54 	movs.w	ip, r4, lsr #21
   b424a:	d105      	bne.n	b4258 <__adddf3+0x230>
   b424c:	0040      	lsls	r0, r0, #1
   b424e:	4149      	adcs	r1, r1
   b4250:	bf28      	it	cs
   b4252:	f041 4100 	orrcs.w	r1, r1, #2147483648	; 0x80000000
   b4256:	bd30      	pop	{r4, r5, pc}
   b4258:	f514 0480 	adds.w	r4, r4, #4194304	; 0x400000
   b425c:	bf3c      	itt	cc
   b425e:	f501 1180 	addcc.w	r1, r1, #1048576	; 0x100000
   b4262:	bd30      	popcc	{r4, r5, pc}
   b4264:	f001 4500 	and.w	r5, r1, #2147483648	; 0x80000000
   b4268:	f045 41fe 	orr.w	r1, r5, #2130706432	; 0x7f000000
   b426c:	f441 0170 	orr.w	r1, r1, #15728640	; 0xf00000
   b4270:	f04f 0000 	mov.w	r0, #0
   b4274:	bd30      	pop	{r4, r5, pc}
   b4276:	ea7f 5c64 	mvns.w	ip, r4, asr #21
   b427a:	bf1a      	itte	ne
   b427c:	4619      	movne	r1, r3
   b427e:	4610      	movne	r0, r2
   b4280:	ea7f 5c65 	mvnseq.w	ip, r5, asr #21
   b4284:	bf1c      	itt	ne
   b4286:	460b      	movne	r3, r1
   b4288:	4602      	movne	r2, r0
   b428a:	ea50 3401 	orrs.w	r4, r0, r1, lsl #12
   b428e:	bf06      	itte	eq
   b4290:	ea52 3503 	orrseq.w	r5, r2, r3, lsl #12
   b4294:	ea91 0f03 	teqeq	r1, r3
   b4298:	f441 2100 	orrne.w	r1, r1, #524288	; 0x80000
   b429c:	bd30      	pop	{r4, r5, pc}
   b429e:	bf00      	nop

000b42a0 <__aeabi_ui2d>:
   b42a0:	f090 0f00 	teq	r0, #0
   b42a4:	bf04      	itt	eq
   b42a6:	2100      	moveq	r1, #0
   b42a8:	4770      	bxeq	lr
   b42aa:	b530      	push	{r4, r5, lr}
   b42ac:	f44f 6480 	mov.w	r4, #1024	; 0x400
   b42b0:	f104 0432 	add.w	r4, r4, #50	; 0x32
   b42b4:	f04f 0500 	mov.w	r5, #0
   b42b8:	f04f 0100 	mov.w	r1, #0
   b42bc:	e750      	b.n	b4160 <__adddf3+0x138>
   b42be:	bf00      	nop

000b42c0 <__aeabi_i2d>:
   b42c0:	f090 0f00 	teq	r0, #0
   b42c4:	bf04      	itt	eq
   b42c6:	2100      	moveq	r1, #0
   b42c8:	4770      	bxeq	lr
   b42ca:	b530      	push	{r4, r5, lr}
   b42cc:	f44f 6480 	mov.w	r4, #1024	; 0x400
   b42d0:	f104 0432 	add.w	r4, r4, #50	; 0x32
   b42d4:	f010 4500 	ands.w	r5, r0, #2147483648	; 0x80000000
   b42d8:	bf48      	it	mi
   b42da:	4240      	negmi	r0, r0
   b42dc:	f04f 0100 	mov.w	r1, #0
   b42e0:	e73e      	b.n	b4160 <__adddf3+0x138>
   b42e2:	bf00      	nop

000b42e4 <__aeabi_f2d>:
   b42e4:	0042      	lsls	r2, r0, #1
   b42e6:	ea4f 01e2 	mov.w	r1, r2, asr #3
   b42ea:	ea4f 0131 	mov.w	r1, r1, rrx
   b42ee:	ea4f 7002 	mov.w	r0, r2, lsl #28
   b42f2:	bf1f      	itttt	ne
   b42f4:	f012 437f 	andsne.w	r3, r2, #4278190080	; 0xff000000
   b42f8:	f093 4f7f 	teqne	r3, #4278190080	; 0xff000000
   b42fc:	f081 5160 	eorne.w	r1, r1, #939524096	; 0x38000000
   b4300:	4770      	bxne	lr
   b4302:	f032 427f 	bics.w	r2, r2, #4278190080	; 0xff000000
   b4306:	bf08      	it	eq
   b4308:	4770      	bxeq	lr
   b430a:	f093 4f7f 	teq	r3, #4278190080	; 0xff000000
   b430e:	bf04      	itt	eq
   b4310:	f441 2100 	orreq.w	r1, r1, #524288	; 0x80000
   b4314:	4770      	bxeq	lr
   b4316:	b530      	push	{r4, r5, lr}
   b4318:	f44f 7460 	mov.w	r4, #896	; 0x380
   b431c:	f001 4500 	and.w	r5, r1, #2147483648	; 0x80000000
   b4320:	f021 4100 	bic.w	r1, r1, #2147483648	; 0x80000000
   b4324:	e71c      	b.n	b4160 <__adddf3+0x138>
   b4326:	bf00      	nop

000b4328 <__aeabi_ul2d>:
   b4328:	ea50 0201 	orrs.w	r2, r0, r1
   b432c:	bf08      	it	eq
   b432e:	4770      	bxeq	lr
   b4330:	b530      	push	{r4, r5, lr}
   b4332:	f04f 0500 	mov.w	r5, #0
   b4336:	e00a      	b.n	b434e <__aeabi_l2d+0x16>

000b4338 <__aeabi_l2d>:
   b4338:	ea50 0201 	orrs.w	r2, r0, r1
   b433c:	bf08      	it	eq
   b433e:	4770      	bxeq	lr
   b4340:	b530      	push	{r4, r5, lr}
   b4342:	f011 4500 	ands.w	r5, r1, #2147483648	; 0x80000000
   b4346:	d502      	bpl.n	b434e <__aeabi_l2d+0x16>
   b4348:	4240      	negs	r0, r0
   b434a:	eb61 0141 	sbc.w	r1, r1, r1, lsl #1
   b434e:	f44f 6480 	mov.w	r4, #1024	; 0x400
   b4352:	f104 0432 	add.w	r4, r4, #50	; 0x32
   b4356:	ea5f 5c91 	movs.w	ip, r1, lsr #22
   b435a:	f43f aed8 	beq.w	b410e <__adddf3+0xe6>
   b435e:	f04f 0203 	mov.w	r2, #3
   b4362:	ea5f 0cdc 	movs.w	ip, ip, lsr #3
   b4366:	bf18      	it	ne
   b4368:	3203      	addne	r2, #3
   b436a:	ea5f 0cdc 	movs.w	ip, ip, lsr #3
   b436e:	bf18      	it	ne
   b4370:	3203      	addne	r2, #3
   b4372:	eb02 02dc 	add.w	r2, r2, ip, lsr #3
   b4376:	f1c2 0320 	rsb	r3, r2, #32
   b437a:	fa00 fc03 	lsl.w	ip, r0, r3
   b437e:	fa20 f002 	lsr.w	r0, r0, r2
   b4382:	fa01 fe03 	lsl.w	lr, r1, r3
   b4386:	ea40 000e 	orr.w	r0, r0, lr
   b438a:	fa21 f102 	lsr.w	r1, r1, r2
   b438e:	4414      	add	r4, r2
   b4390:	e6bd      	b.n	b410e <__adddf3+0xe6>
   b4392:	bf00      	nop

000b4394 <__aeabi_dmul>:
   b4394:	b570      	push	{r4, r5, r6, lr}
   b4396:	f04f 0cff 	mov.w	ip, #255	; 0xff
   b439a:	f44c 6ce0 	orr.w	ip, ip, #1792	; 0x700
   b439e:	ea1c 5411 	ands.w	r4, ip, r1, lsr #20
   b43a2:	bf1d      	ittte	ne
   b43a4:	ea1c 5513 	andsne.w	r5, ip, r3, lsr #20
   b43a8:	ea94 0f0c 	teqne	r4, ip
   b43ac:	ea95 0f0c 	teqne	r5, ip
   b43b0:	f000 f8de 	bleq	b4570 <__aeabi_dmul+0x1dc>
   b43b4:	442c      	add	r4, r5
   b43b6:	ea81 0603 	eor.w	r6, r1, r3
   b43ba:	ea21 514c 	bic.w	r1, r1, ip, lsl #21
   b43be:	ea23 534c 	bic.w	r3, r3, ip, lsl #21
   b43c2:	ea50 3501 	orrs.w	r5, r0, r1, lsl #12
   b43c6:	bf18      	it	ne
   b43c8:	ea52 3503 	orrsne.w	r5, r2, r3, lsl #12
   b43cc:	f441 1180 	orr.w	r1, r1, #1048576	; 0x100000
   b43d0:	f443 1380 	orr.w	r3, r3, #1048576	; 0x100000
   b43d4:	d038      	beq.n	b4448 <__aeabi_dmul+0xb4>
   b43d6:	fba0 ce02 	umull	ip, lr, r0, r2
   b43da:	f04f 0500 	mov.w	r5, #0
   b43de:	fbe1 e502 	umlal	lr, r5, r1, r2
   b43e2:	f006 4200 	and.w	r2, r6, #2147483648	; 0x80000000
   b43e6:	fbe0 e503 	umlal	lr, r5, r0, r3
   b43ea:	f04f 0600 	mov.w	r6, #0
   b43ee:	fbe1 5603 	umlal	r5, r6, r1, r3
   b43f2:	f09c 0f00 	teq	ip, #0
   b43f6:	bf18      	it	ne
   b43f8:	f04e 0e01 	orrne.w	lr, lr, #1
   b43fc:	f1a4 04ff 	sub.w	r4, r4, #255	; 0xff
   b4400:	f5b6 7f00 	cmp.w	r6, #512	; 0x200
   b4404:	f564 7440 	sbc.w	r4, r4, #768	; 0x300
   b4408:	d204      	bcs.n	b4414 <__aeabi_dmul+0x80>
   b440a:	ea5f 0e4e 	movs.w	lr, lr, lsl #1
   b440e:	416d      	adcs	r5, r5
   b4410:	eb46 0606 	adc.w	r6, r6, r6
   b4414:	ea42 21c6 	orr.w	r1, r2, r6, lsl #11
   b4418:	ea41 5155 	orr.w	r1, r1, r5, lsr #21
   b441c:	ea4f 20c5 	mov.w	r0, r5, lsl #11
   b4420:	ea40 505e 	orr.w	r0, r0, lr, lsr #21
   b4424:	ea4f 2ece 	mov.w	lr, lr, lsl #11
   b4428:	f1b4 0cfd 	subs.w	ip, r4, #253	; 0xfd
   b442c:	bf88      	it	hi
   b442e:	f5bc 6fe0 	cmphi.w	ip, #1792	; 0x700
   b4432:	d81e      	bhi.n	b4472 <__aeabi_dmul+0xde>
   b4434:	f1be 4f00 	cmp.w	lr, #2147483648	; 0x80000000
   b4438:	bf08      	it	eq
   b443a:	ea5f 0e50 	movseq.w	lr, r0, lsr #1
   b443e:	f150 0000 	adcs.w	r0, r0, #0
   b4442:	eb41 5104 	adc.w	r1, r1, r4, lsl #20
   b4446:	bd70      	pop	{r4, r5, r6, pc}
   b4448:	f006 4600 	and.w	r6, r6, #2147483648	; 0x80000000
   b444c:	ea46 0101 	orr.w	r1, r6, r1
   b4450:	ea40 0002 	orr.w	r0, r0, r2
   b4454:	ea81 0103 	eor.w	r1, r1, r3
   b4458:	ebb4 045c 	subs.w	r4, r4, ip, lsr #1
   b445c:	bfc2      	ittt	gt
   b445e:	ebd4 050c 	rsbsgt	r5, r4, ip
   b4462:	ea41 5104 	orrgt.w	r1, r1, r4, lsl #20
   b4466:	bd70      	popgt	{r4, r5, r6, pc}
   b4468:	f441 1180 	orr.w	r1, r1, #1048576	; 0x100000
   b446c:	f04f 0e00 	mov.w	lr, #0
   b4470:	3c01      	subs	r4, #1
   b4472:	f300 80ab 	bgt.w	b45cc <__aeabi_dmul+0x238>
   b4476:	f114 0f36 	cmn.w	r4, #54	; 0x36
   b447a:	bfde      	ittt	le
   b447c:	2000      	movle	r0, #0
   b447e:	f001 4100 	andle.w	r1, r1, #2147483648	; 0x80000000
   b4482:	bd70      	pople	{r4, r5, r6, pc}
   b4484:	f1c4 0400 	rsb	r4, r4, #0
   b4488:	3c20      	subs	r4, #32
   b448a:	da35      	bge.n	b44f8 <__aeabi_dmul+0x164>
   b448c:	340c      	adds	r4, #12
   b448e:	dc1b      	bgt.n	b44c8 <__aeabi_dmul+0x134>
   b4490:	f104 0414 	add.w	r4, r4, #20
   b4494:	f1c4 0520 	rsb	r5, r4, #32
   b4498:	fa00 f305 	lsl.w	r3, r0, r5
   b449c:	fa20 f004 	lsr.w	r0, r0, r4
   b44a0:	fa01 f205 	lsl.w	r2, r1, r5
   b44a4:	ea40 0002 	orr.w	r0, r0, r2
   b44a8:	f001 4200 	and.w	r2, r1, #2147483648	; 0x80000000
   b44ac:	f021 4100 	bic.w	r1, r1, #2147483648	; 0x80000000
   b44b0:	eb10 70d3 	adds.w	r0, r0, r3, lsr #31
   b44b4:	fa21 f604 	lsr.w	r6, r1, r4
   b44b8:	eb42 0106 	adc.w	r1, r2, r6
   b44bc:	ea5e 0e43 	orrs.w	lr, lr, r3, lsl #1
   b44c0:	bf08      	it	eq
   b44c2:	ea20 70d3 	biceq.w	r0, r0, r3, lsr #31
   b44c6:	bd70      	pop	{r4, r5, r6, pc}
   b44c8:	f1c4 040c 	rsb	r4, r4, #12
   b44cc:	f1c4 0520 	rsb	r5, r4, #32
   b44d0:	fa00 f304 	lsl.w	r3, r0, r4
   b44d4:	fa20 f005 	lsr.w	r0, r0, r5
   b44d8:	fa01 f204 	lsl.w	r2, r1, r4
   b44dc:	ea40 0002 	orr.w	r0, r0, r2
   b44e0:	f001 4100 	and.w	r1, r1, #2147483648	; 0x80000000
   b44e4:	eb10 70d3 	adds.w	r0, r0, r3, lsr #31
   b44e8:	f141 0100 	adc.w	r1, r1, #0
   b44ec:	ea5e 0e43 	orrs.w	lr, lr, r3, lsl #1
   b44f0:	bf08      	it	eq
   b44f2:	ea20 70d3 	biceq.w	r0, r0, r3, lsr #31
   b44f6:	bd70      	pop	{r4, r5, r6, pc}
   b44f8:	f1c4 0520 	rsb	r5, r4, #32
   b44fc:	fa00 f205 	lsl.w	r2, r0, r5
   b4500:	ea4e 0e02 	orr.w	lr, lr, r2
   b4504:	fa20 f304 	lsr.w	r3, r0, r4
   b4508:	fa01 f205 	lsl.w	r2, r1, r5
   b450c:	ea43 0302 	orr.w	r3, r3, r2
   b4510:	fa21 f004 	lsr.w	r0, r1, r4
   b4514:	f001 4100 	and.w	r1, r1, #2147483648	; 0x80000000
   b4518:	fa21 f204 	lsr.w	r2, r1, r4
   b451c:	ea20 0002 	bic.w	r0, r0, r2
   b4520:	eb00 70d3 	add.w	r0, r0, r3, lsr #31
   b4524:	ea5e 0e43 	orrs.w	lr, lr, r3, lsl #1
   b4528:	bf08      	it	eq
   b452a:	ea20 70d3 	biceq.w	r0, r0, r3, lsr #31
   b452e:	bd70      	pop	{r4, r5, r6, pc}
   b4530:	f094 0f00 	teq	r4, #0
   b4534:	d10f      	bne.n	b4556 <__aeabi_dmul+0x1c2>
   b4536:	f001 4600 	and.w	r6, r1, #2147483648	; 0x80000000
   b453a:	0040      	lsls	r0, r0, #1
   b453c:	eb41 0101 	adc.w	r1, r1, r1
   b4540:	f411 1f80 	tst.w	r1, #1048576	; 0x100000
   b4544:	bf08      	it	eq
   b4546:	3c01      	subeq	r4, #1
   b4548:	d0f7      	beq.n	b453a <__aeabi_dmul+0x1a6>
   b454a:	ea41 0106 	orr.w	r1, r1, r6
   b454e:	f095 0f00 	teq	r5, #0
   b4552:	bf18      	it	ne
   b4554:	4770      	bxne	lr
   b4556:	f003 4600 	and.w	r6, r3, #2147483648	; 0x80000000
   b455a:	0052      	lsls	r2, r2, #1
   b455c:	eb43 0303 	adc.w	r3, r3, r3
   b4560:	f413 1f80 	tst.w	r3, #1048576	; 0x100000
   b4564:	bf08      	it	eq
   b4566:	3d01      	subeq	r5, #1
   b4568:	d0f7      	beq.n	b455a <__aeabi_dmul+0x1c6>
   b456a:	ea43 0306 	orr.w	r3, r3, r6
   b456e:	4770      	bx	lr
   b4570:	ea94 0f0c 	teq	r4, ip
   b4574:	ea0c 5513 	and.w	r5, ip, r3, lsr #20
   b4578:	bf18      	it	ne
   b457a:	ea95 0f0c 	teqne	r5, ip
   b457e:	d00c      	beq.n	b459a <__aeabi_dmul+0x206>
   b4580:	ea50 0641 	orrs.w	r6, r0, r1, lsl #1
   b4584:	bf18      	it	ne
   b4586:	ea52 0643 	orrsne.w	r6, r2, r3, lsl #1
   b458a:	d1d1      	bne.n	b4530 <__aeabi_dmul+0x19c>
   b458c:	ea81 0103 	eor.w	r1, r1, r3
   b4590:	f001 4100 	and.w	r1, r1, #2147483648	; 0x80000000
   b4594:	f04f 0000 	mov.w	r0, #0
   b4598:	bd70      	pop	{r4, r5, r6, pc}
   b459a:	ea50 0641 	orrs.w	r6, r0, r1, lsl #1
   b459e:	bf06      	itte	eq
   b45a0:	4610      	moveq	r0, r2
   b45a2:	4619      	moveq	r1, r3
   b45a4:	ea52 0643 	orrsne.w	r6, r2, r3, lsl #1
   b45a8:	d019      	beq.n	b45de <__aeabi_dmul+0x24a>
   b45aa:	ea94 0f0c 	teq	r4, ip
   b45ae:	d102      	bne.n	b45b6 <__aeabi_dmul+0x222>
   b45b0:	ea50 3601 	orrs.w	r6, r0, r1, lsl #12
   b45b4:	d113      	bne.n	b45de <__aeabi_dmul+0x24a>
   b45b6:	ea95 0f0c 	teq	r5, ip
   b45ba:	d105      	bne.n	b45c8 <__aeabi_dmul+0x234>
   b45bc:	ea52 3603 	orrs.w	r6, r2, r3, lsl #12
   b45c0:	bf1c      	itt	ne
   b45c2:	4610      	movne	r0, r2
   b45c4:	4619      	movne	r1, r3
   b45c6:	d10a      	bne.n	b45de <__aeabi_dmul+0x24a>
   b45c8:	ea81 0103 	eor.w	r1, r1, r3
   b45cc:	f001 4100 	and.w	r1, r1, #2147483648	; 0x80000000
   b45d0:	f041 41fe 	orr.w	r1, r1, #2130706432	; 0x7f000000
   b45d4:	f441 0170 	orr.w	r1, r1, #15728640	; 0xf00000
   b45d8:	f04f 0000 	mov.w	r0, #0
   b45dc:	bd70      	pop	{r4, r5, r6, pc}
   b45de:	f041 41fe 	orr.w	r1, r1, #2130706432	; 0x7f000000
   b45e2:	f441 0178 	orr.w	r1, r1, #16252928	; 0xf80000
   b45e6:	bd70      	pop	{r4, r5, r6, pc}

000b45e8 <__aeabi_ddiv>:
   b45e8:	b570      	push	{r4, r5, r6, lr}
   b45ea:	f04f 0cff 	mov.w	ip, #255	; 0xff
   b45ee:	f44c 6ce0 	orr.w	ip, ip, #1792	; 0x700
   b45f2:	ea1c 5411 	ands.w	r4, ip, r1, lsr #20
   b45f6:	bf1d      	ittte	ne
   b45f8:	ea1c 5513 	andsne.w	r5, ip, r3, lsr #20
   b45fc:	ea94 0f0c 	teqne	r4, ip
   b4600:	ea95 0f0c 	teqne	r5, ip
   b4604:	f000 f8a7 	bleq	b4756 <__aeabi_ddiv+0x16e>
   b4608:	eba4 0405 	sub.w	r4, r4, r5
   b460c:	ea81 0e03 	eor.w	lr, r1, r3
   b4610:	ea52 3503 	orrs.w	r5, r2, r3, lsl #12
   b4614:	ea4f 3101 	mov.w	r1, r1, lsl #12
   b4618:	f000 8088 	beq.w	b472c <__aeabi_ddiv+0x144>
   b461c:	ea4f 3303 	mov.w	r3, r3, lsl #12
   b4620:	f04f 5580 	mov.w	r5, #268435456	; 0x10000000
   b4624:	ea45 1313 	orr.w	r3, r5, r3, lsr #4
   b4628:	ea43 6312 	orr.w	r3, r3, r2, lsr #24
   b462c:	ea4f 2202 	mov.w	r2, r2, lsl #8
   b4630:	ea45 1511 	orr.w	r5, r5, r1, lsr #4
   b4634:	ea45 6510 	orr.w	r5, r5, r0, lsr #24
   b4638:	ea4f 2600 	mov.w	r6, r0, lsl #8
   b463c:	f00e 4100 	and.w	r1, lr, #2147483648	; 0x80000000
   b4640:	429d      	cmp	r5, r3
   b4642:	bf08      	it	eq
   b4644:	4296      	cmpeq	r6, r2
   b4646:	f144 04fd 	adc.w	r4, r4, #253	; 0xfd
   b464a:	f504 7440 	add.w	r4, r4, #768	; 0x300
   b464e:	d202      	bcs.n	b4656 <__aeabi_ddiv+0x6e>
   b4650:	085b      	lsrs	r3, r3, #1
   b4652:	ea4f 0232 	mov.w	r2, r2, rrx
   b4656:	1ab6      	subs	r6, r6, r2
   b4658:	eb65 0503 	sbc.w	r5, r5, r3
   b465c:	085b      	lsrs	r3, r3, #1
   b465e:	ea4f 0232 	mov.w	r2, r2, rrx
   b4662:	f44f 1080 	mov.w	r0, #1048576	; 0x100000
   b4666:	f44f 2c00 	mov.w	ip, #524288	; 0x80000
   b466a:	ebb6 0e02 	subs.w	lr, r6, r2
   b466e:	eb75 0e03 	sbcs.w	lr, r5, r3
   b4672:	bf22      	ittt	cs
   b4674:	1ab6      	subcs	r6, r6, r2
   b4676:	4675      	movcs	r5, lr
   b4678:	ea40 000c 	orrcs.w	r0, r0, ip
   b467c:	085b      	lsrs	r3, r3, #1
   b467e:	ea4f 0232 	mov.w	r2, r2, rrx
   b4682:	ebb6 0e02 	subs.w	lr, r6, r2
   b4686:	eb75 0e03 	sbcs.w	lr, r5, r3
   b468a:	bf22      	ittt	cs
   b468c:	1ab6      	subcs	r6, r6, r2
   b468e:	4675      	movcs	r5, lr
   b4690:	ea40 005c 	orrcs.w	r0, r0, ip, lsr #1
   b4694:	085b      	lsrs	r3, r3, #1
   b4696:	ea4f 0232 	mov.w	r2, r2, rrx
   b469a:	ebb6 0e02 	subs.w	lr, r6, r2
   b469e:	eb75 0e03 	sbcs.w	lr, r5, r3
   b46a2:	bf22      	ittt	cs
   b46a4:	1ab6      	subcs	r6, r6, r2
   b46a6:	4675      	movcs	r5, lr
   b46a8:	ea40 009c 	orrcs.w	r0, r0, ip, lsr #2
   b46ac:	085b      	lsrs	r3, r3, #1
   b46ae:	ea4f 0232 	mov.w	r2, r2, rrx
   b46b2:	ebb6 0e02 	subs.w	lr, r6, r2
   b46b6:	eb75 0e03 	sbcs.w	lr, r5, r3
   b46ba:	bf22      	ittt	cs
   b46bc:	1ab6      	subcs	r6, r6, r2
   b46be:	4675      	movcs	r5, lr
   b46c0:	ea40 00dc 	orrcs.w	r0, r0, ip, lsr #3
   b46c4:	ea55 0e06 	orrs.w	lr, r5, r6
   b46c8:	d018      	beq.n	b46fc <__aeabi_ddiv+0x114>
   b46ca:	ea4f 1505 	mov.w	r5, r5, lsl #4
   b46ce:	ea45 7516 	orr.w	r5, r5, r6, lsr #28
   b46d2:	ea4f 1606 	mov.w	r6, r6, lsl #4
   b46d6:	ea4f 03c3 	mov.w	r3, r3, lsl #3
   b46da:	ea43 7352 	orr.w	r3, r3, r2, lsr #29
   b46de:	ea4f 02c2 	mov.w	r2, r2, lsl #3
   b46e2:	ea5f 1c1c 	movs.w	ip, ip, lsr #4
   b46e6:	d1c0      	bne.n	b466a <__aeabi_ddiv+0x82>
   b46e8:	f411 1f80 	tst.w	r1, #1048576	; 0x100000
   b46ec:	d10b      	bne.n	b4706 <__aeabi_ddiv+0x11e>
   b46ee:	ea41 0100 	orr.w	r1, r1, r0
   b46f2:	f04f 0000 	mov.w	r0, #0
   b46f6:	f04f 4c00 	mov.w	ip, #2147483648	; 0x80000000
   b46fa:	e7b6      	b.n	b466a <__aeabi_ddiv+0x82>
   b46fc:	f411 1f80 	tst.w	r1, #1048576	; 0x100000
   b4700:	bf04      	itt	eq
   b4702:	4301      	orreq	r1, r0
   b4704:	2000      	moveq	r0, #0
   b4706:	f1b4 0cfd 	subs.w	ip, r4, #253	; 0xfd
   b470a:	bf88      	it	hi
   b470c:	f5bc 6fe0 	cmphi.w	ip, #1792	; 0x700
   b4710:	f63f aeaf 	bhi.w	b4472 <__aeabi_dmul+0xde>
   b4714:	ebb5 0c03 	subs.w	ip, r5, r3
   b4718:	bf04      	itt	eq
   b471a:	ebb6 0c02 	subseq.w	ip, r6, r2
   b471e:	ea5f 0c50 	movseq.w	ip, r0, lsr #1
   b4722:	f150 0000 	adcs.w	r0, r0, #0
   b4726:	eb41 5104 	adc.w	r1, r1, r4, lsl #20
   b472a:	bd70      	pop	{r4, r5, r6, pc}
   b472c:	f00e 4e00 	and.w	lr, lr, #2147483648	; 0x80000000
   b4730:	ea4e 3111 	orr.w	r1, lr, r1, lsr #12
   b4734:	eb14 045c 	adds.w	r4, r4, ip, lsr #1
   b4738:	bfc2      	ittt	gt
   b473a:	ebd4 050c 	rsbsgt	r5, r4, ip
   b473e:	ea41 5104 	orrgt.w	r1, r1, r4, lsl #20
   b4742:	bd70      	popgt	{r4, r5, r6, pc}
   b4744:	f441 1180 	orr.w	r1, r1, #1048576	; 0x100000
   b4748:	f04f 0e00 	mov.w	lr, #0
   b474c:	3c01      	subs	r4, #1
   b474e:	e690      	b.n	b4472 <__aeabi_dmul+0xde>
   b4750:	ea45 0e06 	orr.w	lr, r5, r6
   b4754:	e68d      	b.n	b4472 <__aeabi_dmul+0xde>
   b4756:	ea0c 5513 	and.w	r5, ip, r3, lsr #20
   b475a:	ea94 0f0c 	teq	r4, ip
   b475e:	bf08      	it	eq
   b4760:	ea95 0f0c 	teqeq	r5, ip
   b4764:	f43f af3b 	beq.w	b45de <__aeabi_dmul+0x24a>
   b4768:	ea94 0f0c 	teq	r4, ip
   b476c:	d10a      	bne.n	b4784 <__aeabi_ddiv+0x19c>
   b476e:	ea50 3401 	orrs.w	r4, r0, r1, lsl #12
   b4772:	f47f af34 	bne.w	b45de <__aeabi_dmul+0x24a>
   b4776:	ea95 0f0c 	teq	r5, ip
   b477a:	f47f af25 	bne.w	b45c8 <__aeabi_dmul+0x234>
   b477e:	4610      	mov	r0, r2
   b4780:	4619      	mov	r1, r3
   b4782:	e72c      	b.n	b45de <__aeabi_dmul+0x24a>
   b4784:	ea95 0f0c 	teq	r5, ip
   b4788:	d106      	bne.n	b4798 <__aeabi_ddiv+0x1b0>
   b478a:	ea52 3503 	orrs.w	r5, r2, r3, lsl #12
   b478e:	f43f aefd 	beq.w	b458c <__aeabi_dmul+0x1f8>
   b4792:	4610      	mov	r0, r2
   b4794:	4619      	mov	r1, r3
   b4796:	e722      	b.n	b45de <__aeabi_dmul+0x24a>
   b4798:	ea50 0641 	orrs.w	r6, r0, r1, lsl #1
   b479c:	bf18      	it	ne
   b479e:	ea52 0643 	orrsne.w	r6, r2, r3, lsl #1
   b47a2:	f47f aec5 	bne.w	b4530 <__aeabi_dmul+0x19c>
   b47a6:	ea50 0441 	orrs.w	r4, r0, r1, lsl #1
   b47aa:	f47f af0d 	bne.w	b45c8 <__aeabi_dmul+0x234>
   b47ae:	ea52 0543 	orrs.w	r5, r2, r3, lsl #1
   b47b2:	f47f aeeb 	bne.w	b458c <__aeabi_dmul+0x1f8>
   b47b6:	e712      	b.n	b45de <__aeabi_dmul+0x24a>

000b47b8 <__gedf2>:
   b47b8:	f04f 3cff 	mov.w	ip, #4294967295
   b47bc:	e006      	b.n	b47cc <__cmpdf2+0x4>
   b47be:	bf00      	nop

000b47c0 <__ledf2>:
   b47c0:	f04f 0c01 	mov.w	ip, #1
   b47c4:	e002      	b.n	b47cc <__cmpdf2+0x4>
   b47c6:	bf00      	nop

000b47c8 <__cmpdf2>:
   b47c8:	f04f 0c01 	mov.w	ip, #1
   b47cc:	f84d cd04 	str.w	ip, [sp, #-4]!
   b47d0:	ea4f 0c41 	mov.w	ip, r1, lsl #1
   b47d4:	ea7f 5c6c 	mvns.w	ip, ip, asr #21
   b47d8:	ea4f 0c43 	mov.w	ip, r3, lsl #1
   b47dc:	bf18      	it	ne
   b47de:	ea7f 5c6c 	mvnsne.w	ip, ip, asr #21
   b47e2:	d01b      	beq.n	b481c <__cmpdf2+0x54>
   b47e4:	b001      	add	sp, #4
   b47e6:	ea50 0c41 	orrs.w	ip, r0, r1, lsl #1
   b47ea:	bf0c      	ite	eq
   b47ec:	ea52 0c43 	orrseq.w	ip, r2, r3, lsl #1
   b47f0:	ea91 0f03 	teqne	r1, r3
   b47f4:	bf02      	ittt	eq
   b47f6:	ea90 0f02 	teqeq	r0, r2
   b47fa:	2000      	moveq	r0, #0
   b47fc:	4770      	bxeq	lr
   b47fe:	f110 0f00 	cmn.w	r0, #0
   b4802:	ea91 0f03 	teq	r1, r3
   b4806:	bf58      	it	pl
   b4808:	4299      	cmppl	r1, r3
   b480a:	bf08      	it	eq
   b480c:	4290      	cmpeq	r0, r2
   b480e:	bf2c      	ite	cs
   b4810:	17d8      	asrcs	r0, r3, #31
   b4812:	ea6f 70e3 	mvncc.w	r0, r3, asr #31
   b4816:	f040 0001 	orr.w	r0, r0, #1
   b481a:	4770      	bx	lr
   b481c:	ea4f 0c41 	mov.w	ip, r1, lsl #1
   b4820:	ea7f 5c6c 	mvns.w	ip, ip, asr #21
   b4824:	d102      	bne.n	b482c <__cmpdf2+0x64>
   b4826:	ea50 3c01 	orrs.w	ip, r0, r1, lsl #12
   b482a:	d107      	bne.n	b483c <__cmpdf2+0x74>
   b482c:	ea4f 0c43 	mov.w	ip, r3, lsl #1
   b4830:	ea7f 5c6c 	mvns.w	ip, ip, asr #21
   b4834:	d1d6      	bne.n	b47e4 <__cmpdf2+0x1c>
   b4836:	ea52 3c03 	orrs.w	ip, r2, r3, lsl #12
   b483a:	d0d3      	beq.n	b47e4 <__cmpdf2+0x1c>
   b483c:	f85d 0b04 	ldr.w	r0, [sp], #4
   b4840:	4770      	bx	lr
   b4842:	bf00      	nop

000b4844 <__aeabi_cdrcmple>:
   b4844:	4684      	mov	ip, r0
   b4846:	4610      	mov	r0, r2
   b4848:	4662      	mov	r2, ip
   b484a:	468c      	mov	ip, r1
   b484c:	4619      	mov	r1, r3
   b484e:	4663      	mov	r3, ip
   b4850:	e000      	b.n	b4854 <__aeabi_cdcmpeq>
   b4852:	bf00      	nop

000b4854 <__aeabi_cdcmpeq>:
   b4854:	b501      	push	{r0, lr}
   b4856:	f7ff ffb7 	bl	b47c8 <__cmpdf2>
   b485a:	2800      	cmp	r0, #0
   b485c:	bf48      	it	mi
   b485e:	f110 0f00 	cmnmi.w	r0, #0
   b4862:	bd01      	pop	{r0, pc}

000b4864 <__aeabi_dcmpeq>:
   b4864:	f84d ed08 	str.w	lr, [sp, #-8]!
   b4868:	f7ff fff4 	bl	b4854 <__aeabi_cdcmpeq>
   b486c:	bf0c      	ite	eq
   b486e:	2001      	moveq	r0, #1
   b4870:	2000      	movne	r0, #0
   b4872:	f85d fb08 	ldr.w	pc, [sp], #8
   b4876:	bf00      	nop

000b4878 <__aeabi_dcmplt>:
   b4878:	f84d ed08 	str.w	lr, [sp, #-8]!
   b487c:	f7ff ffea 	bl	b4854 <__aeabi_cdcmpeq>
   b4880:	bf34      	ite	cc
   b4882:	2001      	movcc	r0, #1
   b4884:	2000      	movcs	r0, #0
   b4886:	f85d fb08 	ldr.w	pc, [sp], #8
   b488a:	bf00      	nop

000b488c <__aeabi_dcmple>:
   b488c:	f84d ed08 	str.w	lr, [sp, #-8]!
   b4890:	f7ff ffe0 	bl	b4854 <__aeabi_cdcmpeq>
   b4894:	bf94      	ite	ls
   b4896:	2001      	movls	r0, #1
   b4898:	2000      	movhi	r0, #0
   b489a:	f85d fb08 	ldr.w	pc, [sp], #8
   b489e:	bf00      	nop

000b48a0 <__aeabi_dcmpge>:
   b48a0:	f84d ed08 	str.w	lr, [sp, #-8]!
   b48a4:	f7ff ffce 	bl	b4844 <__aeabi_cdrcmple>
   b48a8:	bf94      	ite	ls
   b48aa:	2001      	movls	r0, #1
   b48ac:	2000      	movhi	r0, #0
   b48ae:	f85d fb08 	ldr.w	pc, [sp], #8
   b48b2:	bf00      	nop

000b48b4 <__aeabi_dcmpgt>:
   b48b4:	f84d ed08 	str.w	lr, [sp, #-8]!
   b48b8:	f7ff ffc4 	bl	b4844 <__aeabi_cdrcmple>
   b48bc:	bf34      	ite	cc
   b48be:	2001      	movcc	r0, #1
   b48c0:	2000      	movcs	r0, #0
   b48c2:	f85d fb08 	ldr.w	pc, [sp], #8
   b48c6:	bf00      	nop

000b48c8 <__aeabi_dcmpun>:
   b48c8:	ea4f 0c41 	mov.w	ip, r1, lsl #1
   b48cc:	ea7f 5c6c 	mvns.w	ip, ip, asr #21
   b48d0:	d102      	bne.n	b48d8 <__aeabi_dcmpun+0x10>
   b48d2:	ea50 3c01 	orrs.w	ip, r0, r1, lsl #12
   b48d6:	d10a      	bne.n	b48ee <__aeabi_dcmpun+0x26>
   b48d8:	ea4f 0c43 	mov.w	ip, r3, lsl #1
   b48dc:	ea7f 5c6c 	mvns.w	ip, ip, asr #21
   b48e0:	d102      	bne.n	b48e8 <__aeabi_dcmpun+0x20>
   b48e2:	ea52 3c03 	orrs.w	ip, r2, r3, lsl #12
   b48e6:	d102      	bne.n	b48ee <__aeabi_dcmpun+0x26>
   b48e8:	f04f 0000 	mov.w	r0, #0
   b48ec:	4770      	bx	lr
   b48ee:	f04f 0001 	mov.w	r0, #1
   b48f2:	4770      	bx	lr

000b48f4 <__aeabi_d2iz>:
   b48f4:	ea4f 0241 	mov.w	r2, r1, lsl #1
   b48f8:	f512 1200 	adds.w	r2, r2, #2097152	; 0x200000
   b48fc:	d215      	bcs.n	b492a <__aeabi_d2iz+0x36>
   b48fe:	d511      	bpl.n	b4924 <__aeabi_d2iz+0x30>
   b4900:	f46f 7378 	mvn.w	r3, #992	; 0x3e0
   b4904:	ebb3 5262 	subs.w	r2, r3, r2, asr #21
   b4908:	d912      	bls.n	b4930 <__aeabi_d2iz+0x3c>
   b490a:	ea4f 23c1 	mov.w	r3, r1, lsl #11
   b490e:	f043 4300 	orr.w	r3, r3, #2147483648	; 0x80000000
   b4912:	ea43 5350 	orr.w	r3, r3, r0, lsr #21
   b4916:	f011 4f00 	tst.w	r1, #2147483648	; 0x80000000
   b491a:	fa23 f002 	lsr.w	r0, r3, r2
   b491e:	bf18      	it	ne
   b4920:	4240      	negne	r0, r0
   b4922:	4770      	bx	lr
   b4924:	f04f 0000 	mov.w	r0, #0
   b4928:	4770      	bx	lr
   b492a:	ea50 3001 	orrs.w	r0, r0, r1, lsl #12
   b492e:	d105      	bne.n	b493c <__aeabi_d2iz+0x48>
   b4930:	f011 4000 	ands.w	r0, r1, #2147483648	; 0x80000000
   b4934:	bf08      	it	eq
   b4936:	f06f 4000 	mvneq.w	r0, #2147483648	; 0x80000000
   b493a:	4770      	bx	lr
   b493c:	f04f 0000 	mov.w	r0, #0
   b4940:	4770      	bx	lr
   b4942:	bf00      	nop

000b4944 <__aeabi_d2uiz>:
   b4944:	004a      	lsls	r2, r1, #1
   b4946:	d211      	bcs.n	b496c <__aeabi_d2uiz+0x28>
   b4948:	f512 1200 	adds.w	r2, r2, #2097152	; 0x200000
   b494c:	d211      	bcs.n	b4972 <__aeabi_d2uiz+0x2e>
   b494e:	d50d      	bpl.n	b496c <__aeabi_d2uiz+0x28>
   b4950:	f46f 7378 	mvn.w	r3, #992	; 0x3e0
   b4954:	ebb3 5262 	subs.w	r2, r3, r2, asr #21
   b4958:	d40e      	bmi.n	b4978 <__aeabi_d2uiz+0x34>
   b495a:	ea4f 23c1 	mov.w	r3, r1, lsl #11
   b495e:	f043 4300 	orr.w	r3, r3, #2147483648	; 0x80000000
   b4962:	ea43 5350 	orr.w	r3, r3, r0, lsr #21
   b4966:	fa23 f002 	lsr.w	r0, r3, r2
   b496a:	4770      	bx	lr
   b496c:	f04f 0000 	mov.w	r0, #0
   b4970:	4770      	bx	lr
   b4972:	ea50 3001 	orrs.w	r0, r0, r1, lsl #12
   b4976:	d102      	bne.n	b497e <__aeabi_d2uiz+0x3a>
   b4978:	f04f 30ff 	mov.w	r0, #4294967295
   b497c:	4770      	bx	lr
   b497e:	f04f 0000 	mov.w	r0, #0
   b4982:	4770      	bx	lr

000b4984 <strlen>:
   b4984:	4603      	mov	r3, r0
   b4986:	f813 2b01 	ldrb.w	r2, [r3], #1
   b498a:	2a00      	cmp	r2, #0
   b498c:	d1fb      	bne.n	b4986 <strlen+0x2>
   b498e:	1a18      	subs	r0, r3, r0
   b4990:	3801      	subs	r0, #1
   b4992:	4770      	bx	lr

000b4994 <module_user_pre_init>:
/**
 * Initializes this user module. Returns the start of the heap.
 */
void* module_user_pre_init() {

    if ( (&link_global_data_start!=&link_global_data_initial_values) && (link_global_data_size != 0))
   b4994:	4809      	ldr	r0, [pc, #36]	; (b49bc <module_user_pre_init+0x28>)
   b4996:	490a      	ldr	r1, [pc, #40]	; (b49c0 <module_user_pre_init+0x2c>)
   b4998:	4288      	cmp	r0, r1
void* module_user_pre_init() {
   b499a:	b508      	push	{r3, lr}
    if ( (&link_global_data_start!=&link_global_data_initial_values) && (link_global_data_size != 0))
   b499c:	d005      	beq.n	b49aa <module_user_pre_init+0x16>
   b499e:	4a09      	ldr	r2, [pc, #36]	; (b49c4 <module_user_pre_init+0x30>)
   b49a0:	4282      	cmp	r2, r0
   b49a2:	d002      	beq.n	b49aa <module_user_pre_init+0x16>
    {
        memcpy(&link_global_data_start, &link_global_data_initial_values, link_global_data_size);
   b49a4:	1a12      	subs	r2, r2, r0
   b49a6:	f004 fa39 	bl	b8e1c <memcpy>
    }

    memset(&link_bss_location, 0, link_bss_size );
   b49aa:	4807      	ldr	r0, [pc, #28]	; (b49c8 <module_user_pre_init+0x34>)
   b49ac:	4a07      	ldr	r2, [pc, #28]	; (b49cc <module_user_pre_init+0x38>)
   b49ae:	2100      	movs	r1, #0
   b49b0:	1a12      	subs	r2, r2, r0
   b49b2:	f004 fa41 	bl	b8e38 <memset>
    return &link_global_data_start;
}
   b49b6:	4801      	ldr	r0, [pc, #4]	; (b49bc <module_user_pre_init+0x28>)
   b49b8:	bd08      	pop	{r3, pc}
   b49ba:	bf00      	nop
   b49bc:	20037070 	.word	0x20037070
   b49c0:	000d7d5c 	.word	0x000d7d5c
   b49c4:	200370dc 	.word	0x200370dc
   b49c8:	200370dc 	.word	0x200370dc
   b49cc:	2003e7fc 	.word	0x2003e7fc

000b49d0 <module_user_init>:
extern constructor_ptr_t link_constructors_location[];
extern constructor_ptr_t link_constructors_end;
#define link_constructors_size   ((unsigned long)&link_constructors_end  -  (unsigned long)&link_constructors_location )

void module_user_init()
{
   b49d0:	b570      	push	{r4, r5, r6, lr}
    module_user_init_hook();

    // invoke constructors
    for (size_t ctor_num=0; ctor_num < link_constructors_size/sizeof(constructor_ptr_t); ctor_num++ )
   b49d2:	4e07      	ldr	r6, [pc, #28]	; (b49f0 <module_user_init+0x20>)
   b49d4:	4c07      	ldr	r4, [pc, #28]	; (b49f4 <module_user_init+0x24>)
    module_user_init_hook();
   b49d6:	f003 fe37 	bl	b8648 <module_user_init_hook>
    for (size_t ctor_num=0; ctor_num < link_constructors_size/sizeof(constructor_ptr_t); ctor_num++ )
   b49da:	1ba4      	subs	r4, r4, r6
   b49dc:	08a4      	lsrs	r4, r4, #2
   b49de:	2500      	movs	r5, #0
   b49e0:	42ac      	cmp	r4, r5
   b49e2:	d100      	bne.n	b49e6 <module_user_init+0x16>
    {
        link_constructors_location[ctor_num]();
    }
}
   b49e4:	bd70      	pop	{r4, r5, r6, pc}
        link_constructors_location[ctor_num]();
   b49e6:	f856 3b04 	ldr.w	r3, [r6], #4
   b49ea:	4798      	blx	r3
    for (size_t ctor_num=0; ctor_num < link_constructors_size/sizeof(constructor_ptr_t); ctor_num++ )
   b49ec:	3501      	adds	r5, #1
   b49ee:	e7f7      	b.n	b49e0 <module_user_init+0x10>
   b49f0:	000d7d14 	.word	0x000d7d14
   b49f4:	000d7d38 	.word	0x000d7d38

000b49f8 <module_user_setup>:

/**
 * Export these functions with a fuller name so they don't clash with the setup/loop wrappers in the system module.
 */
void module_user_setup() {
    setup();
   b49f8:	f001 bb40 	b.w	b607c <setup>

000b49fc <module_user_loop>:
}

void module_user_loop() {
   b49fc:	b508      	push	{r3, lr}
    loop();
   b49fe:	f001 f88b 	bl	b5b18 <loop>
    _post_loop();
}
   b4a02:	e8bd 4008 	ldmia.w	sp!, {r3, lr}
    _post_loop();
   b4a06:	f003 bdd7 	b.w	b85b8 <_post_loop>

000b4a0a <_Znaj>:
   b4a0a:	f003 bae7 	b.w	b7fdc <malloc>

000b4a0e <_ZdlPvj>:
	free(p);
}

void operator delete(void *p, size_t size)
{
	free(p);
   b4a0e:	f003 baed 	b.w	b7fec <free>
	...

000b4a14 <__cxa_pure_virtual>:
int __wrap_printf(const char* fmt, ...) {
    return -1;
}

/* Default implementation for call made to pure virtual function. */
void __cxa_pure_virtual() {
   b4a14:	b508      	push	{r3, lr}
  PANIC(PureVirtualCall,"Call on pure virtual");
   b4a16:	4a03      	ldr	r2, [pc, #12]	; (b4a24 <__cxa_pure_virtual+0x10>)
   b4a18:	4903      	ldr	r1, [pc, #12]	; (b4a28 <__cxa_pure_virtual+0x14>)
   b4a1a:	200c      	movs	r0, #12
   b4a1c:	f003 fa32 	bl	b7e84 <panic_>
  while (1);
   b4a20:	e7fe      	b.n	b4a20 <__cxa_pure_virtual+0xc>
   b4a22:	bf00      	nop
   b4a24:	000b7c45 	.word	0x000b7c45
   b4a28:	000b8f9c 	.word	0x000b8f9c

000b4a2c <__cxa_guard_acquire>:

/* Provide default implemenation for __cxa_guard_acquire() and
 * __cxa_guard_release(). Note: these must be revisited if a multitasking
 * OS is ported to this platform. */
__extension__ typedef int __guard __attribute__((mode (__DI__)));
int __cxa_guard_acquire(__guard *g) {return !*(char *)(g);};
   b4a2c:	7800      	ldrb	r0, [r0, #0]
   b4a2e:	fab0 f080 	clz	r0, r0
   b4a32:	0940      	lsrs	r0, r0, #5
   b4a34:	4770      	bx	lr

000b4a36 <__cxa_guard_release>:
void __cxa_guard_release (__guard *g) {*(char *)g = 1;};
   b4a36:	2301      	movs	r3, #1
   b4a38:	7003      	strb	r3, [r0, #0]
   b4a3a:	4770      	bx	lr

000b4a3c <_Z10helloWorldR10GxEPD2_GFX>:
const char HelloWorld[] = "Hello World!";
const char HelloArduino[] = "Hello Arduino!";
const char HelloEpaper[] = "Hello E-Paper!";

void helloWorld(GxEPD2_GFX& display)
{
   b4a3c:	b5f0      	push	{r4, r5, r6, r7, lr}
  //Serial.println("helloWorld");
  display.setRotation(1);
   b4a3e:	6803      	ldr	r3, [r0, #0]
  display.firstPage();
  do
  {
    display.fillScreen(GxEPD_WHITE);
    display.setCursor(x, y);
    display.print(HelloWorld);
   b4a40:	4f2b      	ldr	r7, [pc, #172]	; (b4af0 <_Z10helloWorldR10GxEPD2_GFX+0xb4>)
  display.setRotation(1);
   b4a42:	6b1b      	ldr	r3, [r3, #48]	; 0x30
{
   b4a44:	b087      	sub	sp, #28
   b4a46:	4604      	mov	r4, r0
  display.setRotation(1);
   b4a48:	2101      	movs	r1, #1
   b4a4a:	4798      	blx	r3
  display.setFont(&FreeMonoBold9pt7b);
   b4a4c:	4929      	ldr	r1, [pc, #164]	; (b4af4 <_Z10helloWorldR10GxEPD2_GFX+0xb8>)
   b4a4e:	4620      	mov	r0, r4
   b4a50:	f001 ffe1 	bl	b6a16 <_ZN12Adafruit_GFX7setFontEPK7GFXfont>
  display.setTextColor(GxEPD_BLACK);
   b4a54:	2100      	movs	r1, #0
   b4a56:	4620      	mov	r0, r4
   b4a58:	f001 ffd8 	bl	b6a0c <_ZN12Adafruit_GFX12setTextColorEt>
  display.getTextBounds(HelloWorld, 0, 0, &tbx, &tby, &tbw, &tbh);
   b4a5c:	f10d 0316 	add.w	r3, sp, #22
   b4a60:	9303      	str	r3, [sp, #12]
   b4a62:	ab05      	add	r3, sp, #20
   b4a64:	9302      	str	r3, [sp, #8]
   b4a66:	f10d 0312 	add.w	r3, sp, #18
   b4a6a:	9301      	str	r3, [sp, #4]
   b4a6c:	ab04      	add	r3, sp, #16
   b4a6e:	9300      	str	r3, [sp, #0]
   b4a70:	2300      	movs	r3, #0
   b4a72:	461a      	mov	r2, r3
   b4a74:	491e      	ldr	r1, [pc, #120]	; (b4af0 <_Z10helloWorldR10GxEPD2_GFX+0xb4>)
   b4a76:	4620      	mov	r0, r4
   b4a78:	f002 f8a1 	bl	b6bbe <_ZN12Adafruit_GFX13getTextBoundsEPKcssPsS2_PtS3_>
  uint16_t x = ((display.width() - tbw) / 2) - tbx;
   b4a7c:	4620      	mov	r0, r4
   b4a7e:	f002 f8ec 	bl	b6c5a <_ZNK12Adafruit_GFX5widthEv>
   b4a82:	f8bd 6014 	ldrh.w	r6, [sp, #20]
   b4a86:	1b80      	subs	r0, r0, r6
   b4a88:	f8bd 6010 	ldrh.w	r6, [sp, #16]
   b4a8c:	eb00 70d0 	add.w	r0, r0, r0, lsr #31
   b4a90:	ebc6 0060 	rsb	r0, r6, r0, asr #1
   b4a94:	b286      	uxth	r6, r0
  uint16_t y = ((display.height() - tbh) / 2) - tby;
   b4a96:	4620      	mov	r0, r4
   b4a98:	f002 f8e2 	bl	b6c60 <_ZNK12Adafruit_GFX6heightEv>
   b4a9c:	f8bd 5016 	ldrh.w	r5, [sp, #22]
  display.setFullWindow();
   b4aa0:	6823      	ldr	r3, [r4, #0]
  uint16_t y = ((display.height() - tbh) / 2) - tby;
   b4aa2:	1b40      	subs	r0, r0, r5
   b4aa4:	f8bd 5012 	ldrh.w	r5, [sp, #18]
  display.setFullWindow();
   b4aa8:	6edb      	ldr	r3, [r3, #108]	; 0x6c
  uint16_t y = ((display.height() - tbh) / 2) - tby;
   b4aaa:	eb00 70d0 	add.w	r0, r0, r0, lsr #31
   b4aae:	ebc5 0560 	rsb	r5, r5, r0, asr #1
  display.setFullWindow();
   b4ab2:	4620      	mov	r0, r4
   b4ab4:	4798      	blx	r3
  display.firstPage();
   b4ab6:	6823      	ldr	r3, [r4, #0]
   b4ab8:	4620      	mov	r0, r4
   b4aba:	6f5b      	ldr	r3, [r3, #116]	; 0x74
   b4abc:	4798      	blx	r3
  uint16_t y = ((display.height() - tbh) / 2) - tby;
   b4abe:	b2ad      	uxth	r5, r5
    display.setCursor(x, y);
   b4ac0:	b22d      	sxth	r5, r5
    display.fillScreen(GxEPD_WHITE);
   b4ac2:	6823      	ldr	r3, [r4, #0]
   b4ac4:	f64f 71ff 	movw	r1, #65535	; 0xffff
   b4ac8:	6c5b      	ldr	r3, [r3, #68]	; 0x44
   b4aca:	4620      	mov	r0, r4
   b4acc:	4798      	blx	r3
    display.setCursor(x, y);
   b4ace:	462a      	mov	r2, r5
   b4ad0:	b231      	sxth	r1, r6
   b4ad2:	4620      	mov	r0, r4
   b4ad4:	f001 ff97 	bl	b6a06 <_ZN12Adafruit_GFX9setCursorEss>
    display.print(HelloWorld);
   b4ad8:	4639      	mov	r1, r7
   b4ada:	4620      	mov	r0, r4
   b4adc:	f003 fbea 	bl	b82b4 <_ZN5Print5printEPKc>
  }
  while (display.nextPage());
   b4ae0:	6823      	ldr	r3, [r4, #0]
   b4ae2:	4620      	mov	r0, r4
   b4ae4:	6f9b      	ldr	r3, [r3, #120]	; 0x78
   b4ae6:	4798      	blx	r3
   b4ae8:	2800      	cmp	r0, #0
   b4aea:	d1ea      	bne.n	b4ac2 <_Z10helloWorldR10GxEPD2_GFX+0x86>
  //Serial.println("helloWorld done");
}
   b4aec:	b007      	add	sp, #28
   b4aee:	bdf0      	pop	{r4, r5, r6, r7, pc}
   b4af0:	000b905e 	.word	0x000b905e
   b4af4:	000b908c 	.word	0x000b908c

000b4af8 <_Z26helloFullScreenPartialModeR10GxEPD2_GFX>:
  while (display.nextPage());
  //Serial.println("helloWorld done");
}

void helloFullScreenPartialMode(GxEPD2_GFX& display)
{
   b4af8:	e92d 4ff0 	stmdb	sp!, {r4, r5, r6, r7, r8, r9, sl, fp, lr}
  //Serial.println("helloFullScreenPartialMode");
  const char fullscreen[] = "full screen update";
   b4afc:	4b8d      	ldr	r3, [pc, #564]	; (b4d34 <_Z26helloFullScreenPartialModeR10GxEPD2_GFX+0x23c>)
{
   b4afe:	b09f      	sub	sp, #124	; 0x7c
  const char fullscreen[] = "full screen update";
   b4b00:	aa19      	add	r2, sp, #100	; 0x64
{
   b4b02:	4604      	mov	r4, r0
  const char fullscreen[] = "full screen update";
   b4b04:	f103 0610 	add.w	r6, r3, #16
   b4b08:	4693      	mov	fp, r2
   b4b0a:	6818      	ldr	r0, [r3, #0]
   b4b0c:	6859      	ldr	r1, [r3, #4]
   b4b0e:	4615      	mov	r5, r2
   b4b10:	c503      	stmia	r5!, {r0, r1}
   b4b12:	3308      	adds	r3, #8
   b4b14:	42b3      	cmp	r3, r6
   b4b16:	462a      	mov	r2, r5
   b4b18:	d1f7      	bne.n	b4b0a <_Z26helloFullScreenPartialModeR10GxEPD2_GFX+0x12>
   b4b1a:	8819      	ldrh	r1, [r3, #0]
   b4b1c:	789b      	ldrb	r3, [r3, #2]
   b4b1e:	70ab      	strb	r3, [r5, #2]
  const char fpm[] = "fast partial mode";
   b4b20:	4b85      	ldr	r3, [pc, #532]	; (b4d38 <_Z26helloFullScreenPartialModeR10GxEPD2_GFX+0x240>)
  const char fullscreen[] = "full screen update";
   b4b22:	8029      	strh	r1, [r5, #0]
  const char fpm[] = "fast partial mode";
   b4b24:	aa0f      	add	r2, sp, #60	; 0x3c
   b4b26:	f103 0710 	add.w	r7, r3, #16
   b4b2a:	4616      	mov	r6, r2
   b4b2c:	6818      	ldr	r0, [r3, #0]
   b4b2e:	6859      	ldr	r1, [r3, #4]
   b4b30:	4615      	mov	r5, r2
   b4b32:	c503      	stmia	r5!, {r0, r1}
   b4b34:	3308      	adds	r3, #8
   b4b36:	42bb      	cmp	r3, r7
   b4b38:	462a      	mov	r2, r5
   b4b3a:	d1f7      	bne.n	b4b2c <_Z26helloFullScreenPartialModeR10GxEPD2_GFX+0x34>
   b4b3c:	881b      	ldrh	r3, [r3, #0]
   b4b3e:	802b      	strh	r3, [r5, #0]
  const char spm[] = "slow partial mode";
   b4b40:	4b7e      	ldr	r3, [pc, #504]	; (b4d3c <_Z26helloFullScreenPartialModeR10GxEPD2_GFX+0x244>)
   b4b42:	aa14      	add	r2, sp, #80	; 0x50
   b4b44:	f103 0c10 	add.w	ip, r3, #16
   b4b48:	4615      	mov	r5, r2
   b4b4a:	6818      	ldr	r0, [r3, #0]
   b4b4c:	6859      	ldr	r1, [r3, #4]
   b4b4e:	4617      	mov	r7, r2
   b4b50:	c703      	stmia	r7!, {r0, r1}
   b4b52:	3308      	adds	r3, #8
   b4b54:	4563      	cmp	r3, ip
   b4b56:	463a      	mov	r2, r7
   b4b58:	d1f7      	bne.n	b4b4a <_Z26helloFullScreenPartialModeR10GxEPD2_GFX+0x52>
   b4b5a:	881b      	ldrh	r3, [r3, #0]
   b4b5c:	803b      	strh	r3, [r7, #0]
  const char npm[] = "no partial mode";
   b4b5e:	4b78      	ldr	r3, [pc, #480]	; (b4d40 <_Z26helloFullScreenPartialModeR10GxEPD2_GFX+0x248>)
   b4b60:	aa0b      	add	r2, sp, #44	; 0x2c
   b4b62:	f103 0c10 	add.w	ip, r3, #16
   b4b66:	4690      	mov	r8, r2
   b4b68:	6818      	ldr	r0, [r3, #0]
   b4b6a:	6859      	ldr	r1, [r3, #4]
   b4b6c:	4617      	mov	r7, r2
   b4b6e:	c703      	stmia	r7!, {r0, r1}
   b4b70:	3308      	adds	r3, #8
   b4b72:	4563      	cmp	r3, ip
   b4b74:	463a      	mov	r2, r7
   b4b76:	d1f7      	bne.n	b4b68 <_Z26helloFullScreenPartialModeR10GxEPD2_GFX+0x70>
  display.setPartialWindow(0, 0, display.width(), display.height());
   b4b78:	6823      	ldr	r3, [r4, #0]
   b4b7a:	4620      	mov	r0, r4
   b4b7c:	f8d3 9070 	ldr.w	r9, [r3, #112]	; 0x70
   b4b80:	f002 f86b 	bl	b6c5a <_ZNK12Adafruit_GFX5widthEv>
   b4b84:	4607      	mov	r7, r0
   b4b86:	4620      	mov	r0, r4
   b4b88:	f002 f86a 	bl	b6c60 <_ZNK12Adafruit_GFX6heightEv>
   b4b8c:	2200      	movs	r2, #0
   b4b8e:	b280      	uxth	r0, r0
   b4b90:	4611      	mov	r1, r2
   b4b92:	9000      	str	r0, [sp, #0]
   b4b94:	b2bb      	uxth	r3, r7
   b4b96:	4620      	mov	r0, r4
   b4b98:	47c8      	blx	r9
  display.setRotation(1);
   b4b9a:	6823      	ldr	r3, [r4, #0]
   b4b9c:	2101      	movs	r1, #1
   b4b9e:	6b1b      	ldr	r3, [r3, #48]	; 0x30
   b4ba0:	4620      	mov	r0, r4
   b4ba2:	4798      	blx	r3
  display.setFont(&FreeMonoBold9pt7b);
   b4ba4:	4967      	ldr	r1, [pc, #412]	; (b4d44 <_Z26helloFullScreenPartialModeR10GxEPD2_GFX+0x24c>)
   b4ba6:	4620      	mov	r0, r4
   b4ba8:	f001 ff35 	bl	b6a16 <_ZN12Adafruit_GFX7setFontEPK7GFXfont>
  display.setTextColor(GxEPD_BLACK);
   b4bac:	2100      	movs	r1, #0
   b4bae:	4620      	mov	r0, r4
   b4bb0:	f001 ff2c 	bl	b6a0c <_ZN12Adafruit_GFX12setTextColorEt>
  const char* updatemode;
  if (display.epd2.hasFastPartialUpdate)
   b4bb4:	6a23      	ldr	r3, [r4, #32]
   b4bb6:	7ada      	ldrb	r2, [r3, #11]
   b4bb8:	b922      	cbnz	r2, b4bc4 <_Z26helloFullScreenPartialModeR10GxEPD2_GFX+0xcc>
  {
    updatemode = fpm;
  }
  else if (display.epd2.hasPartialUpdate)
   b4bba:	7a9b      	ldrb	r3, [r3, #10]
  {
    updatemode = spm;
  }
  else
  {
    updatemode = npm;
   b4bbc:	2b00      	cmp	r3, #0
   b4bbe:	bf14      	ite	ne
   b4bc0:	462e      	movne	r6, r5
   b4bc2:	4646      	moveq	r6, r8
  }
  // do this outside of the loop
  int16_t tbx, tby; uint16_t tbw, tbh;
  // center update text
  display.getTextBounds(fullscreen, 0, 0, &tbx, &tby, &tbw, &tbh);
   b4bc4:	f10d 0928 	add.w	r9, sp, #40	; 0x28
   b4bc8:	f10d 0826 	add.w	r8, sp, #38	; 0x26
   b4bcc:	2300      	movs	r3, #0
   b4bce:	f10d 0a2a 	add.w	sl, sp, #42	; 0x2a
   b4bd2:	af09      	add	r7, sp, #36	; 0x24
   b4bd4:	461a      	mov	r2, r3
   b4bd6:	4659      	mov	r1, fp
   b4bd8:	f8cd 9008 	str.w	r9, [sp, #8]
   b4bdc:	f8cd 8004 	str.w	r8, [sp, #4]
   b4be0:	9700      	str	r7, [sp, #0]
   b4be2:	4620      	mov	r0, r4
   b4be4:	f8cd a00c 	str.w	sl, [sp, #12]
   b4be8:	f001 ffe9 	bl	b6bbe <_ZN12Adafruit_GFX13getTextBoundsEPKcssPsS2_PtS3_>
  uint16_t utx = ((display.width() - tbw) / 2) - tbx;
   b4bec:	4620      	mov	r0, r4
   b4bee:	f002 f834 	bl	b6c5a <_ZNK12Adafruit_GFX5widthEv>
   b4bf2:	f8bd 3028 	ldrh.w	r3, [sp, #40]	; 0x28
   b4bf6:	1ac0      	subs	r0, r0, r3
   b4bf8:	f8bd 3024 	ldrh.w	r3, [sp, #36]	; 0x24
   b4bfc:	eb00 70d0 	add.w	r0, r0, r0, lsr #31
   b4c00:	ebc3 0060 	rsb	r0, r3, r0, asr #1
   b4c04:	b283      	uxth	r3, r0
  uint16_t uty = ((display.height() / 4) - tbh / 2) - tby;
   b4c06:	4620      	mov	r0, r4
  uint16_t utx = ((display.width() - tbw) / 2) - tbx;
   b4c08:	9305      	str	r3, [sp, #20]
  uint16_t uty = ((display.height() / 4) - tbh / 2) - tby;
   b4c0a:	f002 f829 	bl	b6c60 <_ZNK12Adafruit_GFX6heightEv>
   b4c0e:	f8bd 302a 	ldrh.w	r3, [sp, #42]	; 0x2a
   b4c12:	f8bd 5026 	ldrh.w	r5, [sp, #38]	; 0x26
   b4c16:	2800      	cmp	r0, #0
   b4c18:	bfb8      	it	lt
   b4c1a:	3003      	addlt	r0, #3
   b4c1c:	eb05 0553 	add.w	r5, r5, r3, lsr #1
   b4c20:	ebc5 00a0 	rsb	r0, r5, r0, asr #2
  // center update mode
  display.getTextBounds(updatemode, 0, 0, &tbx, &tby, &tbw, &tbh);
   b4c24:	2300      	movs	r3, #0
   b4c26:	461a      	mov	r2, r3
   b4c28:	4631      	mov	r1, r6
   b4c2a:	e9cd 7800 	strd	r7, r8, [sp]
   b4c2e:	e9cd 9a02 	strd	r9, sl, [sp, #8]
  uint16_t uty = ((display.height() / 4) - tbh / 2) - tby;
   b4c32:	b285      	uxth	r5, r0
  display.getTextBounds(updatemode, 0, 0, &tbx, &tby, &tbw, &tbh);
   b4c34:	4620      	mov	r0, r4
   b4c36:	f001 ffc2 	bl	b6bbe <_ZN12Adafruit_GFX13getTextBoundsEPKcssPsS2_PtS3_>
  uint16_t umx = ((display.width() - tbw) / 2) - tbx;
   b4c3a:	4620      	mov	r0, r4
   b4c3c:	f002 f80d 	bl	b6c5a <_ZNK12Adafruit_GFX5widthEv>
   b4c40:	f8bd 3028 	ldrh.w	r3, [sp, #40]	; 0x28
   b4c44:	1ac0      	subs	r0, r0, r3
   b4c46:	f8bd 3024 	ldrh.w	r3, [sp, #36]	; 0x24
   b4c4a:	eb00 70d0 	add.w	r0, r0, r0, lsr #31
   b4c4e:	ebc3 0060 	rsb	r0, r3, r0, asr #1
   b4c52:	b283      	uxth	r3, r0
  uint16_t umy = ((display.height() * 3 / 4) - tbh / 2) - tby;
   b4c54:	4620      	mov	r0, r4
  uint16_t umx = ((display.width() - tbw) / 2) - tbx;
   b4c56:	9306      	str	r3, [sp, #24]
  uint16_t umy = ((display.height() * 3 / 4) - tbh / 2) - tby;
   b4c58:	f002 f802 	bl	b6c60 <_ZNK12Adafruit_GFX6heightEv>
   b4c5c:	f8bd 202a 	ldrh.w	r2, [sp, #42]	; 0x2a
   b4c60:	f8bd 3026 	ldrh.w	r3, [sp, #38]	; 0x26
  // center HelloWorld
  display.getTextBounds(HelloWorld, 0, 0, &tbx, &tby, &tbw, &tbh);
   b4c64:	4938      	ldr	r1, [pc, #224]	; (b4d48 <_Z26helloFullScreenPartialModeR10GxEPD2_GFX+0x250>)
   b4c66:	f8cd 8004 	str.w	r8, [sp, #4]
  uint16_t umy = ((display.height() * 3 / 4) - tbh / 2) - tby;
   b4c6a:	eb10 0040 	adds.w	r0, r0, r0, lsl #1
   b4c6e:	bf48      	it	mi
   b4c70:	3003      	addmi	r0, #3
   b4c72:	eb03 0352 	add.w	r3, r3, r2, lsr #1
   b4c76:	ebc3 00a0 	rsb	r0, r3, r0, asr #2
   b4c7a:	b283      	uxth	r3, r0
   b4c7c:	9307      	str	r3, [sp, #28]
  display.getTextBounds(HelloWorld, 0, 0, &tbx, &tby, &tbw, &tbh);
   b4c7e:	ab09      	add	r3, sp, #36	; 0x24
   b4c80:	9300      	str	r3, [sp, #0]
   b4c82:	2300      	movs	r3, #0
   b4c84:	461a      	mov	r2, r3
   b4c86:	e9cd 9a02 	strd	r9, sl, [sp, #8]
   b4c8a:	4620      	mov	r0, r4
   b4c8c:	f001 ff97 	bl	b6bbe <_ZN12Adafruit_GFX13getTextBoundsEPKcssPsS2_PtS3_>
  uint16_t hwx = ((display.width() - tbw) / 2) - tbx;
   b4c90:	4620      	mov	r0, r4
   b4c92:	f001 ffe2 	bl	b6c5a <_ZNK12Adafruit_GFX5widthEv>
   b4c96:	f8bd 8028 	ldrh.w	r8, [sp, #40]	; 0x28
  display.firstPage();
  do
  {
    display.fillScreen(GxEPD_WHITE);
    display.setCursor(hwx, hwy);
    display.print(HelloWorld);
   b4c9a:	f8df 90ac 	ldr.w	r9, [pc, #172]	; b4d48 <_Z26helloFullScreenPartialModeR10GxEPD2_GFX+0x250>
  uint16_t hwx = ((display.width() - tbw) / 2) - tbx;
   b4c9e:	eba0 0008 	sub.w	r0, r0, r8
   b4ca2:	f8bd 8024 	ldrh.w	r8, [sp, #36]	; 0x24
   b4ca6:	eb00 70d0 	add.w	r0, r0, r0, lsr #31
   b4caa:	ebc8 0060 	rsb	r0, r8, r0, asr #1
   b4cae:	fa1f f880 	uxth.w	r8, r0
  uint16_t hwy = ((display.height() - tbh) / 2) - tby;
   b4cb2:	4620      	mov	r0, r4
   b4cb4:	f001 ffd4 	bl	b6c60 <_ZNK12Adafruit_GFX6heightEv>
   b4cb8:	f8bd 702a 	ldrh.w	r7, [sp, #42]	; 0x2a
  display.firstPage();
   b4cbc:	6823      	ldr	r3, [r4, #0]
  uint16_t hwy = ((display.height() - tbh) / 2) - tby;
   b4cbe:	1bc0      	subs	r0, r0, r7
   b4cc0:	f8bd 7026 	ldrh.w	r7, [sp, #38]	; 0x26
  display.firstPage();
   b4cc4:	6f5b      	ldr	r3, [r3, #116]	; 0x74
  uint16_t hwy = ((display.height() - tbh) / 2) - tby;
   b4cc6:	eb00 70d0 	add.w	r0, r0, r0, lsr #31
   b4cca:	ebc7 0060 	rsb	r0, r7, r0, asr #1
   b4cce:	b287      	uxth	r7, r0
  display.firstPage();
   b4cd0:	4620      	mov	r0, r4
   b4cd2:	4798      	blx	r3
    display.setCursor(hwx, hwy);
   b4cd4:	b23f      	sxth	r7, r7
    display.fillScreen(GxEPD_WHITE);
   b4cd6:	6823      	ldr	r3, [r4, #0]
   b4cd8:	f64f 71ff 	movw	r1, #65535	; 0xffff
   b4cdc:	6c5b      	ldr	r3, [r3, #68]	; 0x44
   b4cde:	4620      	mov	r0, r4
   b4ce0:	4798      	blx	r3
    display.setCursor(hwx, hwy);
   b4ce2:	463a      	mov	r2, r7
   b4ce4:	fa0f f188 	sxth.w	r1, r8
   b4ce8:	4620      	mov	r0, r4
   b4cea:	f001 fe8c 	bl	b6a06 <_ZN12Adafruit_GFX9setCursorEss>
    display.print(HelloWorld);
   b4cee:	4649      	mov	r1, r9
   b4cf0:	4620      	mov	r0, r4
   b4cf2:	f003 fadf 	bl	b82b4 <_ZN5Print5printEPKc>
    display.setCursor(utx, uty);
   b4cf6:	b22a      	sxth	r2, r5
   b4cf8:	f9bd 1014 	ldrsh.w	r1, [sp, #20]
   b4cfc:	4620      	mov	r0, r4
   b4cfe:	f001 fe82 	bl	b6a06 <_ZN12Adafruit_GFX9setCursorEss>
    display.print(fullscreen);
   b4d02:	4659      	mov	r1, fp
   b4d04:	4620      	mov	r0, r4
   b4d06:	f003 fad5 	bl	b82b4 <_ZN5Print5printEPKc>
    display.setCursor(umx, umy);
   b4d0a:	f9bd 201c 	ldrsh.w	r2, [sp, #28]
   b4d0e:	f9bd 1018 	ldrsh.w	r1, [sp, #24]
   b4d12:	4620      	mov	r0, r4
   b4d14:	f001 fe77 	bl	b6a06 <_ZN12Adafruit_GFX9setCursorEss>
    display.print(updatemode);
   b4d18:	4631      	mov	r1, r6
   b4d1a:	4620      	mov	r0, r4
   b4d1c:	f003 faca 	bl	b82b4 <_ZN5Print5printEPKc>
  }
  while (display.nextPage());
   b4d20:	6823      	ldr	r3, [r4, #0]
   b4d22:	4620      	mov	r0, r4
   b4d24:	6f9b      	ldr	r3, [r3, #120]	; 0x78
   b4d26:	4798      	blx	r3
   b4d28:	2800      	cmp	r0, #0
   b4d2a:	d1d4      	bne.n	b4cd6 <_Z26helloFullScreenPartialModeR10GxEPD2_GFX+0x1de>
  //Serial.println("helloFullScreenPartialMode done");
}
   b4d2c:	b01f      	add	sp, #124	; 0x7c
   b4d2e:	e8bd 8ff0 	ldmia.w	sp!, {r4, r5, r6, r7, r8, r9, sl, fp, pc}
   b4d32:	bf00      	nop
   b4d34:	000b8fb1 	.word	0x000b8fb1
   b4d38:	000b8fc4 	.word	0x000b8fc4
   b4d3c:	000b8fd6 	.word	0x000b8fd6
   b4d40:	000b8fe8 	.word	0x000b8fe8
   b4d44:	000b908c 	.word	0x000b908c
   b4d48:	000b905e 	.word	0x000b905e

000b4d4c <_Z12helloArduinoR10GxEPD2_GFX>:

void helloArduino(GxEPD2_GFX& display)
{
   b4d4c:	e92d 43f0 	stmdb	sp!, {r4, r5, r6, r7, r8, r9, lr}
  //Serial.println("helloArduino");
  display.setRotation(1);
   b4d50:	6803      	ldr	r3, [r0, #0]
{
   b4d52:	b087      	sub	sp, #28
   b4d54:	4680      	mov	r8, r0
  display.setRotation(1);
   b4d56:	6b1b      	ldr	r3, [r3, #48]	; 0x30
   b4d58:	2101      	movs	r1, #1
   b4d5a:	4798      	blx	r3
  display.setFont(&FreeMonoBold9pt7b);
   b4d5c:	4941      	ldr	r1, [pc, #260]	; (b4e64 <_Z12helloArduinoR10GxEPD2_GFX+0x118>)
   b4d5e:	4640      	mov	r0, r8
   b4d60:	f001 fe59 	bl	b6a16 <_ZN12Adafruit_GFX7setFontEPK7GFXfont>
  display.setTextColor(display.epd2.hasColor ? GxEPD_RED : GxEPD_BLACK);
   b4d64:	f8d8 3020 	ldr.w	r3, [r8, #32]
   b4d68:	7a5b      	ldrb	r3, [r3, #9]
   b4d6a:	2b00      	cmp	r3, #0
   b4d6c:	bf14      	ite	ne
   b4d6e:	f44f 4178 	movne.w	r1, #63488	; 0xf800
   b4d72:	2100      	moveq	r1, #0
   b4d74:	4640      	mov	r0, r8
   b4d76:	f001 fe49 	bl	b6a0c <_ZN12Adafruit_GFX12setTextColorEt>
  int16_t tbx, tby; uint16_t tbw, tbh;
  // align with centered HelloWorld
  display.getTextBounds(HelloWorld, 0, 0, &tbx, &tby, &tbw, &tbh);
   b4d7a:	ae05      	add	r6, sp, #20
   b4d7c:	2300      	movs	r3, #0
   b4d7e:	f10d 0512 	add.w	r5, sp, #18
   b4d82:	ac04      	add	r4, sp, #16
   b4d84:	f10d 0716 	add.w	r7, sp, #22
   b4d88:	461a      	mov	r2, r3
   b4d8a:	4937      	ldr	r1, [pc, #220]	; (b4e68 <_Z12helloArduinoR10GxEPD2_GFX+0x11c>)
   b4d8c:	9602      	str	r6, [sp, #8]
   b4d8e:	9501      	str	r5, [sp, #4]
   b4d90:	9400      	str	r4, [sp, #0]
   b4d92:	4640      	mov	r0, r8
   b4d94:	9703      	str	r7, [sp, #12]
   b4d96:	f001 ff12 	bl	b6bbe <_ZN12Adafruit_GFX13getTextBoundsEPKcssPsS2_PtS3_>
  uint16_t x = ((display.width() - tbw) / 2) - tbx;
   b4d9a:	4640      	mov	r0, r8
   b4d9c:	f001 ff5d 	bl	b6c5a <_ZNK12Adafruit_GFX5widthEv>
   b4da0:	f8bd 9014 	ldrh.w	r9, [sp, #20]
  // height might be different
  display.getTextBounds(HelloArduino, 0, 0, &tbx, &tby, &tbw, &tbh);
   b4da4:	4931      	ldr	r1, [pc, #196]	; (b4e6c <_Z12helloArduinoR10GxEPD2_GFX+0x120>)
  uint16_t x = ((display.width() - tbw) / 2) - tbx;
   b4da6:	eba0 0009 	sub.w	r0, r0, r9
   b4daa:	f8bd 9010 	ldrh.w	r9, [sp, #16]
   b4dae:	eb00 70d0 	add.w	r0, r0, r0, lsr #31
  display.getTextBounds(HelloArduino, 0, 0, &tbx, &tby, &tbw, &tbh);
   b4db2:	2300      	movs	r3, #0
  uint16_t x = ((display.width() - tbw) / 2) - tbx;
   b4db4:	ebc9 0060 	rsb	r0, r9, r0, asr #1
  display.getTextBounds(HelloArduino, 0, 0, &tbx, &tby, &tbw, &tbh);
   b4db8:	461a      	mov	r2, r3
   b4dba:	e9cd 4500 	strd	r4, r5, [sp]
   b4dbe:	e9cd 6702 	strd	r6, r7, [sp, #8]
  uint16_t x = ((display.width() - tbw) / 2) - tbx;
   b4dc2:	fa1f f980 	uxth.w	r9, r0
  display.getTextBounds(HelloArduino, 0, 0, &tbx, &tby, &tbw, &tbh);
   b4dc6:	4640      	mov	r0, r8
   b4dc8:	f001 fef9 	bl	b6bbe <_ZN12Adafruit_GFX13getTextBoundsEPKcssPsS2_PtS3_>
  uint16_t y = ((display.height() / 4) - tbh / 2) - tby; // y is base line!
   b4dcc:	4640      	mov	r0, r8
   b4dce:	f001 ff47 	bl	b6c60 <_ZNK12Adafruit_GFX6heightEv>
   b4dd2:	f8bd 2016 	ldrh.w	r2, [sp, #22]
   b4dd6:	f8bd 5012 	ldrh.w	r5, [sp, #18]
   b4dda:	2800      	cmp	r0, #0
   b4ddc:	eb05 0552 	add.w	r5, r5, r2, lsr #1
   b4de0:	bfb8      	it	lt
   b4de2:	3003      	addlt	r0, #3
   b4de4:	ebc5 00a0 	rsb	r0, r5, r0, asr #2
   b4de8:	b285      	uxth	r5, r0
  // make the window big enough to cover (overwrite) descenders of previous text
  uint16_t wh = FreeMonoBold9pt7b.yAdvance;
  uint16_t wy = (display.height() / 4) - wh / 2;
   b4dea:	4640      	mov	r0, r8
   b4dec:	f001 ff38 	bl	b6c60 <_ZNK12Adafruit_GFX6heightEv>
  display.setPartialWindow(0, wy, display.width(), wh);
   b4df0:	f8d8 3000 	ldr.w	r3, [r8]
  uint16_t wy = (display.height() / 4) - wh / 2;
   b4df4:	4604      	mov	r4, r0
  display.setPartialWindow(0, wy, display.width(), wh);
   b4df6:	4640      	mov	r0, r8
   b4df8:	6f1e      	ldr	r6, [r3, #112]	; 0x70
   b4dfa:	f001 ff2e 	bl	b6c5a <_ZNK12Adafruit_GFX5widthEv>
  uint16_t wy = (display.height() / 4) - wh / 2;
   b4dfe:	1e21      	subs	r1, r4, #0
   b4e00:	bfb8      	it	lt
   b4e02:	3103      	addlt	r1, #3
   b4e04:	1089      	asrs	r1, r1, #2
   b4e06:	3909      	subs	r1, #9
  display.setPartialWindow(0, wy, display.width(), wh);
   b4e08:	2212      	movs	r2, #18
   b4e0a:	b283      	uxth	r3, r0
   b4e0c:	9200      	str	r2, [sp, #0]
   b4e0e:	4640      	mov	r0, r8
   b4e10:	b28a      	uxth	r2, r1
   b4e12:	2100      	movs	r1, #0
   b4e14:	47b0      	blx	r6
  display.firstPage();
   b4e16:	f8d8 3000 	ldr.w	r3, [r8]
  do
  {
    display.fillScreen(GxEPD_WHITE);
    //display.drawRect(x, y - tbh, tbw, tbh, GxEPD_BLACK);
    display.setCursor(x, y);
    display.print(HelloArduino);
   b4e1a:	4c14      	ldr	r4, [pc, #80]	; (b4e6c <_Z12helloArduinoR10GxEPD2_GFX+0x120>)
  display.firstPage();
   b4e1c:	6f5b      	ldr	r3, [r3, #116]	; 0x74
   b4e1e:	4640      	mov	r0, r8
   b4e20:	4798      	blx	r3
    display.setCursor(x, y);
   b4e22:	b22d      	sxth	r5, r5
    display.fillScreen(GxEPD_WHITE);
   b4e24:	f8d8 3000 	ldr.w	r3, [r8]
   b4e28:	f64f 71ff 	movw	r1, #65535	; 0xffff
   b4e2c:	6c5b      	ldr	r3, [r3, #68]	; 0x44
   b4e2e:	4640      	mov	r0, r8
   b4e30:	4798      	blx	r3
    display.setCursor(x, y);
   b4e32:	462a      	mov	r2, r5
   b4e34:	fa0f f189 	sxth.w	r1, r9
   b4e38:	4640      	mov	r0, r8
   b4e3a:	f001 fde4 	bl	b6a06 <_ZN12Adafruit_GFX9setCursorEss>
    display.print(HelloArduino);
   b4e3e:	4621      	mov	r1, r4
   b4e40:	4640      	mov	r0, r8
   b4e42:	f003 fa37 	bl	b82b4 <_ZN5Print5printEPKc>
  }
  while (display.nextPage());
   b4e46:	f8d8 3000 	ldr.w	r3, [r8]
   b4e4a:	4640      	mov	r0, r8
   b4e4c:	6f9b      	ldr	r3, [r3, #120]	; 0x78
   b4e4e:	4798      	blx	r3
   b4e50:	2800      	cmp	r0, #0
   b4e52:	d1e7      	bne.n	b4e24 <_Z12helloArduinoR10GxEPD2_GFX+0xd8>
  delay(1000);
   b4e54:	f44f 707a 	mov.w	r0, #1000	; 0x3e8
   b4e58:	f003 fb82 	bl	b8560 <delay>
  //Serial.println("helloArduino done");
}
   b4e5c:	b007      	add	sp, #28
   b4e5e:	e8bd 83f0 	ldmia.w	sp!, {r4, r5, r6, r7, r8, r9, pc}
   b4e62:	bf00      	nop
   b4e64:	000b908c 	.word	0x000b908c
   b4e68:	000b905e 	.word	0x000b905e
   b4e6c:	000b907a 	.word	0x000b907a

000b4e70 <_Z11helloEpaperR10GxEPD2_GFX>:

void helloEpaper(GxEPD2_GFX& display)
{
   b4e70:	e92d 43f0 	stmdb	sp!, {r4, r5, r6, r7, r8, r9, lr}
  //Serial.println("helloEpaper");
  display.setRotation(1);
   b4e74:	6803      	ldr	r3, [r0, #0]
{
   b4e76:	b087      	sub	sp, #28
   b4e78:	4680      	mov	r8, r0
  display.setRotation(1);
   b4e7a:	6b1b      	ldr	r3, [r3, #48]	; 0x30
   b4e7c:	2101      	movs	r1, #1
   b4e7e:	4798      	blx	r3
  display.setFont(&FreeMonoBold9pt7b);
   b4e80:	493e      	ldr	r1, [pc, #248]	; (b4f7c <_Z11helloEpaperR10GxEPD2_GFX+0x10c>)
   b4e82:	4640      	mov	r0, r8
   b4e84:	f001 fdc7 	bl	b6a16 <_ZN12Adafruit_GFX7setFontEPK7GFXfont>
  display.setTextColor(display.epd2.hasColor ? GxEPD_RED : GxEPD_BLACK);
   b4e88:	f8d8 3020 	ldr.w	r3, [r8, #32]
   b4e8c:	7a5b      	ldrb	r3, [r3, #9]
   b4e8e:	2b00      	cmp	r3, #0
   b4e90:	bf14      	ite	ne
   b4e92:	f44f 4178 	movne.w	r1, #63488	; 0xf800
   b4e96:	2100      	moveq	r1, #0
   b4e98:	4640      	mov	r0, r8
   b4e9a:	f001 fdb7 	bl	b6a0c <_ZN12Adafruit_GFX12setTextColorEt>
  int16_t tbx, tby; uint16_t tbw, tbh;
  // align with centered HelloWorld
  display.getTextBounds(HelloWorld, 0, 0, &tbx, &tby, &tbw, &tbh);
   b4e9e:	ae05      	add	r6, sp, #20
   b4ea0:	2300      	movs	r3, #0
   b4ea2:	f10d 0512 	add.w	r5, sp, #18
   b4ea6:	ac04      	add	r4, sp, #16
   b4ea8:	f10d 0716 	add.w	r7, sp, #22
   b4eac:	461a      	mov	r2, r3
   b4eae:	4934      	ldr	r1, [pc, #208]	; (b4f80 <_Z11helloEpaperR10GxEPD2_GFX+0x110>)
   b4eb0:	9602      	str	r6, [sp, #8]
   b4eb2:	9501      	str	r5, [sp, #4]
   b4eb4:	9400      	str	r4, [sp, #0]
   b4eb6:	4640      	mov	r0, r8
   b4eb8:	9703      	str	r7, [sp, #12]
   b4eba:	f001 fe80 	bl	b6bbe <_ZN12Adafruit_GFX13getTextBoundsEPKcssPsS2_PtS3_>
  uint16_t x = ((display.width() - tbw) / 2) - tbx;
   b4ebe:	4640      	mov	r0, r8
   b4ec0:	f001 fecb 	bl	b6c5a <_ZNK12Adafruit_GFX5widthEv>
   b4ec4:	f8bd 9014 	ldrh.w	r9, [sp, #20]
  // height might be different
  display.getTextBounds(HelloEpaper, 0, 0, &tbx, &tby, &tbw, &tbh);
   b4ec8:	492e      	ldr	r1, [pc, #184]	; (b4f84 <_Z11helloEpaperR10GxEPD2_GFX+0x114>)
  uint16_t x = ((display.width() - tbw) / 2) - tbx;
   b4eca:	eba0 0009 	sub.w	r0, r0, r9
   b4ece:	f8bd 9010 	ldrh.w	r9, [sp, #16]
   b4ed2:	eb00 70d0 	add.w	r0, r0, r0, lsr #31
  display.getTextBounds(HelloEpaper, 0, 0, &tbx, &tby, &tbw, &tbh);
   b4ed6:	2300      	movs	r3, #0
  uint16_t x = ((display.width() - tbw) / 2) - tbx;
   b4ed8:	ebc9 0060 	rsb	r0, r9, r0, asr #1
  display.getTextBounds(HelloEpaper, 0, 0, &tbx, &tby, &tbw, &tbh);
   b4edc:	461a      	mov	r2, r3
   b4ede:	e9cd 4500 	strd	r4, r5, [sp]
   b4ee2:	e9cd 6702 	strd	r6, r7, [sp, #8]
  uint16_t x = ((display.width() - tbw) / 2) - tbx;
   b4ee6:	fa1f f980 	uxth.w	r9, r0
  display.getTextBounds(HelloEpaper, 0, 0, &tbx, &tby, &tbw, &tbh);
   b4eea:	4640      	mov	r0, r8
   b4eec:	f001 fe67 	bl	b6bbe <_ZN12Adafruit_GFX13getTextBoundsEPKcssPsS2_PtS3_>
  uint16_t y = (display.height() * 3 / 4) + tbh / 2; // y is base line!
   b4ef0:	4640      	mov	r0, r8
   b4ef2:	f001 feb5 	bl	b6c60 <_ZNK12Adafruit_GFX6heightEv>
   b4ef6:	f8bd 5016 	ldrh.w	r5, [sp, #22]
   b4efa:	eb10 0040 	adds.w	r0, r0, r0, lsl #1
   b4efe:	bf48      	it	mi
   b4f00:	3003      	addmi	r0, #3
   b4f02:	086d      	lsrs	r5, r5, #1
   b4f04:	eb05 00a0 	add.w	r0, r5, r0, asr #2
   b4f08:	b285      	uxth	r5, r0
  // make the window big enough to cover (overwrite) descenders of previous text
  uint16_t wh = FreeMonoBold9pt7b.yAdvance;
  uint16_t wy = (display.height() * 3 / 4) - wh / 2;
   b4f0a:	4640      	mov	r0, r8
   b4f0c:	f001 fea8 	bl	b6c60 <_ZNK12Adafruit_GFX6heightEv>
  display.setPartialWindow(0, wy, display.width(), wh);
   b4f10:	f8d8 3000 	ldr.w	r3, [r8]
  uint16_t wy = (display.height() * 3 / 4) - wh / 2;
   b4f14:	4604      	mov	r4, r0
  display.setPartialWindow(0, wy, display.width(), wh);
   b4f16:	4640      	mov	r0, r8
   b4f18:	6f1e      	ldr	r6, [r3, #112]	; 0x70
   b4f1a:	f001 fe9e 	bl	b6c5a <_ZNK12Adafruit_GFX5widthEv>
  uint16_t wy = (display.height() * 3 / 4) - wh / 2;
   b4f1e:	eb14 0444 	adds.w	r4, r4, r4, lsl #1
   b4f22:	bf48      	it	mi
   b4f24:	3403      	addmi	r4, #3
   b4f26:	10a4      	asrs	r4, r4, #2
   b4f28:	3c09      	subs	r4, #9
  display.setPartialWindow(0, wy, display.width(), wh);
   b4f2a:	2212      	movs	r2, #18
   b4f2c:	b283      	uxth	r3, r0
   b4f2e:	9200      	str	r2, [sp, #0]
   b4f30:	2100      	movs	r1, #0
   b4f32:	b2a2      	uxth	r2, r4
   b4f34:	4640      	mov	r0, r8
   b4f36:	47b0      	blx	r6
  display.firstPage();
   b4f38:	f8d8 3000 	ldr.w	r3, [r8]
  do
  {
    display.fillScreen(GxEPD_WHITE);
    display.setCursor(x, y);
    display.print(HelloEpaper);
   b4f3c:	4c11      	ldr	r4, [pc, #68]	; (b4f84 <_Z11helloEpaperR10GxEPD2_GFX+0x114>)
  display.firstPage();
   b4f3e:	6f5b      	ldr	r3, [r3, #116]	; 0x74
   b4f40:	4640      	mov	r0, r8
   b4f42:	4798      	blx	r3
    display.setCursor(x, y);
   b4f44:	b22d      	sxth	r5, r5
    display.fillScreen(GxEPD_WHITE);
   b4f46:	f8d8 3000 	ldr.w	r3, [r8]
   b4f4a:	f64f 71ff 	movw	r1, #65535	; 0xffff
   b4f4e:	6c5b      	ldr	r3, [r3, #68]	; 0x44
   b4f50:	4640      	mov	r0, r8
   b4f52:	4798      	blx	r3
    display.setCursor(x, y);
   b4f54:	462a      	mov	r2, r5
   b4f56:	fa0f f189 	sxth.w	r1, r9
   b4f5a:	4640      	mov	r0, r8
   b4f5c:	f001 fd53 	bl	b6a06 <_ZN12Adafruit_GFX9setCursorEss>
    display.print(HelloEpaper);
   b4f60:	4621      	mov	r1, r4
   b4f62:	4640      	mov	r0, r8
   b4f64:	f003 f9a6 	bl	b82b4 <_ZN5Print5printEPKc>
  }
  while (display.nextPage());
   b4f68:	f8d8 3000 	ldr.w	r3, [r8]
   b4f6c:	4640      	mov	r0, r8
   b4f6e:	6f9b      	ldr	r3, [r3, #120]	; 0x78
   b4f70:	4798      	blx	r3
   b4f72:	2800      	cmp	r0, #0
   b4f74:	d1e7      	bne.n	b4f46 <_Z11helloEpaperR10GxEPD2_GFX+0xd6>
  //Serial.println("helloEpaper done");
}
   b4f76:	b007      	add	sp, #28
   b4f78:	e8bd 83f0 	ldmia.w	sp!, {r4, r5, r6, r7, r8, r9, pc}
   b4f7c:	000b908c 	.word	0x000b908c
   b4f80:	000b905e 	.word	0x000b905e
   b4f84:	000b906b 	.word	0x000b906b

000b4f88 <_Z8drawFontR10GxEPD2_GFXPKcPK7GFXfont>:
  }
  while (display.nextPage());
}

void drawFont(GxEPD2_GFX& display, const char name[], const GFXfont* f)
{
   b4f88:	b570      	push	{r4, r5, r6, lr}
  //display.setRotation(0);
  display.fillScreen(GxEPD_WHITE);
   b4f8a:	6803      	ldr	r3, [r0, #0]
{
   b4f8c:	4604      	mov	r4, r0
  display.fillScreen(GxEPD_WHITE);
   b4f8e:	6c5b      	ldr	r3, [r3, #68]	; 0x44
{
   b4f90:	460d      	mov	r5, r1
  display.fillScreen(GxEPD_WHITE);
   b4f92:	f64f 71ff 	movw	r1, #65535	; 0xffff
{
   b4f96:	4616      	mov	r6, r2
  display.fillScreen(GxEPD_WHITE);
   b4f98:	4798      	blx	r3
  display.setTextColor(GxEPD_BLACK);
   b4f9a:	2100      	movs	r1, #0
   b4f9c:	4620      	mov	r0, r4
   b4f9e:	f001 fd35 	bl	b6a0c <_ZN12Adafruit_GFX12setTextColorEt>
  display.setFont(f);
   b4fa2:	4631      	mov	r1, r6
   b4fa4:	4620      	mov	r0, r4
   b4fa6:	f001 fd36 	bl	b6a16 <_ZN12Adafruit_GFX7setFontEPK7GFXfont>
  display.setCursor(0, 0);
   b4faa:	2200      	movs	r2, #0
   b4fac:	4611      	mov	r1, r2
   b4fae:	4620      	mov	r0, r4
   b4fb0:	f001 fd29 	bl	b6a06 <_ZN12Adafruit_GFX9setCursorEss>
  display.println();
   b4fb4:	4620      	mov	r0, r4
   b4fb6:	f003 f984 	bl	b82c2 <_ZN5Print7printlnEv>
  display.println(name);
   b4fba:	4629      	mov	r1, r5
   b4fbc:	4620      	mov	r0, r4
   b4fbe:	f003 f98c 	bl	b82da <_ZN5Print7printlnEPKc>
  display.println(" !\"#$%&'()*+,-./");
   b4fc2:	4911      	ldr	r1, [pc, #68]	; (b5008 <_Z8drawFontR10GxEPD2_GFXPKcPK7GFXfont+0x80>)
   b4fc4:	4620      	mov	r0, r4
   b4fc6:	f003 f988 	bl	b82da <_ZN5Print7printlnEPKc>
  display.println("0123456789:;<=>?");
   b4fca:	4910      	ldr	r1, [pc, #64]	; (b500c <_Z8drawFontR10GxEPD2_GFXPKcPK7GFXfont+0x84>)
   b4fcc:	4620      	mov	r0, r4
   b4fce:	f003 f984 	bl	b82da <_ZN5Print7printlnEPKc>
  display.println("@ABCDEFGHIJKLMNO");
   b4fd2:	490f      	ldr	r1, [pc, #60]	; (b5010 <_Z8drawFontR10GxEPD2_GFXPKcPK7GFXfont+0x88>)
   b4fd4:	4620      	mov	r0, r4
   b4fd6:	f003 f980 	bl	b82da <_ZN5Print7printlnEPKc>
  display.println("PQRSTUVWXYZ[\\]^_");
   b4fda:	490e      	ldr	r1, [pc, #56]	; (b5014 <_Z8drawFontR10GxEPD2_GFXPKcPK7GFXfont+0x8c>)
   b4fdc:	4620      	mov	r0, r4
   b4fde:	f003 f97c 	bl	b82da <_ZN5Print7printlnEPKc>
  if (display.epd2.hasColor)
   b4fe2:	6a23      	ldr	r3, [r4, #32]
   b4fe4:	7a5b      	ldrb	r3, [r3, #9]
   b4fe6:	b123      	cbz	r3, b4ff2 <_Z8drawFontR10GxEPD2_GFXPKcPK7GFXfont+0x6a>
  {
    display.setTextColor(GxEPD_RED);
   b4fe8:	f44f 4178 	mov.w	r1, #63488	; 0xf800
   b4fec:	4620      	mov	r0, r4
   b4fee:	f001 fd0d 	bl	b6a0c <_ZN12Adafruit_GFX12setTextColorEt>
  }
  display.println("`abcdefghijklmno");
   b4ff2:	4909      	ldr	r1, [pc, #36]	; (b5018 <_Z8drawFontR10GxEPD2_GFXPKcPK7GFXfont+0x90>)
   b4ff4:	4620      	mov	r0, r4
   b4ff6:	f003 f970 	bl	b82da <_ZN5Print7printlnEPKc>
  display.println("pqrstuvwxyz{|}~ ");
   b4ffa:	4620      	mov	r0, r4
   b4ffc:	4907      	ldr	r1, [pc, #28]	; (b501c <_Z8drawFontR10GxEPD2_GFXPKcPK7GFXfont+0x94>)
}
   b4ffe:	e8bd 4070 	ldmia.w	sp!, {r4, r5, r6, lr}
  display.println("pqrstuvwxyz{|}~ ");
   b5002:	f003 b96a 	b.w	b82da <_ZN5Print7printlnEPKc>
   b5006:	bf00      	nop
   b5008:	000b8ff8 	.word	0x000b8ff8
   b500c:	000b9009 	.word	0x000b9009
   b5010:	000b901a 	.word	0x000b901a
   b5014:	000b902b 	.word	0x000b902b
   b5018:	000b903c 	.word	0x000b903c
   b501c:	000b904d 	.word	0x000b904d

000b5020 <_Z8showFontR10GxEPD2_GFXPKcPK7GFXfont>:
{
   b5020:	b570      	push	{r4, r5, r6, lr}
  display.setFullWindow();
   b5022:	6803      	ldr	r3, [r0, #0]
{
   b5024:	4604      	mov	r4, r0
  display.setFullWindow();
   b5026:	6edb      	ldr	r3, [r3, #108]	; 0x6c
{
   b5028:	4616      	mov	r6, r2
   b502a:	460d      	mov	r5, r1
  display.setFullWindow();
   b502c:	4798      	blx	r3
  display.setRotation(0);
   b502e:	6823      	ldr	r3, [r4, #0]
   b5030:	2100      	movs	r1, #0
   b5032:	6b1b      	ldr	r3, [r3, #48]	; 0x30
   b5034:	4620      	mov	r0, r4
   b5036:	4798      	blx	r3
  display.setTextColor(GxEPD_BLACK);
   b5038:	4620      	mov	r0, r4
   b503a:	2100      	movs	r1, #0
   b503c:	f001 fce6 	bl	b6a0c <_ZN12Adafruit_GFX12setTextColorEt>
  display.firstPage();
   b5040:	6823      	ldr	r3, [r4, #0]
   b5042:	4620      	mov	r0, r4
   b5044:	6f5b      	ldr	r3, [r3, #116]	; 0x74
   b5046:	4798      	blx	r3
    drawFont(display, name, f);
   b5048:	4620      	mov	r0, r4
   b504a:	4632      	mov	r2, r6
   b504c:	4629      	mov	r1, r5
   b504e:	f7ff ff9b 	bl	b4f88 <_Z8drawFontR10GxEPD2_GFXPKcPK7GFXfont>
  while (display.nextPage());
   b5052:	6823      	ldr	r3, [r4, #0]
   b5054:	4620      	mov	r0, r4
   b5056:	6f9b      	ldr	r3, [r3, #120]	; 0x78
   b5058:	4798      	blx	r3
   b505a:	2800      	cmp	r0, #0
   b505c:	d1f4      	bne.n	b5048 <_Z8showFontR10GxEPD2_GFXPKcPK7GFXfont+0x28>
}
   b505e:	bd70      	pop	{r4, r5, r6, pc}

000b5060 <_ZN13BitmapDisplay18drawBitmaps400x300Ev>:
}
#endif

#ifdef _GxBitmaps400x300_H_
void BitmapDisplay::drawBitmaps400x300()
{
   b5060:	e92d 41f0 	stmdb	sp!, {r4, r5, r6, r7, r8, lr}
   b5064:	b086      	sub	sp, #24
#if !defined(__AVR)
  const unsigned char* bitmaps[] =
   b5066:	4b1c      	ldr	r3, [pc, #112]	; (b50d8 <_ZN13BitmapDisplay18drawBitmaps400x300Ev+0x78>)
   b5068:	9304      	str	r3, [sp, #16]
   b506a:	4b1c      	ldr	r3, [pc, #112]	; (b50dc <_ZN13BitmapDisplay18drawBitmaps400x300Ev+0x7c>)
   b506c:	9305      	str	r3, [sp, #20]
    Bitmap400x300_1, Bitmap400x300_2
  };
#else
  const unsigned char* bitmaps[] = {}; // not enough code space
#endif
  if (display.epd2.panel == GxEPD2::GDEW042T2)
   b506e:	6803      	ldr	r3, [r0, #0]
   b5070:	6a1b      	ldr	r3, [r3, #32]
   b5072:	7a1b      	ldrb	r3, [r3, #8]
   b5074:	2b22      	cmp	r3, #34	; 0x22
{
   b5076:	4604      	mov	r4, r0
  if (display.epd2.panel == GxEPD2::GDEW042T2)
   b5078:	d128      	bne.n	b50cc <_ZN13BitmapDisplay18drawBitmaps400x300Ev+0x6c>
   b507a:	2500      	movs	r5, #0
    {
      display.firstPage();
      do
      {
        display.fillScreen(GxEPD_WHITE);
        display.drawInvertedBitmap(0, 0, bitmaps[i], display.epd2.WIDTH, display.epd2.HEIGHT, GxEPD_BLACK);
   b507c:	ae04      	add	r6, sp, #16
   b507e:	462f      	mov	r7, r5
      display.firstPage();
   b5080:	6820      	ldr	r0, [r4, #0]
   b5082:	6803      	ldr	r3, [r0, #0]
   b5084:	6f5b      	ldr	r3, [r3, #116]	; 0x74
   b5086:	4798      	blx	r3
        display.fillScreen(GxEPD_WHITE);
   b5088:	6820      	ldr	r0, [r4, #0]
   b508a:	6803      	ldr	r3, [r0, #0]
   b508c:	f64f 71ff 	movw	r1, #65535	; 0xffff
   b5090:	6c5b      	ldr	r3, [r3, #68]	; 0x44
   b5092:	4798      	blx	r3
        display.drawInvertedBitmap(0, 0, bitmaps[i], display.epd2.WIDTH, display.epd2.HEIGHT, GxEPD_BLACK);
   b5094:	6820      	ldr	r0, [r4, #0]
   b5096:	6a03      	ldr	r3, [r0, #32]
   b5098:	6802      	ldr	r2, [r0, #0]
   b509a:	9702      	str	r7, [sp, #8]
   b509c:	f9b3 1006 	ldrsh.w	r1, [r3, #6]
   b50a0:	9101      	str	r1, [sp, #4]
   b50a2:	f9b3 3004 	ldrsh.w	r3, [r3, #4]
   b50a6:	9300      	str	r3, [sp, #0]
   b50a8:	f8d2 8080 	ldr.w	r8, [r2, #128]	; 0x80
   b50ac:	f856 3025 	ldr.w	r3, [r6, r5, lsl #2]
   b50b0:	2200      	movs	r2, #0
   b50b2:	4611      	mov	r1, r2
   b50b4:	47c0      	blx	r8
      }
      while (display.nextPage());
   b50b6:	6820      	ldr	r0, [r4, #0]
   b50b8:	6803      	ldr	r3, [r0, #0]
   b50ba:	6f9b      	ldr	r3, [r3, #120]	; 0x78
   b50bc:	4798      	blx	r3
   b50be:	2800      	cmp	r0, #0
   b50c0:	d1e2      	bne.n	b5088 <_ZN13BitmapDisplay18drawBitmaps400x300Ev+0x28>
      delay(2000);
   b50c2:	f44f 60fa 	mov.w	r0, #2000	; 0x7d0
   b50c6:	f003 fa4b 	bl	b8560 <delay>
    for (uint16_t i = 0; i < sizeof(bitmaps) / sizeof(char*); i++)
   b50ca:	b115      	cbz	r5, b50d2 <_ZN13BitmapDisplay18drawBitmaps400x300Ev+0x72>
    }
  }
}
   b50cc:	b006      	add	sp, #24
   b50ce:	e8bd 81f0 	ldmia.w	sp!, {r4, r5, r6, r7, r8, pc}
   b50d2:	2501      	movs	r5, #1
   b50d4:	e7d4      	b.n	b5080 <_ZN13BitmapDisplay18drawBitmaps400x300Ev+0x20>
   b50d6:	bf00      	nop
   b50d8:	000b9778 	.word	0x000b9778
   b50dc:	000bd210 	.word	0x000bd210

000b50e0 <_ZN13BitmapDisplay20drawBitmaps3c400x300Ev>:
}
#endif

#ifdef _GxBitmaps3c400x300_H_
void BitmapDisplay::drawBitmaps3c400x300()
{
   b50e0:	e92d 43f0 	stmdb	sp!, {r4, r5, r6, r7, r8, r9, lr}
#if !defined(__AVR)
  bitmap_pair bitmap_pairs[] =
   b50e4:	4e28      	ldr	r6, [pc, #160]	; (b5188 <_ZN13BitmapDisplay20drawBitmaps3c400x300Ev+0xa8>)
{
   b50e6:	4604      	mov	r4, r0
  bitmap_pair bitmap_pairs[] =
   b50e8:	ce0f      	ldmia	r6!, {r0, r1, r2, r3}
{
   b50ea:	b08b      	sub	sp, #44	; 0x2c
  bitmap_pair bitmap_pairs[] =
   b50ec:	ad04      	add	r5, sp, #16
   b50ee:	c50f      	stmia	r5!, {r0, r1, r2, r3}
    {WS_Bitmap3c400x300_black, WS_Bitmap3c400x300_red}
  };
#else
  bitmap_pair bitmap_pairs[] = {}; // not enough code space
#endif
  if (display.epd2.panel == GxEPD2::GDEW042Z15)
   b50f0:	6823      	ldr	r3, [r4, #0]
   b50f2:	6a1b      	ldr	r3, [r3, #32]
  bitmap_pair bitmap_pairs[] =
   b50f4:	e896 0003 	ldmia.w	r6, {r0, r1}
  if (display.epd2.panel == GxEPD2::GDEW042Z15)
   b50f8:	7a1b      	ldrb	r3, [r3, #8]
   b50fa:	2b3c      	cmp	r3, #60	; 0x3c
  bitmap_pair bitmap_pairs[] =
   b50fc:	e885 0003 	stmia.w	r5, {r0, r1}
  if (display.epd2.panel == GxEPD2::GDEW042Z15)
   b5100:	d13e      	bne.n	b5180 <_ZN13BitmapDisplay20drawBitmaps3c400x300Ev+0xa0>
   b5102:	ae04      	add	r6, sp, #16
   b5104:	2503      	movs	r5, #3
    {
      display.firstPage();
      do
      {
        display.fillScreen(GxEPD_WHITE);
        display.drawInvertedBitmap(0, 0, bitmap_pairs[i].black, display.epd2.WIDTH, display.epd2.HEIGHT, GxEPD_BLACK);
   b5106:	2700      	movs	r7, #0
        display.drawInvertedBitmap(0, 0, bitmap_pairs[i].red, display.epd2.WIDTH, display.epd2.HEIGHT, GxEPD_RED);
   b5108:	f44f 4878 	mov.w	r8, #63488	; 0xf800
      display.firstPage();
   b510c:	6820      	ldr	r0, [r4, #0]
   b510e:	6803      	ldr	r3, [r0, #0]
   b5110:	6f5b      	ldr	r3, [r3, #116]	; 0x74
   b5112:	4798      	blx	r3
        display.fillScreen(GxEPD_WHITE);
   b5114:	6820      	ldr	r0, [r4, #0]
   b5116:	6803      	ldr	r3, [r0, #0]
   b5118:	f64f 71ff 	movw	r1, #65535	; 0xffff
   b511c:	6c5b      	ldr	r3, [r3, #68]	; 0x44
   b511e:	4798      	blx	r3
        display.drawInvertedBitmap(0, 0, bitmap_pairs[i].black, display.epd2.WIDTH, display.epd2.HEIGHT, GxEPD_BLACK);
   b5120:	6820      	ldr	r0, [r4, #0]
   b5122:	6a03      	ldr	r3, [r0, #32]
   b5124:	6802      	ldr	r2, [r0, #0]
   b5126:	9702      	str	r7, [sp, #8]
   b5128:	f9b3 1006 	ldrsh.w	r1, [r3, #6]
   b512c:	9101      	str	r1, [sp, #4]
   b512e:	f9b3 3004 	ldrsh.w	r3, [r3, #4]
   b5132:	9300      	str	r3, [sp, #0]
   b5134:	f8d2 9080 	ldr.w	r9, [r2, #128]	; 0x80
   b5138:	6833      	ldr	r3, [r6, #0]
   b513a:	2200      	movs	r2, #0
   b513c:	4611      	mov	r1, r2
   b513e:	47c8      	blx	r9
        display.drawInvertedBitmap(0, 0, bitmap_pairs[i].red, display.epd2.WIDTH, display.epd2.HEIGHT, GxEPD_RED);
   b5140:	6820      	ldr	r0, [r4, #0]
   b5142:	6a03      	ldr	r3, [r0, #32]
   b5144:	6802      	ldr	r2, [r0, #0]
   b5146:	f8cd 8008 	str.w	r8, [sp, #8]
   b514a:	f9b3 1006 	ldrsh.w	r1, [r3, #6]
   b514e:	9101      	str	r1, [sp, #4]
   b5150:	f9b3 3004 	ldrsh.w	r3, [r3, #4]
   b5154:	9300      	str	r3, [sp, #0]
   b5156:	f8d2 9080 	ldr.w	r9, [r2, #128]	; 0x80
   b515a:	6873      	ldr	r3, [r6, #4]
   b515c:	2200      	movs	r2, #0
   b515e:	4611      	mov	r1, r2
   b5160:	47c8      	blx	r9
      }
      while (display.nextPage());
   b5162:	6820      	ldr	r0, [r4, #0]
   b5164:	6803      	ldr	r3, [r0, #0]
   b5166:	6f9b      	ldr	r3, [r3, #120]	; 0x78
   b5168:	4798      	blx	r3
   b516a:	2800      	cmp	r0, #0
   b516c:	d1d2      	bne.n	b5114 <_ZN13BitmapDisplay20drawBitmaps3c400x300Ev+0x34>
    for (uint16_t i = 0; i < sizeof(bitmap_pairs) / sizeof(bitmap_pair); i++)
   b516e:	3d01      	subs	r5, #1
      delay(2000);
   b5170:	f44f 60fa 	mov.w	r0, #2000	; 0x7d0
    for (uint16_t i = 0; i < sizeof(bitmap_pairs) / sizeof(bitmap_pair); i++)
   b5174:	b2ad      	uxth	r5, r5
      delay(2000);
   b5176:	f003 f9f3 	bl	b8560 <delay>
    for (uint16_t i = 0; i < sizeof(bitmap_pairs) / sizeof(bitmap_pair); i++)
   b517a:	3608      	adds	r6, #8
   b517c:	2d00      	cmp	r5, #0
   b517e:	d1c5      	bne.n	b510c <_ZN13BitmapDisplay20drawBitmaps3c400x300Ev+0x2c>
    }
  }
}
   b5180:	b00b      	add	sp, #44	; 0x2c
   b5182:	e8bd 83f0 	ldmia.w	sp!, {r4, r5, r6, r7, r8, r9, pc}
   b5186:	bf00      	nop
   b5188:	000b8f70 	.word	0x000b8f70

000b518c <_ZN13BitmapDisplay11drawBitmapsEv>:
{
   b518c:	b510      	push	{r4, lr}
   b518e:	4604      	mov	r4, r0
  display.setFullWindow();
   b5190:	6800      	ldr	r0, [r0, #0]
   b5192:	6803      	ldr	r3, [r0, #0]
   b5194:	6edb      	ldr	r3, [r3, #108]	; 0x6c
   b5196:	4798      	blx	r3
  drawBitmaps400x300();
   b5198:	4620      	mov	r0, r4
   b519a:	f7ff ff61 	bl	b5060 <_ZN13BitmapDisplay18drawBitmaps400x300Ev>
  drawBitmaps3c400x300();
   b519e:	4620      	mov	r0, r4
}
   b51a0:	e8bd 4010 	ldmia.w	sp!, {r4, lr}
  drawBitmaps3c400x300();
   b51a4:	f7ff bf9c 	b.w	b50e0 <_ZN13BitmapDisplay20drawBitmaps3c400x300Ev>

000b51a8 <_ZN8particle11SPISettingsD1Ev>:
  SPISettings()
  {
  }

  virtual ~SPISettings() {
  }
   b51a8:	4770      	bx	lr

000b51aa <_ZN9GxEPD2_3CI11GxEPD2_420cLt300EE13setFullWindowEv>:
      epd2.writeImagePartPrevious(_black_buffer, x, y, GxEPD2_Type::WIDTH, _page_height, x, y, w, h);
    }

    void setFullWindow()
    {
      _using_partial_mode = false;
   b51aa:	f500 43e0 	add.w	r3, r0, #28672	; 0x7000
   b51ae:	2200      	movs	r2, #0
   b51b0:	f883 2598 	strb.w	r2, [r3, #1432]	; 0x598
      _pw_x = 0;
   b51b4:	f8a3 25a6 	strh.w	r2, [r3, #1446]	; 0x5a6
      _pw_y = 0;
   b51b8:	f04f 72c8 	mov.w	r2, #26214400	; 0x1900000
   b51bc:	f8c3 25a8 	str.w	r2, [r3, #1448]	; 0x5a8
      _pw_w = GxEPD2_Type::WIDTH;
      _pw_h = HEIGHT;
   b51c0:	8942      	ldrh	r2, [r0, #10]
   b51c2:	f8a3 25ac 	strh.w	r2, [r3, #1452]	; 0x5ac
    }
   b51c6:	4770      	bx	lr

000b51c8 <_ZN9GxEPD2_3CI11GxEPD2_420cLt300EE9firstPageEv>:
      _pw_w += _pw_x % 8;
      if (_pw_w % 8 > 0) _pw_w += 8 - _pw_w % 8;
      _pw_x -= _pw_x % 8;
    }

    void firstPage()
   b51c8:	b510      	push	{r4, lr}
    {
      fillScreen(GxEPD_WHITE);
   b51ca:	6803      	ldr	r3, [r0, #0]
    void firstPage()
   b51cc:	4604      	mov	r4, r0
      fillScreen(GxEPD_WHITE);
   b51ce:	6c5b      	ldr	r3, [r3, #68]	; 0x44
      _current_page = 0;
   b51d0:	f504 44e0 	add.w	r4, r4, #28672	; 0x7000
      fillScreen(GxEPD_WHITE);
   b51d4:	f64f 71ff 	movw	r1, #65535	; 0xffff
   b51d8:	4798      	blx	r3
      _current_page = 0;
   b51da:	2300      	movs	r3, #0
   b51dc:	f8a4 35a0 	strh.w	r3, [r4, #1440]	; 0x5a0
      _second_phase = false;
   b51e0:	f884 3599 	strb.w	r3, [r4, #1433]	; 0x599
      epd2.setPaged(); // for GxEPD2_154c paged workaround
    }
   b51e4:	bd10      	pop	{r4, pc}

000b51e6 <_ZN9GxEPD2_3CI11GxEPD2_420cLt300EE10fillScreenEt>:
    void fillScreen(uint16_t color) // 0x0 black, >0x0 white, to buffer
   b51e6:	b538      	push	{r3, r4, r5, lr}
      if (color == GxEPD_WHITE);
   b51e8:	f64f 73ff 	movw	r3, #65535	; 0xffff
   b51ec:	4299      	cmp	r1, r3
    void fillScreen(uint16_t color) // 0x0 black, >0x0 white, to buffer
   b51ee:	4605      	mov	r5, r0
      if (color == GxEPD_WHITE);
   b51f0:	d00c      	beq.n	b520c <_ZN9GxEPD2_3CI11GxEPD2_420cLt300EE10fillScreenEt+0x26>
      else if (color == GxEPD_BLACK) black = 0x00;
   b51f2:	b169      	cbz	r1, b5210 <_ZN9GxEPD2_3CI11GxEPD2_420cLt300EE10fillScreenEt+0x2a>
      else if ((color == GxEPD_RED) || (color == GxEPD_YELLOW)) red = 0x00;
   b51f4:	f5b1 4f78 	cmp.w	r1, #63488	; 0xf800
   b51f8:	d01a      	beq.n	b5230 <_ZN9GxEPD2_3CI11GxEPD2_420cLt300EE10fillScreenEt+0x4a>
   b51fa:	f64f 73e0 	movw	r3, #65504	; 0xffe0
   b51fe:	1ac9      	subs	r1, r1, r3
   b5200:	bf18      	it	ne
   b5202:	f04f 31ff 	movne.w	r1, #4294967295
   b5206:	b2cc      	uxtb	r4, r1
      uint8_t black = 0xFF;
   b5208:	21ff      	movs	r1, #255	; 0xff
   b520a:	e002      	b.n	b5212 <_ZN9GxEPD2_3CI11GxEPD2_420cLt300EE10fillScreenEt+0x2c>
      uint8_t red = 0xFF;
   b520c:	24ff      	movs	r4, #255	; 0xff
   b520e:	e7fb      	b.n	b5208 <_ZN9GxEPD2_3CI11GxEPD2_420cLt300EE10fillScreenEt+0x22>
   b5210:	24ff      	movs	r4, #255	; 0xff
        _black_buffer[x] = black;
   b5212:	f643 2298 	movw	r2, #15000	; 0x3a98
   b5216:	f105 0068 	add.w	r0, r5, #104	; 0x68
   b521a:	f003 fe0d 	bl	b8e38 <memset>
        _color_buffer[x] = red;
   b521e:	4621      	mov	r1, r4
   b5220:	f505 506c 	add.w	r0, r5, #15104	; 0x3b00
   b5224:	f643 2298 	movw	r2, #15000	; 0x3a98
    }
   b5228:	e8bd 4038 	ldmia.w	sp!, {r3, r4, r5, lr}
        _color_buffer[x] = red;
   b522c:	f003 be04 	b.w	b8e38 <memset>
      else if ((color == GxEPD_RED) || (color == GxEPD_YELLOW)) red = 0x00;
   b5230:	2400      	movs	r4, #0
   b5232:	e7e9      	b.n	b5208 <_ZN9GxEPD2_3CI11GxEPD2_420cLt300EE10fillScreenEt+0x22>

000b5234 <_ZN9GxEPD2_3CI11GxEPD2_420cLt300EED1Ev>:
class GxEPD2_3C : public GxEPD2_GFX_BASE_CLASS
   b5234:	4770      	bx	lr

000b5236 <_ZN9GxEPD2_3CI11GxEPD2_420cLt300EE5pagesEv>:
      return _pages;
   b5236:	f500 40e0 	add.w	r0, r0, #28672	; 0x7000
    }
   b523a:	f8b0 05a2 	ldrh.w	r0, [r0, #1442]	; 0x5a2
   b523e:	4770      	bx	lr

000b5240 <_ZN9GxEPD2_3CI11GxEPD2_420cLt300EE10pageHeightEv>:
      return _page_height;
   b5240:	f500 40e0 	add.w	r0, r0, #28672	; 0x7000
    }
   b5244:	f8b0 05a4 	ldrh.w	r0, [r0, #1444]	; 0x5a4
   b5248:	4770      	bx	lr

000b524a <_ZN9GxEPD2_3CI11GxEPD2_420cLt300EE6mirrorEb>:
    }
  private:
    template <typename T> static inline void
    _swap_(T & a, T & b)
    {
      T t = a;
   b524a:	f500 43e0 	add.w	r3, r0, #28672	; 0x7000
   b524e:	f893 059a 	ldrb.w	r0, [r3, #1434]	; 0x59a
      a = b;
   b5252:	f883 159a 	strb.w	r1, [r3, #1434]	; 0x59a
    }
   b5256:	4770      	bx	lr

000b5258 <_ZN9GxEPD2_3CI11GxEPD2_420cLt300EE18drawInvertedBitmapEssPKhsst>:
    void drawInvertedBitmap(int16_t x, int16_t y, const uint8_t bitmap[], int16_t w, int16_t h, uint16_t color)
   b5258:	e92d 4ff0 	stmdb	sp!, {r4, r5, r6, r7, r8, r9, sl, fp, lr}
   b525c:	b089      	sub	sp, #36	; 0x24
   b525e:	e9cd 2303 	strd	r2, r3, [sp, #12]
   b5262:	f9bd 8048 	ldrsh.w	r8, [sp, #72]	; 0x48
   b5266:	f9bd 304c 	ldrsh.w	r3, [sp, #76]	; 0x4c
   b526a:	9305      	str	r3, [sp, #20]
      int16_t byteWidth = (w + 7) / 8; // Bitmap scanline pad = whole byte
   b526c:	f118 0207 	adds.w	r2, r8, #7
    void drawInvertedBitmap(int16_t x, int16_t y, const uint8_t bitmap[], int16_t w, int16_t h, uint16_t color)
   b5270:	e9cd 0101 	strd	r0, r1, [sp, #4]
      int16_t byteWidth = (w + 7) / 8; // Bitmap scanline pad = whole byte
   b5274:	f04f 0500 	mov.w	r5, #0
   b5278:	bf48      	it	mi
   b527a:	f108 020e 	addmi.w	r2, r8, #14
    void drawInvertedBitmap(int16_t x, int16_t y, const uint8_t bitmap[], int16_t w, int16_t h, uint16_t color)
   b527e:	f8bd 3050 	ldrh.w	r3, [sp, #80]	; 0x50
      int16_t byteWidth = (w + 7) / 8; // Bitmap scanline pad = whole byte
   b5282:	ea4f 0be2 	mov.w	fp, r2, asr #3
   b5286:	462e      	mov	r6, r5
      uint8_t byte = 0;
   b5288:	462c      	mov	r4, r5
      for (int16_t j = 0; j < h; j++)
   b528a:	9905      	ldr	r1, [sp, #20]
   b528c:	b232      	sxth	r2, r6
   b528e:	4291      	cmp	r1, r2
   b5290:	dd29      	ble.n	b52e6 <_ZN9GxEPD2_3CI11GxEPD2_420cLt300EE18drawInvertedBitmapEssPKhsst+0x8e>
            byte = bitmap[j * byteWidth + i / 8];
   b5292:	9a04      	ldr	r2, [sp, #16]
   b5294:	eb02 0a05 	add.w	sl, r2, r5
            drawPixel(x + i, y + j, color);
   b5298:	9a03      	ldr	r2, [sp, #12]
   b529a:	4432      	add	r2, r6
      for (int16_t j = 0; j < h; j++)
   b529c:	f04f 0900 	mov.w	r9, #0
            drawPixel(x + i, y + j, color);
   b52a0:	b212      	sxth	r2, r2
   b52a2:	fa0f f089 	sxth.w	r0, r9
        for (int16_t i = 0; i < w; i++ )
   b52a6:	4580      	cmp	r8, r0
   b52a8:	fa1f f189 	uxth.w	r1, r9
   b52ac:	dd18      	ble.n	b52e0 <_ZN9GxEPD2_3CI11GxEPD2_420cLt300EE18drawInvertedBitmapEssPKhsst+0x88>
          if (i & 7) byte <<= 1;
   b52ae:	074f      	lsls	r7, r1, #29
            byte = bitmap[j * byteWidth + i / 8];
   b52b0:	bf0b      	itete	eq
   b52b2:	10c0      	asreq	r0, r0, #3
          if (i & 7) byte <<= 1;
   b52b4:	0064      	lslne	r4, r4, #1
            byte = bitmap[j * byteWidth + i / 8];
   b52b6:	f81a 4000 	ldrbeq.w	r4, [sl, r0]
          if (i & 7) byte <<= 1;
   b52ba:	b2e4      	uxtbne	r4, r4
          if (!(byte & 0x80))
   b52bc:	0620      	lsls	r0, r4, #24
   b52be:	d40c      	bmi.n	b52da <_ZN9GxEPD2_3CI11GxEPD2_420cLt300EE18drawInvertedBitmapEssPKhsst+0x82>
            drawPixel(x + i, y + j, color);
   b52c0:	9802      	ldr	r0, [sp, #8]
   b52c2:	4401      	add	r1, r0
   b52c4:	9801      	ldr	r0, [sp, #4]
   b52c6:	6800      	ldr	r0, [r0, #0]
   b52c8:	6900      	ldr	r0, [r0, #16]
   b52ca:	e9cd 2306 	strd	r2, r3, [sp, #24]
   b52ce:	4607      	mov	r7, r0
   b52d0:	b209      	sxth	r1, r1
   b52d2:	9801      	ldr	r0, [sp, #4]
   b52d4:	47b8      	blx	r7
   b52d6:	e9dd 2306 	ldrd	r2, r3, [sp, #24]
        for (int16_t i = 0; i < w; i++ )
   b52da:	f109 0901 	add.w	r9, r9, #1
   b52de:	e7e0      	b.n	b52a2 <_ZN9GxEPD2_3CI11GxEPD2_420cLt300EE18drawInvertedBitmapEssPKhsst+0x4a>
      for (int16_t j = 0; j < h; j++)
   b52e0:	3601      	adds	r6, #1
   b52e2:	445d      	add	r5, fp
   b52e4:	e7d1      	b.n	b528a <_ZN9GxEPD2_3CI11GxEPD2_420cLt300EE18drawInvertedBitmapEssPKhsst+0x32>
    }
   b52e6:	b009      	add	sp, #36	; 0x24
   b52e8:	e8bd 8ff0 	ldmia.w	sp!, {r4, r5, r6, r7, r8, r9, sl, fp, pc}

000b52ec <_ZN9GxEPD2_3CI11GxEPD2_420cLt300EE4initEmbtb>:
    void init(uint32_t serial_diag_bitrate, bool initial, uint16_t reset_duration = 20, bool pulldown_rst_mode = false)
   b52ec:	b513      	push	{r0, r1, r4, lr}
   b52ee:	4604      	mov	r4, r0
   b52f0:	f89d 0010 	ldrb.w	r0, [sp, #16]
      epd2.init(serial_diag_bitrate, initial, reset_duration, pulldown_rst_mode);
   b52f4:	9000      	str	r0, [sp, #0]
   b52f6:	f104 0024 	add.w	r0, r4, #36	; 0x24
   b52fa:	f001 fdc8 	bl	b6e8e <_ZN10GxEPD2_EPD4initEmbtb>
      _using_partial_mode = false;
   b52fe:	f504 43e0 	add.w	r3, r4, #28672	; 0x7000
   b5302:	2200      	movs	r2, #0
   b5304:	f883 2598 	strb.w	r2, [r3, #1432]	; 0x598
      _current_page = 0;
   b5308:	f8a3 25a0 	strh.w	r2, [r3, #1440]	; 0x5a0
      setFullWindow();
   b530c:	6823      	ldr	r3, [r4, #0]
   b530e:	6edb      	ldr	r3, [r3, #108]	; 0x6c
   b5310:	4620      	mov	r0, r4
    }
   b5312:	b002      	add	sp, #8
   b5314:	e8bd 4010 	ldmia.w	sp!, {r4, lr}
      setFullWindow();
   b5318:	4718      	bx	r3

000b531a <_ZN9GxEPD2_3CI11GxEPD2_420cLt300EE8powerOffEv>:
      epd2.powerOff();
   b531a:	3024      	adds	r0, #36	; 0x24
   b531c:	f002 b806 	b.w	b732c <_ZN11GxEPD2_420c8powerOffEv>

000b5320 <_ZN9GxEPD2_3CI11GxEPD2_420cLt300EE10writeImageEPKhS3_ssss>:
    void writeImage(const uint8_t* black, const uint8_t* color, int16_t x, int16_t y, int16_t w, int16_t h)
   b5320:	b510      	push	{r4, lr}
   b5322:	b086      	sub	sp, #24
      epd2.writeImage(black, color, x, y, w, h, false, false, false);
   b5324:	2400      	movs	r4, #0
   b5326:	e9cd 4404 	strd	r4, r4, [sp, #16]
   b532a:	9403      	str	r4, [sp, #12]
   b532c:	f9bd 4028 	ldrsh.w	r4, [sp, #40]	; 0x28
   b5330:	9402      	str	r4, [sp, #8]
   b5332:	f9bd 4024 	ldrsh.w	r4, [sp, #36]	; 0x24
   b5336:	9401      	str	r4, [sp, #4]
   b5338:	f9bd 4020 	ldrsh.w	r4, [sp, #32]
   b533c:	9400      	str	r4, [sp, #0]
   b533e:	3024      	adds	r0, #36	; 0x24
   b5340:	f002 f9f3 	bl	b772a <_ZN11GxEPD2_420c10writeImageEPKhS1_ssssbbb>
    }
   b5344:	b006      	add	sp, #24
   b5346:	bd10      	pop	{r4, pc}

000b5348 <_ZN9GxEPD2_3CI11GxEPD2_420cLt300EE10writeImageEPKhS3_ssssbbb>:
    void writeImage(const uint8_t* black, const uint8_t* color, int16_t x, int16_t y, int16_t w, int16_t h, bool invert, bool mirror_y, bool pgm)
   b5348:	b5f0      	push	{r4, r5, r6, r7, lr}
   b534a:	f9bd 4014 	ldrsh.w	r4, [sp, #20]
   b534e:	f9bd 5018 	ldrsh.w	r5, [sp, #24]
   b5352:	f9bd 601c 	ldrsh.w	r6, [sp, #28]
   b5356:	f89d 7020 	ldrb.w	r7, [sp, #32]
   b535a:	f89d c024 	ldrb.w	ip, [sp, #36]	; 0x24
   b535e:	f89d e028 	ldrb.w	lr, [sp, #40]	; 0x28
      epd2.writeImage(black, color, x, y, w, h, invert, mirror_y, pgm);
   b5362:	e9cd 6707 	strd	r6, r7, [sp, #28]
   b5366:	e9cd ce09 	strd	ip, lr, [sp, #36]	; 0x24
   b536a:	e9cd 4505 	strd	r4, r5, [sp, #20]
   b536e:	3024      	adds	r0, #36	; 0x24
    }
   b5370:	e8bd 40f0 	ldmia.w	sp!, {r4, r5, r6, r7, lr}
      epd2.writeImage(black, color, x, y, w, h, invert, mirror_y, pgm);
   b5374:	f002 b9d9 	b.w	b772a <_ZN11GxEPD2_420c10writeImageEPKhS1_ssssbbb>

000b5378 <_ZN9GxEPD2_3CI11GxEPD2_420cLt300EE7refreshEssss>:
    void refresh(int16_t x, int16_t y, int16_t w, int16_t h) // screen refresh from controller memory, partial screen
   b5378:	b410      	push	{r4}
   b537a:	f9bd 4004 	ldrsh.w	r4, [sp, #4]
      epd2.refresh(x, y, w, h);
   b537e:	9401      	str	r4, [sp, #4]
   b5380:	3024      	adds	r0, #36	; 0x24
    }
   b5382:	f85d 4b04 	ldr.w	r4, [sp], #4
      epd2.refresh(x, y, w, h);
   b5386:	f002 bbd7 	b.w	b7b38 <_ZN11GxEPD2_420c7refreshEssss>

000b538a <_ZN9GxEPD2_3CI11GxEPD2_420cLt300EE7refreshEb>:
    void refresh(bool partial_update_mode = false) // screen refresh from controller memory to full screen
   b538a:	b513      	push	{r0, r1, r4, lr}
      epd2.refresh(partial_update_mode);
   b538c:	3024      	adds	r0, #36	; 0x24
    void refresh(bool partial_update_mode = false) // screen refresh from controller memory to full screen
   b538e:	460c      	mov	r4, r1
      epd2.refresh(partial_update_mode);
   b5390:	9001      	str	r0, [sp, #4]
   b5392:	f002 fb65 	bl	b7a60 <_ZN11GxEPD2_420c7refreshEb>
      if (!partial_update_mode) epd2.powerOff();
   b5396:	9801      	ldr	r0, [sp, #4]
   b5398:	b924      	cbnz	r4, b53a4 <_ZN9GxEPD2_3CI11GxEPD2_420cLt300EE7refreshEb+0x1a>
    }
   b539a:	b002      	add	sp, #8
   b539c:	e8bd 4010 	ldmia.w	sp!, {r4, lr}
      if (!partial_update_mode) epd2.powerOff();
   b53a0:	f001 bfc4 	b.w	b732c <_ZN11GxEPD2_420c8powerOffEv>
    }
   b53a4:	b002      	add	sp, #8
   b53a6:	bd10      	pop	{r4, pc}

000b53a8 <_ZN9GxEPD2_3CI11GxEPD2_420cLt300EE7displayEb>:
    void display(bool partial_update_mode = false)
   b53a8:	b530      	push	{r4, r5, lr}
      epd2.writeImage(_black_buffer, _color_buffer, 0, 0, GxEPD2_Type::WIDTH, _page_height);
   b53aa:	2300      	movs	r3, #0
    void display(bool partial_update_mode = false)
   b53ac:	b089      	sub	sp, #36	; 0x24
   b53ae:	4604      	mov	r4, r0
      epd2.writeImage(_black_buffer, _color_buffer, 0, 0, GxEPD2_Type::WIDTH, _page_height);
   b53b0:	e9cd 3304 	strd	r3, r3, [sp, #16]
   b53b4:	f504 42e0 	add.w	r2, r4, #28672	; 0x7000
   b53b8:	9303      	str	r3, [sp, #12]
   b53ba:	f9b2 25a4 	ldrsh.w	r2, [r2, #1444]	; 0x5a4
   b53be:	9202      	str	r2, [sp, #8]
   b53c0:	f44f 72c8 	mov.w	r2, #400	; 0x190
   b53c4:	e9cd 3200 	strd	r3, r2, [sp]
   b53c8:	3024      	adds	r0, #36	; 0x24
    void display(bool partial_update_mode = false)
   b53ca:	460d      	mov	r5, r1
      epd2.writeImage(_black_buffer, _color_buffer, 0, 0, GxEPD2_Type::WIDTH, _page_height);
   b53cc:	f504 526c 	add.w	r2, r4, #15104	; 0x3b00
   b53d0:	f104 0168 	add.w	r1, r4, #104	; 0x68
   b53d4:	9007      	str	r0, [sp, #28]
   b53d6:	f002 f9a8 	bl	b772a <_ZN11GxEPD2_420c10writeImageEPKhS1_ssssbbb>
      epd2.refresh(partial_update_mode);
   b53da:	9807      	ldr	r0, [sp, #28]
   b53dc:	4629      	mov	r1, r5
   b53de:	f002 fb3f 	bl	b7a60 <_ZN11GxEPD2_420c7refreshEb>
      if (!partial_update_mode) epd2.powerOff();
   b53e2:	9807      	ldr	r0, [sp, #28]
   b53e4:	b925      	cbnz	r5, b53f0 <_ZN9GxEPD2_3CI11GxEPD2_420cLt300EE7displayEb+0x48>
    }
   b53e6:	b009      	add	sp, #36	; 0x24
   b53e8:	e8bd 4030 	ldmia.w	sp!, {r4, r5, lr}
      if (!partial_update_mode) epd2.powerOff();
   b53ec:	f001 bf9e 	b.w	b732c <_ZN11GxEPD2_420c8powerOffEv>
    }
   b53f0:	b009      	add	sp, #36	; 0x24
   b53f2:	bd30      	pop	{r4, r5, pc}

000b53f4 <_ZN9GxEPD2_3CI11GxEPD2_420cLt300EE8nextPageEv>:
    bool nextPage()
   b53f4:	b5f0      	push	{r4, r5, r6, r7, lr}
      uint16_t page_ys = _current_page * _page_height;
   b53f6:	f500 44e0 	add.w	r4, r0, #28672	; 0x7000
    bool nextPage()
   b53fa:	b089      	sub	sp, #36	; 0x24
      uint16_t page_ys = _current_page * _page_height;
   b53fc:	f9b4 15a0 	ldrsh.w	r1, [r4, #1440]	; 0x5a0
   b5400:	f8b4 75a4 	ldrh.w	r7, [r4, #1444]	; 0x5a4
      if (_using_partial_mode)
   b5404:	f894 6598 	ldrb.w	r6, [r4, #1432]	; 0x598
      uint16_t page_ys = _current_page * _page_height;
   b5408:	fb11 f307 	smulbb	r3, r1, r7
    bool nextPage()
   b540c:	4605      	mov	r5, r0
      uint16_t page_ys = _current_page * _page_height;
   b540e:	b29b      	uxth	r3, r3
      if (_using_partial_mode)
   b5410:	2e00      	cmp	r6, #0
   b5412:	d056      	beq.n	b54c2 <_ZN9GxEPD2_3CI11GxEPD2_420cLt300EE8nextPageEv+0xce>
        uint16_t page_ye = _current_page < int16_t(_pages - 1) ? page_ys + _page_height : HEIGHT;
   b5414:	f8b4 25a2 	ldrh.w	r2, [r4, #1442]	; 0x5a2
   b5418:	3a01      	subs	r2, #1
   b541a:	b212      	sxth	r2, r2
   b541c:	4291      	cmp	r1, r2
   b541e:	bfb8      	it	lt
   b5420:	18ff      	addlt	r7, r7, r3
        uint16_t dest_ys = _pw_y + page_ys; // transposed
   b5422:	f8b4 15a8 	ldrh.w	r1, [r4, #1448]	; 0x5a8
        uint16_t page_ye = _current_page < int16_t(_pages - 1) ? page_ys + _page_height : HEIGHT;
   b5426:	bfa8      	it	ge
   b5428:	8947      	ldrhge	r7, [r0, #10]
        uint16_t dest_ye = gx_uint16_min(_pw_y + _pw_h, _pw_y + page_ye);
   b542a:	f8b4 25ac 	ldrh.w	r2, [r4, #1452]	; 0x5ac
        uint16_t page_ye = _current_page < int16_t(_pages - 1) ? page_ys + _page_height : HEIGHT;
   b542e:	bfb8      	it	lt
   b5430:	b2bf      	uxthlt	r7, r7
        uint16_t dest_ye = gx_uint16_min(_pw_y + _pw_h, _pw_y + page_ye);
   b5432:	440a      	add	r2, r1
   b5434:	440f      	add	r7, r1
   b5436:	b292      	uxth	r2, r2
   b5438:	b2bf      	uxth	r7, r7
   b543a:	42ba      	cmp	r2, r7
        uint16_t dest_ys = _pw_y + page_ys; // transposed
   b543c:	440b      	add	r3, r1
   b543e:	b29b      	uxth	r3, r3
   b5440:	bf28      	it	cs
   b5442:	463a      	movcs	r2, r7
        if (dest_ye > dest_ys)
   b5444:	429a      	cmp	r2, r3
   b5446:	d914      	bls.n	b5472 <_ZN9GxEPD2_3CI11GxEPD2_420cLt300EE8nextPageEv+0x7e>
          epd2.writeImage(_black_buffer, _color_buffer, _pw_x, dest_ys, _pw_w, dest_ye - dest_ys);
   b5448:	2100      	movs	r1, #0
   b544a:	e9cd 1104 	strd	r1, r1, [sp, #16]
   b544e:	1ad2      	subs	r2, r2, r3
   b5450:	b212      	sxth	r2, r2
   b5452:	9103      	str	r1, [sp, #12]
   b5454:	9202      	str	r2, [sp, #8]
   b5456:	f9b4 25aa 	ldrsh.w	r2, [r4, #1450]	; 0x5aa
   b545a:	9201      	str	r2, [sp, #4]
   b545c:	b21b      	sxth	r3, r3
   b545e:	9300      	str	r3, [sp, #0]
   b5460:	f500 526c 	add.w	r2, r0, #15104	; 0x3b00
   b5464:	f100 0168 	add.w	r1, r0, #104	; 0x68
   b5468:	f9b4 35a6 	ldrsh.w	r3, [r4, #1446]	; 0x5a6
   b546c:	3024      	adds	r0, #36	; 0x24
   b546e:	f002 f95c 	bl	b772a <_ZN11GxEPD2_420c10writeImageEPKhS1_ssssbbb>
        _current_page++;
   b5472:	f8b4 35a0 	ldrh.w	r3, [r4, #1440]	; 0x5a0
        if (_current_page == int16_t(_pages))
   b5476:	f9b4 25a2 	ldrsh.w	r2, [r4, #1442]	; 0x5a2
        _current_page++;
   b547a:	3301      	adds	r3, #1
   b547c:	b21b      	sxth	r3, r3
        if (_current_page == int16_t(_pages))
   b547e:	429a      	cmp	r2, r3
        _current_page++;
   b5480:	f8a4 35a0 	strh.w	r3, [r4, #1440]	; 0x5a0
        if (_current_page == int16_t(_pages))
   b5484:	d116      	bne.n	b54b4 <_ZN9GxEPD2_3CI11GxEPD2_420cLt300EE8nextPageEv+0xc0>
          if (!_second_phase)
   b5486:	f894 6599 	ldrb.w	r6, [r4, #1433]	; 0x599
          _current_page = 0;
   b548a:	2300      	movs	r3, #0
   b548c:	f8a4 35a0 	strh.w	r3, [r4, #1440]	; 0x5a0
          if (!_second_phase)
   b5490:	2e00      	cmp	r6, #0
   b5492:	d14b      	bne.n	b552c <_ZN9GxEPD2_3CI11GxEPD2_420cLt300EE8nextPageEv+0x138>
            epd2.refresh(_pw_x, _pw_y, _pw_w, _pw_h);
   b5494:	f9b4 35ac 	ldrsh.w	r3, [r4, #1452]	; 0x5ac
   b5498:	9300      	str	r3, [sp, #0]
   b549a:	f9b4 35aa 	ldrsh.w	r3, [r4, #1450]	; 0x5aa
   b549e:	f9b4 25a8 	ldrsh.w	r2, [r4, #1448]	; 0x5a8
   b54a2:	f9b4 15a6 	ldrsh.w	r1, [r4, #1446]	; 0x5a6
   b54a6:	f105 0024 	add.w	r0, r5, #36	; 0x24
   b54aa:	f002 fb45 	bl	b7b38 <_ZN11GxEPD2_420c7refreshEssss>
    }
   b54ae:	4630      	mov	r0, r6
   b54b0:	b009      	add	sp, #36	; 0x24
   b54b2:	bdf0      	pop	{r4, r5, r6, r7, pc}
        fillScreen(GxEPD_WHITE);
   b54b4:	682b      	ldr	r3, [r5, #0]
   b54b6:	f64f 71ff 	movw	r1, #65535	; 0xffff
   b54ba:	6c5b      	ldr	r3, [r3, #68]	; 0x44
   b54bc:	4628      	mov	r0, r5
   b54be:	4798      	blx	r3
        return true;
   b54c0:	e7f5      	b.n	b54ae <_ZN9GxEPD2_3CI11GxEPD2_420cLt300EE8nextPageEv+0xba>
        epd2.writeImage(_black_buffer, _color_buffer, 0, page_ys, GxEPD2_Type::WIDTH, gx_uint16_min(_page_height, HEIGHT - page_ys));
   b54c2:	8969      	ldrh	r1, [r5, #10]
   b54c4:	9603      	str	r6, [sp, #12]
   b54c6:	1ac9      	subs	r1, r1, r3
   b54c8:	b28a      	uxth	r2, r1
   b54ca:	42ba      	cmp	r2, r7
   b54cc:	bf28      	it	cs
   b54ce:	463a      	movcs	r2, r7
   b54d0:	b212      	sxth	r2, r2
   b54d2:	9202      	str	r2, [sp, #8]
   b54d4:	b21b      	sxth	r3, r3
   b54d6:	f44f 72c8 	mov.w	r2, #400	; 0x190
   b54da:	3024      	adds	r0, #36	; 0x24
   b54dc:	9201      	str	r2, [sp, #4]
   b54de:	9300      	str	r3, [sp, #0]
   b54e0:	f505 526c 	add.w	r2, r5, #15104	; 0x3b00
   b54e4:	4633      	mov	r3, r6
   b54e6:	e9cd 6604 	strd	r6, r6, [sp, #16]
   b54ea:	f105 0168 	add.w	r1, r5, #104	; 0x68
   b54ee:	9007      	str	r0, [sp, #28]
   b54f0:	f002 f91b 	bl	b772a <_ZN11GxEPD2_420c10writeImageEPKhS1_ssssbbb>
        _current_page++;
   b54f4:	f8b4 35a0 	ldrh.w	r3, [r4, #1440]	; 0x5a0
        if (_current_page == int16_t(_pages))
   b54f8:	f9b4 25a2 	ldrsh.w	r2, [r4, #1442]	; 0x5a2
   b54fc:	9807      	ldr	r0, [sp, #28]
        _current_page++;
   b54fe:	3301      	adds	r3, #1
   b5500:	b21b      	sxth	r3, r3
        if (_current_page == int16_t(_pages))
   b5502:	429a      	cmp	r2, r3
        _current_page++;
   b5504:	f8a4 35a0 	strh.w	r3, [r4, #1440]	; 0x5a0
        if (_current_page == int16_t(_pages))
   b5508:	d108      	bne.n	b551c <_ZN9GxEPD2_3CI11GxEPD2_420cLt300EE8nextPageEv+0x128>
          _current_page = 0;
   b550a:	f8a4 65a0 	strh.w	r6, [r4, #1440]	; 0x5a0
          } else epd2.refresh(false); // full update after only phase
   b550e:	4631      	mov	r1, r6
   b5510:	f002 faa6 	bl	b7a60 <_ZN11GxEPD2_420c7refreshEb>
          epd2.powerOff();
   b5514:	9807      	ldr	r0, [sp, #28]
   b5516:	f001 ff09 	bl	b732c <_ZN11GxEPD2_420c8powerOffEv>
          return false;
   b551a:	e7c8      	b.n	b54ae <_ZN9GxEPD2_3CI11GxEPD2_420cLt300EE8nextPageEv+0xba>
        fillScreen(GxEPD_WHITE);
   b551c:	682b      	ldr	r3, [r5, #0]
   b551e:	f64f 71ff 	movw	r1, #65535	; 0xffff
   b5522:	6c5b      	ldr	r3, [r3, #68]	; 0x44
   b5524:	4628      	mov	r0, r5
   b5526:	4798      	blx	r3
        return true;
   b5528:	2601      	movs	r6, #1
   b552a:	e7c0      	b.n	b54ae <_ZN9GxEPD2_3CI11GxEPD2_420cLt300EE8nextPageEv+0xba>
          return false;
   b552c:	461e      	mov	r6, r3
   b552e:	e7be      	b.n	b54ae <_ZN9GxEPD2_3CI11GxEPD2_420cLt300EE8nextPageEv+0xba>

000b5530 <_ZN9GxEPD2_3CI11GxEPD2_420cLt300EE9drawPagedEPFvPKvES3_>:
    void drawPaged(void (*drawCallback)(const void*), const void* pv)
   b5530:	e92d 4ff0 	stmdb	sp!, {r4, r5, r6, r7, r8, r9, sl, fp, lr}
      if (_using_partial_mode)
   b5534:	f500 44e0 	add.w	r4, r0, #28672	; 0x7000
    void drawPaged(void (*drawCallback)(const void*), const void* pv)
   b5538:	b087      	sub	sp, #28
      if (_using_partial_mode)
   b553a:	f894 3598 	ldrb.w	r3, [r4, #1432]	; 0x598
    void drawPaged(void (*drawCallback)(const void*), const void* pv)
   b553e:	4605      	mov	r5, r0
   b5540:	4688      	mov	r8, r1
   b5542:	4691      	mov	r9, r2
      if (_using_partial_mode)
   b5544:	2b00      	cmp	r3, #0
   b5546:	d05b      	beq.n	b5600 <_ZN9GxEPD2_3CI11GxEPD2_420cLt300EE9drawPagedEPFvPKvES3_+0xd0>
        for (_current_page = 0; _current_page < _pages; _current_page++)
   b5548:	2300      	movs	r3, #0
   b554a:	f8a4 35a0 	strh.w	r3, [r4, #1440]	; 0x5a0
            epd2.writeImage(_black_buffer, _color_buffer, _pw_x, dest_ys, _pw_w, dest_ye - dest_ys);
   b554e:	f500 5b6c 	add.w	fp, r0, #15104	; 0x3b00
   b5552:	f100 0a68 	add.w	sl, r0, #104	; 0x68
        for (_current_page = 0; _current_page < _pages; _current_page++)
   b5556:	f9b4 15a0 	ldrsh.w	r1, [r4, #1440]	; 0x5a0
   b555a:	f8b4 25a2 	ldrh.w	r2, [r4, #1442]	; 0x5a2
   b555e:	4291      	cmp	r1, r2
   b5560:	da3b      	bge.n	b55da <_ZN9GxEPD2_3CI11GxEPD2_420cLt300EE9drawPagedEPFvPKvES3_+0xaa>
          uint16_t page_ys = _current_page * _page_height;
   b5562:	f8b4 35a4 	ldrh.w	r3, [r4, #1444]	; 0x5a4
          uint16_t dest_ye = gx_uint16_min(_pw_y + _pw_h, _pw_y + page_ye);
   b5566:	f8b4 75ac 	ldrh.w	r7, [r4, #1452]	; 0x5ac
          uint16_t page_ye = _current_page < (_pages - 1) ? page_ys + _page_height : HEIGHT;
   b556a:	3a01      	subs	r2, #1
          uint16_t page_ys = _current_page * _page_height;
   b556c:	fb11 f603 	smulbb	r6, r1, r3
          uint16_t page_ye = _current_page < (_pages - 1) ? page_ys + _page_height : HEIGHT;
   b5570:	4291      	cmp	r1, r2
          uint16_t page_ys = _current_page * _page_height;
   b5572:	b2b6      	uxth	r6, r6
          uint16_t page_ye = _current_page < (_pages - 1) ? page_ys + _page_height : HEIGHT;
   b5574:	bfba      	itte	lt
   b5576:	199b      	addlt	r3, r3, r6
   b5578:	b29a      	uxthlt	r2, r3
   b557a:	896a      	ldrhge	r2, [r5, #10]
          uint16_t dest_ys = _pw_y + page_ys; // transposed
   b557c:	f8b4 35a8 	ldrh.w	r3, [r4, #1448]	; 0x5a8
   b5580:	441e      	add	r6, r3
          uint16_t dest_ye = gx_uint16_min(_pw_y + _pw_h, _pw_y + page_ye);
   b5582:	441f      	add	r7, r3
   b5584:	4413      	add	r3, r2
   b5586:	b2bf      	uxth	r7, r7
   b5588:	b29b      	uxth	r3, r3
   b558a:	429f      	cmp	r7, r3
          uint16_t dest_ys = _pw_y + page_ys; // transposed
   b558c:	b2b6      	uxth	r6, r6
   b558e:	bf28      	it	cs
   b5590:	461f      	movcs	r7, r3
          if (dest_ye > dest_ys)
   b5592:	42be      	cmp	r6, r7
   b5594:	d21b      	bcs.n	b55ce <_ZN9GxEPD2_3CI11GxEPD2_420cLt300EE9drawPagedEPFvPKvES3_+0x9e>
            fillScreen(GxEPD_WHITE);
   b5596:	682b      	ldr	r3, [r5, #0]
   b5598:	f64f 71ff 	movw	r1, #65535	; 0xffff
   b559c:	6c5b      	ldr	r3, [r3, #68]	; 0x44
   b559e:	4628      	mov	r0, r5
   b55a0:	4798      	blx	r3
            drawCallback(pv);
   b55a2:	4648      	mov	r0, r9
   b55a4:	47c0      	blx	r8
            epd2.writeImage(_black_buffer, _color_buffer, _pw_x, dest_ys, _pw_w, dest_ye - dest_ys);
   b55a6:	2300      	movs	r3, #0
   b55a8:	e9cd 3304 	strd	r3, r3, [sp, #16]
   b55ac:	1bbf      	subs	r7, r7, r6
   b55ae:	b23f      	sxth	r7, r7
   b55b0:	9303      	str	r3, [sp, #12]
   b55b2:	9702      	str	r7, [sp, #8]
   b55b4:	f9b4 35aa 	ldrsh.w	r3, [r4, #1450]	; 0x5aa
   b55b8:	9301      	str	r3, [sp, #4]
   b55ba:	b236      	sxth	r6, r6
   b55bc:	9600      	str	r6, [sp, #0]
   b55be:	f9b4 35a6 	ldrsh.w	r3, [r4, #1446]	; 0x5a6
   b55c2:	465a      	mov	r2, fp
   b55c4:	4651      	mov	r1, sl
   b55c6:	f105 0024 	add.w	r0, r5, #36	; 0x24
   b55ca:	f002 f8ae 	bl	b772a <_ZN11GxEPD2_420c10writeImageEPKhS1_ssssbbb>
        for (_current_page = 0; _current_page < _pages; _current_page++)
   b55ce:	f8b4 35a0 	ldrh.w	r3, [r4, #1440]	; 0x5a0
   b55d2:	3301      	adds	r3, #1
   b55d4:	f8a4 35a0 	strh.w	r3, [r4, #1440]	; 0x5a0
   b55d8:	e7bd      	b.n	b5556 <_ZN9GxEPD2_3CI11GxEPD2_420cLt300EE9drawPagedEPFvPKvES3_+0x26>
        epd2.refresh(_pw_x, _pw_y, _pw_w, _pw_h);
   b55da:	f9b4 35ac 	ldrsh.w	r3, [r4, #1452]	; 0x5ac
   b55de:	9300      	str	r3, [sp, #0]
   b55e0:	f9b4 35aa 	ldrsh.w	r3, [r4, #1450]	; 0x5aa
   b55e4:	f9b4 25a8 	ldrsh.w	r2, [r4, #1448]	; 0x5a8
   b55e8:	f9b4 15a6 	ldrsh.w	r1, [r4, #1446]	; 0x5a6
   b55ec:	f105 0024 	add.w	r0, r5, #36	; 0x24
   b55f0:	f002 faa2 	bl	b7b38 <_ZN11GxEPD2_420c7refreshEssss>
      _current_page = 0;
   b55f4:	2300      	movs	r3, #0
   b55f6:	f8a4 35a0 	strh.w	r3, [r4, #1440]	; 0x5a0
    }
   b55fa:	b007      	add	sp, #28
   b55fc:	e8bd 8ff0 	ldmia.w	sp!, {r4, r5, r6, r7, r8, r9, sl, fp, pc}
        for (_current_page = 0; _current_page < _pages; _current_page++)
   b5600:	f8a4 35a0 	strh.w	r3, [r4, #1440]	; 0x5a0
            epd2.writeImage(_black_buffer, _color_buffer, _pw_x, dest_ys, _pw_w, dest_ye - dest_ys);
   b5604:	f100 0724 	add.w	r7, r0, #36	; 0x24
          epd2.writeImage(_black_buffer, _color_buffer, 0, page_ys, GxEPD2_Type::WIDTH, gx_uint16_min(_page_height, HEIGHT - page_ys));
   b5608:	f500 5a6c 	add.w	sl, r0, #15104	; 0x3b00
        for (_current_page = 0; _current_page < _pages; _current_page++)
   b560c:	f9b4 35a0 	ldrsh.w	r3, [r4, #1440]	; 0x5a0
   b5610:	f8b4 25a2 	ldrh.w	r2, [r4, #1442]	; 0x5a2
   b5614:	4293      	cmp	r3, r2
   b5616:	da2e      	bge.n	b5676 <_ZN9GxEPD2_3CI11GxEPD2_420cLt300EE9drawPagedEPFvPKvES3_+0x146>
          uint16_t page_ys = _current_page * _page_height;
   b5618:	f8b4 b5a4 	ldrh.w	fp, [r4, #1444]	; 0x5a4
   b561c:	fb1b fb03 	smulbb	fp, fp, r3
          fillScreen(GxEPD_WHITE);
   b5620:	682b      	ldr	r3, [r5, #0]
   b5622:	f64f 71ff 	movw	r1, #65535	; 0xffff
   b5626:	6c5b      	ldr	r3, [r3, #68]	; 0x44
   b5628:	4628      	mov	r0, r5
   b562a:	4798      	blx	r3
          drawCallback(pv);
   b562c:	4648      	mov	r0, r9
   b562e:	47c0      	blx	r8
          epd2.writeImage(_black_buffer, _color_buffer, 0, page_ys, GxEPD2_Type::WIDTH, gx_uint16_min(_page_height, HEIGHT - page_ys));
   b5630:	2300      	movs	r3, #0
   b5632:	e9cd 3304 	strd	r3, r3, [sp, #16]
   b5636:	896e      	ldrh	r6, [r5, #10]
   b5638:	9303      	str	r3, [sp, #12]
          uint16_t page_ys = _current_page * _page_height;
   b563a:	fa1f fb8b 	uxth.w	fp, fp
          epd2.writeImage(_black_buffer, _color_buffer, 0, page_ys, GxEPD2_Type::WIDTH, gx_uint16_min(_page_height, HEIGHT - page_ys));
   b563e:	f8b4 25a4 	ldrh.w	r2, [r4, #1444]	; 0x5a4
   b5642:	eba6 060b 	sub.w	r6, r6, fp
   b5646:	b2b6      	uxth	r6, r6
   b5648:	4296      	cmp	r6, r2
   b564a:	bf28      	it	cs
   b564c:	4616      	movcs	r6, r2
   b564e:	f44f 72c8 	mov.w	r2, #400	; 0x190
   b5652:	9201      	str	r2, [sp, #4]
   b5654:	b236      	sxth	r6, r6
   b5656:	fa0f f28b 	sxth.w	r2, fp
   b565a:	9200      	str	r2, [sp, #0]
   b565c:	9602      	str	r6, [sp, #8]
   b565e:	4652      	mov	r2, sl
   b5660:	f105 0168 	add.w	r1, r5, #104	; 0x68
   b5664:	4638      	mov	r0, r7
   b5666:	f002 f860 	bl	b772a <_ZN11GxEPD2_420c10writeImageEPKhS1_ssssbbb>
        for (_current_page = 0; _current_page < _pages; _current_page++)
   b566a:	f8b4 35a0 	ldrh.w	r3, [r4, #1440]	; 0x5a0
   b566e:	3301      	adds	r3, #1
   b5670:	f8a4 35a0 	strh.w	r3, [r4, #1440]	; 0x5a0
   b5674:	e7ca      	b.n	b560c <_ZN9GxEPD2_3CI11GxEPD2_420cLt300EE9drawPagedEPFvPKvES3_+0xdc>
        epd2.refresh(false); // full update
   b5676:	4638      	mov	r0, r7
   b5678:	2100      	movs	r1, #0
   b567a:	f002 f9f1 	bl	b7a60 <_ZN11GxEPD2_420c7refreshEb>
        epd2.powerOff();
   b567e:	4638      	mov	r0, r7
   b5680:	f001 fe54 	bl	b732c <_ZN11GxEPD2_420c8powerOffEv>
   b5684:	e7b6      	b.n	b55f4 <_ZN9GxEPD2_3CI11GxEPD2_420cLt300EE9drawPagedEPFvPKvES3_+0xc4>

000b5686 <_ZN9GxEPD2_3CI11GxEPD2_420cLt300EE9hibernateEv>:
      epd2.hibernate();
   b5686:	3024      	adds	r0, #36	; 0x24
   b5688:	f001 be52 	b.w	b7330 <_ZN11GxEPD2_420c9hibernateEv>

000b568c <_ZN9GxEPD2_3CI11GxEPD2_420cLt300EE9drawPixelEsst>:
    void drawPixel(int16_t x, int16_t y, uint16_t color)
   b568c:	e92d 41f0 	stmdb	sp!, {r4, r5, r6, r7, r8, lr}
      if ((x < 0) || (x >= width()) || (y < 0) || (y >= height())) return;
   b5690:	1e0c      	subs	r4, r1, #0
    void drawPixel(int16_t x, int16_t y, uint16_t color)
   b5692:	4607      	mov	r7, r0
   b5694:	4615      	mov	r5, r2
   b5696:	461e      	mov	r6, r3
      if ((x < 0) || (x >= width()) || (y < 0) || (y >= height())) return;
   b5698:	db6e      	blt.n	b5778 <_ZN9GxEPD2_3CI11GxEPD2_420cLt300EE9drawPixelEsst+0xec>
   b569a:	f001 fade 	bl	b6c5a <_ZNK12Adafruit_GFX5widthEv>
   b569e:	42a0      	cmp	r0, r4
   b56a0:	dd6a      	ble.n	b5778 <_ZN9GxEPD2_3CI11GxEPD2_420cLt300EE9drawPixelEsst+0xec>
   b56a2:	2d00      	cmp	r5, #0
   b56a4:	db68      	blt.n	b5778 <_ZN9GxEPD2_3CI11GxEPD2_420cLt300EE9drawPixelEsst+0xec>
   b56a6:	4638      	mov	r0, r7
   b56a8:	f001 fada 	bl	b6c60 <_ZNK12Adafruit_GFX6heightEv>
   b56ac:	42a8      	cmp	r0, r5
   b56ae:	dd63      	ble.n	b5778 <_ZN9GxEPD2_3CI11GxEPD2_420cLt300EE9drawPixelEsst+0xec>
      if (_mirror) x = width() - x - 1;
   b56b0:	f507 48e0 	add.w	r8, r7, #28672	; 0x7000
   b56b4:	f898 359a 	ldrb.w	r3, [r8, #1434]	; 0x59a
   b56b8:	b12b      	cbz	r3, b56c6 <_ZN9GxEPD2_3CI11GxEPD2_420cLt300EE9drawPixelEsst+0x3a>
   b56ba:	4638      	mov	r0, r7
   b56bc:	f001 facd 	bl	b6c5a <_ZNK12Adafruit_GFX5widthEv>
   b56c0:	43e4      	mvns	r4, r4
   b56c2:	4404      	add	r4, r0
   b56c4:	b224      	sxth	r4, r4
      switch (getRotation())
   b56c6:	4638      	mov	r0, r7
   b56c8:	f001 f9a3 	bl	b6a12 <_ZNK12Adafruit_GFX11getRotationEv>
   b56cc:	2802      	cmp	r0, #2
          x = WIDTH - x - 1;
   b56ce:	b2aa      	uxth	r2, r5
          x = WIDTH - x - 1;
   b56d0:	b2a1      	uxth	r1, r4
      switch (getRotation())
   b56d2:	d053      	beq.n	b577c <_ZN9GxEPD2_3CI11GxEPD2_420cLt300EE9drawPixelEsst+0xf0>
   b56d4:	2803      	cmp	r0, #3
   b56d6:	d05a      	beq.n	b578e <_ZN9GxEPD2_3CI11GxEPD2_420cLt300EE9drawPixelEsst+0x102>
   b56d8:	2801      	cmp	r0, #1
   b56da:	d104      	bne.n	b56e6 <_ZN9GxEPD2_3CI11GxEPD2_420cLt300EE9drawPixelEsst+0x5a>
          x = WIDTH - x - 1;
   b56dc:	893b      	ldrh	r3, [r7, #8]
   b56de:	43d2      	mvns	r2, r2
   b56e0:	441a      	add	r2, r3
      b = t;
   b56e2:	4625      	mov	r5, r4
          x = WIDTH - x - 1;
   b56e4:	b214      	sxth	r4, r2
      x -= _pw_x;
   b56e6:	f8b8 15a6 	ldrh.w	r1, [r8, #1446]	; 0x5a6
   b56ea:	1a64      	subs	r4, r4, r1
   b56ec:	b224      	sxth	r4, r4
      if ((x < 0) || (x >= int16_t(_pw_w)) || (y < 0) || (y >= int16_t(_pw_h))) return;
   b56ee:	2c00      	cmp	r4, #0
   b56f0:	db42      	blt.n	b5778 <_ZN9GxEPD2_3CI11GxEPD2_420cLt300EE9drawPixelEsst+0xec>
   b56f2:	f9b8 35aa 	ldrsh.w	r3, [r8, #1450]	; 0x5aa
   b56f6:	f8b8 05aa 	ldrh.w	r0, [r8, #1450]	; 0x5aa
   b56fa:	429c      	cmp	r4, r3
   b56fc:	da3c      	bge.n	b5778 <_ZN9GxEPD2_3CI11GxEPD2_420cLt300EE9drawPixelEsst+0xec>
      y -= _pw_y;
   b56fe:	f8b8 25a8 	ldrh.w	r2, [r8, #1448]	; 0x5a8
   b5702:	1aaa      	subs	r2, r5, r2
   b5704:	b293      	uxth	r3, r2
   b5706:	b212      	sxth	r2, r2
      if ((x < 0) || (x >= int16_t(_pw_w)) || (y < 0) || (y >= int16_t(_pw_h))) return;
   b5708:	2a00      	cmp	r2, #0
   b570a:	db35      	blt.n	b5778 <_ZN9GxEPD2_3CI11GxEPD2_420cLt300EE9drawPixelEsst+0xec>
   b570c:	f9b8 15ac 	ldrsh.w	r1, [r8, #1452]	; 0x5ac
   b5710:	4291      	cmp	r1, r2
   b5712:	dd31      	ble.n	b5778 <_ZN9GxEPD2_3CI11GxEPD2_420cLt300EE9drawPixelEsst+0xec>
      y -= _current_page * _page_height;
   b5714:	f8b8 25a4 	ldrh.w	r2, [r8, #1444]	; 0x5a4
   b5718:	f8b8 15a0 	ldrh.w	r1, [r8, #1440]	; 0x5a0
   b571c:	fb11 f102 	smulbb	r1, r1, r2
   b5720:	1a5b      	subs	r3, r3, r1
   b5722:	b299      	uxth	r1, r3
   b5724:	b21b      	sxth	r3, r3
      if ((y < 0) || (y >= int16_t(_page_height))) return;
   b5726:	2b00      	cmp	r3, #0
   b5728:	db26      	blt.n	b5778 <_ZN9GxEPD2_3CI11GxEPD2_420cLt300EE9drawPixelEsst+0xec>
   b572a:	b212      	sxth	r2, r2
   b572c:	4293      	cmp	r3, r2
   b572e:	da23      	bge.n	b5778 <_ZN9GxEPD2_3CI11GxEPD2_420cLt300EE9drawPixelEsst+0xec>
      uint16_t i = x / 8 + y * (_pw_w / 8);
   b5730:	08c0      	lsrs	r0, r0, #3
   b5732:	fb10 f001 	smulbb	r0, r0, r1
   b5736:	eb00 00e4 	add.w	r0, r0, r4, asr #3
      _black_buffer[i] = (_black_buffer[i] | (1 << (7 - x % 8))); // white
   b573a:	fa17 f080 	uxtah	r0, r7, r0
   b573e:	f004 0407 	and.w	r4, r4, #7
   b5742:	f1c4 0307 	rsb	r3, r4, #7
   b5746:	2401      	movs	r4, #1
   b5748:	f990 2068 	ldrsb.w	r2, [r0, #104]	; 0x68
   b574c:	409c      	lsls	r4, r3
   b574e:	b264      	sxtb	r4, r4
      _color_buffer[i] = (_color_buffer[i] | (1 << (7 - x % 8)));
   b5750:	f500 516c 	add.w	r1, r0, #15104	; 0x3b00
      _black_buffer[i] = (_black_buffer[i] | (1 << (7 - x % 8))); // white
   b5754:	ea42 0304 	orr.w	r3, r2, r4
   b5758:	f880 3068 	strb.w	r3, [r0, #104]	; 0x68
      _color_buffer[i] = (_color_buffer[i] | (1 << (7 - x % 8)));
   b575c:	f991 3000 	ldrsb.w	r3, [r1]
   b5760:	ea44 0503 	orr.w	r5, r4, r3
   b5764:	700d      	strb	r5, [r1, #0]
      if (color == GxEPD_WHITE) return;
   b5766:	f64f 71ff 	movw	r1, #65535	; 0xffff
   b576a:	428e      	cmp	r6, r1
   b576c:	d004      	beq.n	b5778 <_ZN9GxEPD2_3CI11GxEPD2_420cLt300EE9drawPixelEsst+0xec>
      else if (color == GxEPD_BLACK) _black_buffer[i] = (_black_buffer[i] & (0xFF ^ (1 << (7 - x % 8))));
   b576e:	b9a6      	cbnz	r6, b579a <_ZN9GxEPD2_3CI11GxEPD2_420cLt300EE9drawPixelEsst+0x10e>
   b5770:	ea22 0404 	bic.w	r4, r2, r4
   b5774:	f880 4068 	strb.w	r4, [r0, #104]	; 0x68
    }
   b5778:	e8bd 81f0 	ldmia.w	sp!, {r4, r5, r6, r7, r8, pc}
          x = WIDTH - x - 1;
   b577c:	893c      	ldrh	r4, [r7, #8]
          y = HEIGHT - y - 1;
   b577e:	897d      	ldrh	r5, [r7, #10]
          x = WIDTH - x - 1;
   b5780:	3c01      	subs	r4, #1
          y = HEIGHT - y - 1;
   b5782:	43d2      	mvns	r2, r2
          x = WIDTH - x - 1;
   b5784:	1a64      	subs	r4, r4, r1
          y = HEIGHT - y - 1;
   b5786:	442a      	add	r2, r5
          x = WIDTH - x - 1;
   b5788:	b224      	sxth	r4, r4
          y = HEIGHT - y - 1;
   b578a:	b215      	sxth	r5, r2
          break;
   b578c:	e7ab      	b.n	b56e6 <_ZN9GxEPD2_3CI11GxEPD2_420cLt300EE9drawPixelEsst+0x5a>
          y = HEIGHT - y - 1;
   b578e:	897b      	ldrh	r3, [r7, #10]
   b5790:	3b01      	subs	r3, #1
   b5792:	1a5b      	subs	r3, r3, r1
          break;
   b5794:	462c      	mov	r4, r5
          y = HEIGHT - y - 1;
   b5796:	b21d      	sxth	r5, r3
          break;
   b5798:	e7a5      	b.n	b56e6 <_ZN9GxEPD2_3CI11GxEPD2_420cLt300EE9drawPixelEsst+0x5a>
      else if ((color == GxEPD_RED) || (color == GxEPD_YELLOW)) _color_buffer[i] = (_color_buffer[i] & (0xFF ^ (1 << (7 - x % 8))));
   b579a:	f5b6 4f78 	cmp.w	r6, #63488	; 0xf800
   b579e:	d003      	beq.n	b57a8 <_ZN9GxEPD2_3CI11GxEPD2_420cLt300EE9drawPixelEsst+0x11c>
   b57a0:	f64f 72e0 	movw	r2, #65504	; 0xffe0
   b57a4:	4296      	cmp	r6, r2
   b57a6:	d1e7      	bne.n	b5778 <_ZN9GxEPD2_3CI11GxEPD2_420cLt300EE9drawPixelEsst+0xec>
   b57a8:	f500 506c 	add.w	r0, r0, #15104	; 0x3b00
   b57ac:	ea23 0404 	bic.w	r4, r3, r4
   b57b0:	7004      	strb	r4, [r0, #0]
   b57b2:	e7e1      	b.n	b5778 <_ZN9GxEPD2_3CI11GxEPD2_420cLt300EE9drawPixelEsst+0xec>

000b57b4 <_ZN9GxEPD2_3CI11GxEPD2_420cLt300EE10drawNativeEPKhS3_ssssbbb>:
    void drawNative(const uint8_t* data1, const uint8_t* data2, int16_t x, int16_t y, int16_t w, int16_t h, bool invert, bool mirror_y, bool pgm)
   b57b4:	b5f0      	push	{r4, r5, r6, r7, lr}
   b57b6:	f9bd 4014 	ldrsh.w	r4, [sp, #20]
   b57ba:	f9bd 5018 	ldrsh.w	r5, [sp, #24]
   b57be:	f9bd 601c 	ldrsh.w	r6, [sp, #28]
   b57c2:	f89d 7020 	ldrb.w	r7, [sp, #32]
   b57c6:	f89d c024 	ldrb.w	ip, [sp, #36]	; 0x24
   b57ca:	f89d e028 	ldrb.w	lr, [sp, #40]	; 0x28
      epd2.drawNative(data1, data2, x, y, w, h, invert, mirror_y, pgm);
   b57ce:	e9cd 6707 	strd	r6, r7, [sp, #28]
   b57d2:	e9cd ce09 	strd	ip, lr, [sp, #36]	; 0x24
   b57d6:	e9cd 4505 	strd	r4, r5, [sp, #20]
   b57da:	3024      	adds	r0, #36	; 0x24
    }
   b57dc:	e8bd 40f0 	ldmia.w	sp!, {r4, r5, r6, r7, lr}
      epd2.drawNative(data1, data2, x, y, w, h, invert, mirror_y, pgm);
   b57e0:	f001 bd1a 	b.w	b7218 <_ZN11GxEPD2_420c10drawNativeEPKhS1_ssssbbb>

000b57e4 <_ZN9GxEPD2_3CI11GxEPD2_420cLt300EE13drawImagePartEPKhS3_ssssssss>:
    void drawImagePart(const uint8_t* black, const uint8_t* color, int16_t x_part, int16_t y_part, int16_t w_bitmap, int16_t h_bitmap,
   b57e4:	b510      	push	{r4, lr}
   b57e6:	b08a      	sub	sp, #40	; 0x28
      epd2.drawImagePart(black, color, x_part, y_part, w_bitmap, h_bitmap, x, y, w, h, false, false, false);
   b57e8:	2400      	movs	r4, #0
   b57ea:	e9cd 4408 	strd	r4, r4, [sp, #32]
   b57ee:	9407      	str	r4, [sp, #28]
   b57f0:	f9bd 4048 	ldrsh.w	r4, [sp, #72]	; 0x48
   b57f4:	9406      	str	r4, [sp, #24]
   b57f6:	f9bd 4044 	ldrsh.w	r4, [sp, #68]	; 0x44
   b57fa:	9405      	str	r4, [sp, #20]
   b57fc:	f9bd 4040 	ldrsh.w	r4, [sp, #64]	; 0x40
   b5800:	9404      	str	r4, [sp, #16]
   b5802:	f9bd 403c 	ldrsh.w	r4, [sp, #60]	; 0x3c
   b5806:	9403      	str	r4, [sp, #12]
   b5808:	f9bd 4038 	ldrsh.w	r4, [sp, #56]	; 0x38
   b580c:	9402      	str	r4, [sp, #8]
   b580e:	f9bd 4034 	ldrsh.w	r4, [sp, #52]	; 0x34
   b5812:	9401      	str	r4, [sp, #4]
   b5814:	f9bd 4030 	ldrsh.w	r4, [sp, #48]	; 0x30
   b5818:	9400      	str	r4, [sp, #0]
   b581a:	3024      	adds	r0, #36	; 0x24
   b581c:	f001 ff53 	bl	b76c6 <_ZN11GxEPD2_420c13drawImagePartEPKhS1_ssssssssbbb>
    }
   b5820:	b00a      	add	sp, #40	; 0x28
   b5822:	bd10      	pop	{r4, pc}

000b5824 <_ZN9GxEPD2_3CI11GxEPD2_420cLt300EE13drawImagePartEPKhS3_ssssssssbbb>:
    void drawImagePart(const uint8_t* black, const uint8_t* color, int16_t x_part, int16_t y_part, int16_t w_bitmap, int16_t h_bitmap,
   b5824:	e92d 4ff0 	stmdb	sp!, {r4, r5, r6, r7, r8, r9, sl, fp, lr}
   b5828:	f9bd 4024 	ldrsh.w	r4, [sp, #36]	; 0x24
   b582c:	f9bd 5028 	ldrsh.w	r5, [sp, #40]	; 0x28
   b5830:	f9bd 602c 	ldrsh.w	r6, [sp, #44]	; 0x2c
   b5834:	f9bd 7030 	ldrsh.w	r7, [sp, #48]	; 0x30
   b5838:	f9bd c034 	ldrsh.w	ip, [sp, #52]	; 0x34
   b583c:	f9bd e038 	ldrsh.w	lr, [sp, #56]	; 0x38
   b5840:	f9bd 803c 	ldrsh.w	r8, [sp, #60]	; 0x3c
   b5844:	f89d 9040 	ldrb.w	r9, [sp, #64]	; 0x40
   b5848:	f89d a044 	ldrb.w	sl, [sp, #68]	; 0x44
   b584c:	f89d b048 	ldrb.w	fp, [sp, #72]	; 0x48
      epd2.drawImagePart(black, color, x_part, y_part, w_bitmap, h_bitmap, x, y, w, h, invert, mirror_y, pgm);
   b5850:	e9cd 890f 	strd	r8, r9, [sp, #60]	; 0x3c
   b5854:	e9cd ab11 	strd	sl, fp, [sp, #68]	; 0x44
   b5858:	e9cd ce0d 	strd	ip, lr, [sp, #52]	; 0x34
   b585c:	e9cd 670b 	strd	r6, r7, [sp, #44]	; 0x2c
   b5860:	e9cd 4509 	strd	r4, r5, [sp, #36]	; 0x24
   b5864:	3024      	adds	r0, #36	; 0x24
    }
   b5866:	e8bd 4ff0 	ldmia.w	sp!, {r4, r5, r6, r7, r8, r9, sl, fp, lr}
      epd2.drawImagePart(black, color, x_part, y_part, w_bitmap, h_bitmap, x, y, w, h, invert, mirror_y, pgm);
   b586a:	f001 bf2c 	b.w	b76c6 <_ZN11GxEPD2_420c13drawImagePartEPKhS1_ssssssssbbb>

000b586e <_ZN9GxEPD2_3CI11GxEPD2_420cLt300EE9drawImageEPKhS3_ssss>:
    void drawImage(const uint8_t* black, const uint8_t* color, int16_t x, int16_t y, int16_t w, int16_t h)
   b586e:	b510      	push	{r4, lr}
   b5870:	b086      	sub	sp, #24
      epd2.drawImage(black, color, x, y, w, h, false, false, false);
   b5872:	2400      	movs	r4, #0
   b5874:	e9cd 4404 	strd	r4, r4, [sp, #16]
   b5878:	9403      	str	r4, [sp, #12]
   b587a:	f9bd 4028 	ldrsh.w	r4, [sp, #40]	; 0x28
   b587e:	9402      	str	r4, [sp, #8]
   b5880:	f9bd 4024 	ldrsh.w	r4, [sp, #36]	; 0x24
   b5884:	9401      	str	r4, [sp, #4]
   b5886:	f9bd 4020 	ldrsh.w	r4, [sp, #32]
   b588a:	9400      	str	r4, [sp, #0]
   b588c:	3024      	adds	r0, #36	; 0x24
   b588e:	f002 f866 	bl	b795e <_ZN11GxEPD2_420c9drawImageEPKhS1_ssssbbb>
    }
   b5892:	b006      	add	sp, #24
   b5894:	bd10      	pop	{r4, pc}

000b5896 <_ZN9GxEPD2_3CI11GxEPD2_420cLt300EE9drawImageEPKhS3_ssssbbb>:
    void drawImage(const uint8_t* black, const uint8_t* color, int16_t x, int16_t y, int16_t w, int16_t h, bool invert, bool mirror_y, bool pgm)
   b5896:	b5f0      	push	{r4, r5, r6, r7, lr}
   b5898:	f9bd 4014 	ldrsh.w	r4, [sp, #20]
   b589c:	f9bd 5018 	ldrsh.w	r5, [sp, #24]
   b58a0:	f9bd 601c 	ldrsh.w	r6, [sp, #28]
   b58a4:	f89d 7020 	ldrb.w	r7, [sp, #32]
   b58a8:	f89d c024 	ldrb.w	ip, [sp, #36]	; 0x24
   b58ac:	f89d e028 	ldrb.w	lr, [sp, #40]	; 0x28
      epd2.drawImage(black, color, x, y, w, h, invert, mirror_y, pgm);
   b58b0:	e9cd 6707 	strd	r6, r7, [sp, #28]
   b58b4:	e9cd ce09 	strd	ip, lr, [sp, #36]	; 0x24
   b58b8:	e9cd 4505 	strd	r4, r5, [sp, #20]
   b58bc:	3024      	adds	r0, #36	; 0x24
    }
   b58be:	e8bd 40f0 	ldmia.w	sp!, {r4, r5, r6, r7, lr}
      epd2.drawImage(black, color, x, y, w, h, invert, mirror_y, pgm);
   b58c2:	f002 b84c 	b.w	b795e <_ZN11GxEPD2_420c9drawImageEPKhS1_ssssbbb>

000b58c6 <_ZN9GxEPD2_3CI11GxEPD2_420cLt300EE13drawImagePartEPKhssssssssbbb>:
    void drawImagePart(const uint8_t bitmap[], int16_t x_part, int16_t y_part, int16_t w_bitmap, int16_t h_bitmap,
   b58c6:	e92d 47f0 	stmdb	sp!, {r4, r5, r6, r7, r8, r9, sl, lr}
   b58ca:	f9bd 5024 	ldrsh.w	r5, [sp, #36]	; 0x24
   b58ce:	f9bd 6028 	ldrsh.w	r6, [sp, #40]	; 0x28
   b58d2:	f9bd 702c 	ldrsh.w	r7, [sp, #44]	; 0x2c
   b58d6:	f9bd c030 	ldrsh.w	ip, [sp, #48]	; 0x30
   b58da:	f9bd e034 	ldrsh.w	lr, [sp, #52]	; 0x34
   b58de:	f89d 8038 	ldrb.w	r8, [sp, #56]	; 0x38
   b58e2:	f89d 903c 	ldrb.w	r9, [sp, #60]	; 0x3c
   b58e6:	f89d a040 	ldrb.w	sl, [sp, #64]	; 0x40
   b58ea:	f9bd 4020 	ldrsh.w	r4, [sp, #32]
      epd2.drawImagePart(bitmap, x_part, y_part, w_bitmap, h_bitmap, x, y, w, h, invert, mirror_y, pgm);
   b58ee:	9408      	str	r4, [sp, #32]
   b58f0:	e9cd 9a0f 	strd	r9, sl, [sp, #60]	; 0x3c
   b58f4:	e9cd e80d 	strd	lr, r8, [sp, #52]	; 0x34
   b58f8:	e9cd 7c0b 	strd	r7, ip, [sp, #44]	; 0x2c
   b58fc:	e9cd 5609 	strd	r5, r6, [sp, #36]	; 0x24
   b5900:	3024      	adds	r0, #36	; 0x24
    }
   b5902:	e8bd 47f0 	ldmia.w	sp!, {r4, r5, r6, r7, r8, r9, sl, lr}
      epd2.drawImagePart(bitmap, x_part, y_part, w_bitmap, h_bitmap, x, y, w, h, invert, mirror_y, pgm);
   b5906:	f001 bc56 	b.w	b71b6 <_ZN11GxEPD2_420c13drawImagePartEPKhssssssssbbb>

000b590a <_ZN9GxEPD2_3CI11GxEPD2_420cLt300EE9drawImageEPKhssssbbb>:
    void drawImage(const uint8_t bitmap[], int16_t x, int16_t y, int16_t w, int16_t h, bool invert = false, bool mirror_y = false, bool pgm = false)
   b590a:	b4f0      	push	{r4, r5, r6, r7}
   b590c:	f9bd 5014 	ldrsh.w	r5, [sp, #20]
   b5910:	f89d 6018 	ldrb.w	r6, [sp, #24]
   b5914:	f89d 701c 	ldrb.w	r7, [sp, #28]
   b5918:	f89d c020 	ldrb.w	ip, [sp, #32]
   b591c:	f9bd 4010 	ldrsh.w	r4, [sp, #16]
      epd2.drawImage(bitmap, x, y, w, h, invert, mirror_y, pgm);
   b5920:	9404      	str	r4, [sp, #16]
   b5922:	e9cd 7c07 	strd	r7, ip, [sp, #28]
   b5926:	e9cd 5605 	strd	r5, r6, [sp, #20]
   b592a:	3024      	adds	r0, #36	; 0x24
    }
   b592c:	bcf0      	pop	{r4, r5, r6, r7}
      epd2.drawImage(bitmap, x, y, w, h, invert, mirror_y, pgm);
   b592e:	f001 bc1c 	b.w	b716a <_ZN11GxEPD2_420c9drawImageEPKhssssbbb>

000b5932 <_ZN9GxEPD2_3CI11GxEPD2_420cLt300EE11writeNativeEPKhS3_ssssbbb>:
    void writeNative(const uint8_t* data1, const uint8_t* data2, int16_t x, int16_t y, int16_t w, int16_t h, bool invert, bool mirror_y, bool pgm)
   b5932:	b5f0      	push	{r4, r5, r6, r7, lr}
   b5934:	f9bd 4014 	ldrsh.w	r4, [sp, #20]
   b5938:	f9bd 5018 	ldrsh.w	r5, [sp, #24]
   b593c:	f9bd 601c 	ldrsh.w	r6, [sp, #28]
   b5940:	f89d 7020 	ldrb.w	r7, [sp, #32]
   b5944:	f89d c024 	ldrb.w	ip, [sp, #36]	; 0x24
   b5948:	f89d e028 	ldrb.w	lr, [sp, #40]	; 0x28
      epd2.writeNative(data1, data2, x, y, w, h, invert, mirror_y, pgm);
   b594c:	e9cd 6707 	strd	r6, r7, [sp, #28]
   b5950:	e9cd ce09 	strd	ip, lr, [sp, #36]	; 0x24
   b5954:	e9cd 4505 	strd	r4, r5, [sp, #20]
   b5958:	3024      	adds	r0, #36	; 0x24
    }
   b595a:	e8bd 40f0 	ldmia.w	sp!, {r4, r5, r6, r7, lr}
      epd2.writeNative(data1, data2, x, y, w, h, invert, mirror_y, pgm);
   b595e:	f001 bbe9 	b.w	b7134 <_ZN11GxEPD2_420c11writeNativeEPKhS1_ssssbbb>

000b5962 <_ZN9GxEPD2_3CI11GxEPD2_420cLt300EE14writeImagePartEPKhS3_ssssssss>:
    void writeImagePart(const uint8_t* black, const uint8_t* color, int16_t x_part, int16_t y_part, int16_t w_bitmap, int16_t h_bitmap,
   b5962:	b510      	push	{r4, lr}
   b5964:	b08a      	sub	sp, #40	; 0x28
      epd2.writeImagePart(black, color, x_part, y_part, w_bitmap, h_bitmap, x, y, w, h, false, false, false);
   b5966:	2400      	movs	r4, #0
   b5968:	e9cd 4408 	strd	r4, r4, [sp, #32]
   b596c:	9407      	str	r4, [sp, #28]
   b596e:	f9bd 4048 	ldrsh.w	r4, [sp, #72]	; 0x48
   b5972:	9406      	str	r4, [sp, #24]
   b5974:	f9bd 4044 	ldrsh.w	r4, [sp, #68]	; 0x44
   b5978:	9405      	str	r4, [sp, #20]
   b597a:	f9bd 4040 	ldrsh.w	r4, [sp, #64]	; 0x40
   b597e:	9404      	str	r4, [sp, #16]
   b5980:	f9bd 403c 	ldrsh.w	r4, [sp, #60]	; 0x3c
   b5984:	9403      	str	r4, [sp, #12]
   b5986:	f9bd 4038 	ldrsh.w	r4, [sp, #56]	; 0x38
   b598a:	9402      	str	r4, [sp, #8]
   b598c:	f9bd 4034 	ldrsh.w	r4, [sp, #52]	; 0x34
   b5990:	9401      	str	r4, [sp, #4]
   b5992:	f9bd 4030 	ldrsh.w	r4, [sp, #48]	; 0x30
   b5996:	9400      	str	r4, [sp, #0]
   b5998:	3024      	adds	r0, #36	; 0x24
   b599a:	f001 fd23 	bl	b73e4 <_ZN11GxEPD2_420c14writeImagePartEPKhS1_ssssssssbbb>
    }
   b599e:	b00a      	add	sp, #40	; 0x28
   b59a0:	bd10      	pop	{r4, pc}

000b59a2 <_ZN9GxEPD2_3CI11GxEPD2_420cLt300EE14writeImagePartEPKhS3_ssssssssbbb>:
    void writeImagePart(const uint8_t* black, const uint8_t* color, int16_t x_part, int16_t y_part, int16_t w_bitmap, int16_t h_bitmap,
   b59a2:	e92d 4ff0 	stmdb	sp!, {r4, r5, r6, r7, r8, r9, sl, fp, lr}
   b59a6:	f9bd 4024 	ldrsh.w	r4, [sp, #36]	; 0x24
   b59aa:	f9bd 5028 	ldrsh.w	r5, [sp, #40]	; 0x28
   b59ae:	f9bd 602c 	ldrsh.w	r6, [sp, #44]	; 0x2c
   b59b2:	f9bd 7030 	ldrsh.w	r7, [sp, #48]	; 0x30
   b59b6:	f9bd c034 	ldrsh.w	ip, [sp, #52]	; 0x34
   b59ba:	f9bd e038 	ldrsh.w	lr, [sp, #56]	; 0x38
   b59be:	f9bd 803c 	ldrsh.w	r8, [sp, #60]	; 0x3c
   b59c2:	f89d 9040 	ldrb.w	r9, [sp, #64]	; 0x40
   b59c6:	f89d a044 	ldrb.w	sl, [sp, #68]	; 0x44
   b59ca:	f89d b048 	ldrb.w	fp, [sp, #72]	; 0x48
      epd2.writeImagePart(black, color, x_part, y_part, w_bitmap, h_bitmap, x, y, w, h, invert, mirror_y, pgm);
   b59ce:	e9cd 890f 	strd	r8, r9, [sp, #60]	; 0x3c
   b59d2:	e9cd ab11 	strd	sl, fp, [sp, #68]	; 0x44
   b59d6:	e9cd ce0d 	strd	ip, lr, [sp, #52]	; 0x34
   b59da:	e9cd 670b 	strd	r6, r7, [sp, #44]	; 0x2c
   b59de:	e9cd 4509 	strd	r4, r5, [sp, #36]	; 0x24
   b59e2:	3024      	adds	r0, #36	; 0x24
    }
   b59e4:	e8bd 4ff0 	ldmia.w	sp!, {r4, r5, r6, r7, r8, r9, sl, fp, lr}
      epd2.writeImagePart(black, color, x_part, y_part, w_bitmap, h_bitmap, x, y, w, h, invert, mirror_y, pgm);
   b59e8:	f001 bcfc 	b.w	b73e4 <_ZN11GxEPD2_420c14writeImagePartEPKhS1_ssssssssbbb>

000b59ec <_ZN9GxEPD2_3CI11GxEPD2_420cLt300EE14writeImagePartEPKhssssssssbbb>:
    void writeImagePart(const uint8_t bitmap[], int16_t x_part, int16_t y_part, int16_t w_bitmap, int16_t h_bitmap,
   b59ec:	e92d 47f0 	stmdb	sp!, {r4, r5, r6, r7, r8, r9, sl, lr}
   b59f0:	f9bd 5024 	ldrsh.w	r5, [sp, #36]	; 0x24
   b59f4:	f9bd 6028 	ldrsh.w	r6, [sp, #40]	; 0x28
   b59f8:	f9bd 702c 	ldrsh.w	r7, [sp, #44]	; 0x2c
   b59fc:	f9bd c030 	ldrsh.w	ip, [sp, #48]	; 0x30
   b5a00:	f9bd e034 	ldrsh.w	lr, [sp, #52]	; 0x34
   b5a04:	f89d 8038 	ldrb.w	r8, [sp, #56]	; 0x38
   b5a08:	f89d 903c 	ldrb.w	r9, [sp, #60]	; 0x3c
   b5a0c:	f89d a040 	ldrb.w	sl, [sp, #64]	; 0x40
   b5a10:	f9bd 4020 	ldrsh.w	r4, [sp, #32]
      epd2.writeImagePart(bitmap, x_part, y_part, w_bitmap, h_bitmap, x, y, w, h, invert, mirror_y, pgm);
   b5a14:	9408      	str	r4, [sp, #32]
   b5a16:	e9cd 9a0f 	strd	r9, sl, [sp, #60]	; 0x3c
   b5a1a:	e9cd e80d 	strd	lr, r8, [sp, #52]	; 0x34
   b5a1e:	e9cd 7c0b 	strd	r7, ip, [sp, #44]	; 0x2c
   b5a22:	e9cd 5609 	strd	r5, r6, [sp, #36]	; 0x24
   b5a26:	3024      	adds	r0, #36	; 0x24
    }
   b5a28:	e8bd 47f0 	ldmia.w	sp!, {r4, r5, r6, r7, r8, r9, sl, lr}
      epd2.writeImagePart(bitmap, x_part, y_part, w_bitmap, h_bitmap, x, y, w, h, invert, mirror_y, pgm);
   b5a2c:	f001 be27 	b.w	b767e <_ZN11GxEPD2_420c14writeImagePartEPKhssssssssbbb>

000b5a30 <_ZN9GxEPD2_3CI11GxEPD2_420cLt300EE10writeImageEPKhssssbbb>:
    void writeImage(const uint8_t bitmap[], int16_t x, int16_t y, int16_t w, int16_t h, bool invert = false, bool mirror_y = false, bool pgm = false)
   b5a30:	b4f0      	push	{r4, r5, r6, r7}
   b5a32:	f9bd 5014 	ldrsh.w	r5, [sp, #20]
   b5a36:	f89d 6018 	ldrb.w	r6, [sp, #24]
   b5a3a:	f89d 701c 	ldrb.w	r7, [sp, #28]
   b5a3e:	f89d c020 	ldrb.w	ip, [sp, #32]
   b5a42:	f9bd 4010 	ldrsh.w	r4, [sp, #16]
      epd2.writeImage(bitmap, x, y, w, h, invert, mirror_y, pgm);
   b5a46:	9404      	str	r4, [sp, #16]
   b5a48:	e9cd 7c07 	strd	r7, ip, [sp, #28]
   b5a4c:	e9cd 5605 	strd	r5, r6, [sp, #20]
   b5a50:	3024      	adds	r0, #36	; 0x24
    }
   b5a52:	bcf0      	pop	{r4, r5, r6, r7}
      epd2.writeImage(bitmap, x, y, w, h, invert, mirror_y, pgm);
   b5a54:	f001 bf6b 	b.w	b792e <_ZN11GxEPD2_420c10writeImageEPKhssssbbb>

000b5a58 <_ZN9GxEPD2_3CI11GxEPD2_420cLt300EE17writeScreenBufferEh>:
      epd2.writeScreenBuffer(value);
   b5a58:	3024      	adds	r0, #36	; 0x24
   b5a5a:	f001 bfed 	b.w	b7a38 <_ZN11GxEPD2_420c17writeScreenBufferEh>

000b5a5e <_ZN9GxEPD2_3CI11GxEPD2_420cLt300EE11clearScreenEh>:
      epd2.clearScreen(value);
   b5a5e:	3024      	adds	r0, #36	; 0x24
   b5a60:	f002 b867 	b.w	b7b32 <_ZN11GxEPD2_420c11clearScreenEh>

000b5a64 <_ZN9GxEPD2_3CI11GxEPD2_420cLt300EE4initEm>:
    void init(uint32_t serial_diag_bitrate = 0) // = 0 : disabled
   b5a64:	b510      	push	{r4, lr}
   b5a66:	4604      	mov	r4, r0
      epd2.init(serial_diag_bitrate);
   b5a68:	3024      	adds	r0, #36	; 0x24
   b5a6a:	f001 f951 	bl	b6d10 <_ZN10GxEPD2_EPD4initEm>
      _using_partial_mode = false;
   b5a6e:	f504 43e0 	add.w	r3, r4, #28672	; 0x7000
   b5a72:	2200      	movs	r2, #0
   b5a74:	f883 2598 	strb.w	r2, [r3, #1432]	; 0x598
      _current_page = 0;
   b5a78:	f8a3 25a0 	strh.w	r2, [r3, #1440]	; 0x5a0
      setFullWindow();
   b5a7c:	6823      	ldr	r3, [r4, #0]
   b5a7e:	4620      	mov	r0, r4
   b5a80:	6edb      	ldr	r3, [r3, #108]	; 0x6c
    }
   b5a82:	e8bd 4010 	ldmia.w	sp!, {r4, lr}
      setFullWindow();
   b5a86:	4718      	bx	r3

000b5a88 <_ZN8particle11SPISettingsD0Ev>:
  virtual ~SPISettings() {
   b5a88:	b510      	push	{r4, lr}
  }
   b5a8a:	2110      	movs	r1, #16
  virtual ~SPISettings() {
   b5a8c:	4604      	mov	r4, r0
  }
   b5a8e:	f7fe ffbe 	bl	b4a0e <_ZdlPvj>
   b5a92:	4620      	mov	r0, r4
   b5a94:	bd10      	pop	{r4, pc}

000b5a96 <_ZN9GxEPD2_3CI11GxEPD2_420cLt300EED0Ev>:
class GxEPD2_3C : public GxEPD2_GFX_BASE_CLASS
   b5a96:	b510      	push	{r4, lr}
   b5a98:	f247 51b0 	movw	r1, #30128	; 0x75b0
   b5a9c:	4604      	mov	r4, r0
   b5a9e:	f7fe ffb6 	bl	b4a0e <_ZdlPvj>
   b5aa2:	4620      	mov	r0, r4
   b5aa4:	bd10      	pop	{r4, pc}

000b5aa6 <_ZN5Print6printfEPKcz>:
#endif // PARTICLE_WIRING_PRINT_NO_FLOAT
    size_t println(const Printable&);
    size_t println(void);
    size_t println(const __FlashStringHelper*);

    size_t printf(const char* format, ...) __attribute__ ((format(printf, 2, 3)))
   b5aa6:	b40e      	push	{r1, r2, r3}
   b5aa8:	b503      	push	{r0, r1, lr}
   b5aaa:	ab03      	add	r3, sp, #12
    {
        va_list args;
        va_start(args, format);
        auto r = this->vprintf(false, format, args);
   b5aac:	2100      	movs	r1, #0
    size_t printf(const char* format, ...) __attribute__ ((format(printf, 2, 3)))
   b5aae:	f853 2b04 	ldr.w	r2, [r3], #4
        va_start(args, format);
   b5ab2:	9301      	str	r3, [sp, #4]
        auto r = this->vprintf(false, format, args);
   b5ab4:	f002 fd11 	bl	b84da <_ZN5Print7vprintfEbPKcSt9__va_list>
        va_end(args);
        return r;
    }
   b5ab8:	b002      	add	sp, #8
   b5aba:	f85d eb04 	ldr.w	lr, [sp], #4
   b5abe:	b003      	add	sp, #12
   b5ac0:	4770      	bx	lr
	...

000b5ac4 <_ZNK8particle11SPISettings7printToER5Print>:
  bool operator!=(const SPISettings& other) const
  {
    return !(other == *this);
  }

  virtual size_t printTo(Print& p) const
   b5ac4:	b573      	push	{r0, r1, r4, r5, r6, lr}
   b5ac6:	4604      	mov	r4, r0
   b5ac8:	4608      	mov	r0, r1
  {
    if (default_ && clock_ == 0)
   b5aca:	7922      	ldrb	r2, [r4, #4]
   b5acc:	68a3      	ldr	r3, [r4, #8]
   b5ace:	b132      	cbz	r2, b5ade <_ZNK8particle11SPISettings7printToER5Print+0x1a>
   b5ad0:	b9a3      	cbnz	r3, b5afc <_ZNK8particle11SPISettings7printToER5Print+0x38>
      return p.print("<SPISettings default>");
   b5ad2:	490b      	ldr	r1, [pc, #44]	; (b5b00 <_ZNK8particle11SPISettings7printToER5Print+0x3c>)
    else
      return p.printf("<SPISettings %s%u %s MODE%u>", default_ ? "default " : "", (unsigned int)clock_,
          bitOrder_ == MSBFIRST ? "MSB" : "LSB", (unsigned int)dataMode_);
  }
   b5ad4:	b002      	add	sp, #8
   b5ad6:	e8bd 4070 	ldmia.w	sp!, {r4, r5, r6, lr}
      return p.print("<SPISettings default>");
   b5ada:	f002 bbeb 	b.w	b82b4 <_ZN5Print5printEPKc>
      return p.printf("<SPISettings %s%u %s MODE%u>", default_ ? "default " : "", (unsigned int)clock_,
   b5ade:	4a09      	ldr	r2, [pc, #36]	; (b5b04 <_ZNK8particle11SPISettings7printToER5Print+0x40>)
   b5ae0:	7b26      	ldrb	r6, [r4, #12]
   b5ae2:	4d09      	ldr	r5, [pc, #36]	; (b5b08 <_ZNK8particle11SPISettings7printToER5Print+0x44>)
   b5ae4:	4909      	ldr	r1, [pc, #36]	; (b5b0c <_ZNK8particle11SPISettings7printToER5Print+0x48>)
   b5ae6:	7b64      	ldrb	r4, [r4, #13]
   b5ae8:	2e01      	cmp	r6, #1
   b5aea:	bf18      	it	ne
   b5aec:	4629      	movne	r1, r5
   b5aee:	e9cd 1400 	strd	r1, r4, [sp]
   b5af2:	4907      	ldr	r1, [pc, #28]	; (b5b10 <_ZNK8particle11SPISettings7printToER5Print+0x4c>)
   b5af4:	f7ff ffd7 	bl	b5aa6 <_ZN5Print6printfEPKcz>
  }
   b5af8:	b002      	add	sp, #8
   b5afa:	bd70      	pop	{r4, r5, r6, pc}
      return p.printf("<SPISettings %s%u %s MODE%u>", default_ ? "default " : "", (unsigned int)clock_,
   b5afc:	4a05      	ldr	r2, [pc, #20]	; (b5b14 <_ZNK8particle11SPISettings7printToER5Print+0x50>)
   b5afe:	e7ef      	b.n	b5ae0 <_ZNK8particle11SPISettings7printToER5Print+0x1c>
   b5b00:	000d6c41 	.word	0x000d6c41
   b5b04:	000d7a0d 	.word	0x000d7a0d
   b5b08:	000d6c3d 	.word	0x000d6c3d
   b5b0c:	000d6c39 	.word	0x000d6c39
   b5b10:	000d6c57 	.word	0x000d6c57
   b5b14:	000d6c30 	.word	0x000d6c30

000b5b18 <loop>:
  Serial.println("setup done");
}

void loop()
{
}
   b5b18:	4770      	bx	lr
	...

000b5b1c <_Z13deepSleepTestv>:

void deepSleepTest()
{
   b5b1c:	e92d 4ff0 	stmdb	sp!, {r4, r5, r6, r7, r8, r9, sl, fp, lr}
  //Serial.println("deepSleepTest");
  const char hibernating[] = "hibernating ...";
   b5b20:	4baa      	ldr	r3, [pc, #680]	; (b5dcc <_Z13deepSleepTestv+0x2b0>)
{
   b5b22:	b095      	sub	sp, #84	; 0x54
  const char hibernating[] = "hibernating ...";
   b5b24:	aa0c      	add	r2, sp, #48	; 0x30
   b5b26:	f103 0510 	add.w	r5, r3, #16
   b5b2a:	4691      	mov	r9, r2
   b5b2c:	6818      	ldr	r0, [r3, #0]
   b5b2e:	6859      	ldr	r1, [r3, #4]
   b5b30:	4614      	mov	r4, r2
   b5b32:	c403      	stmia	r4!, {r0, r1}
   b5b34:	3308      	adds	r3, #8
   b5b36:	42ab      	cmp	r3, r5
   b5b38:	4622      	mov	r2, r4
   b5b3a:	d1f7      	bne.n	b5b2c <_Z13deepSleepTestv+0x10>
  const char wokeup[] = "woke up";
   b5b3c:	4aa4      	ldr	r2, [pc, #656]	; (b5dd0 <_Z13deepSleepTestv+0x2b4>)
   b5b3e:	6810      	ldr	r0, [r2, #0]
   b5b40:	6851      	ldr	r1, [r2, #4]
   b5b42:	ab0a      	add	r3, sp, #40	; 0x28
   b5b44:	c303      	stmia	r3!, {r0, r1}
  const char from[] = "from deep sleep";
   b5b46:	4ba3      	ldr	r3, [pc, #652]	; (b5dd4 <_Z13deepSleepTestv+0x2b8>)
   b5b48:	aa10      	add	r2, sp, #64	; 0x40
   b5b4a:	f103 0510 	add.w	r5, r3, #16
   b5b4e:	4692      	mov	sl, r2
   b5b50:	6818      	ldr	r0, [r3, #0]
   b5b52:	6859      	ldr	r1, [r3, #4]
   b5b54:	4614      	mov	r4, r2
   b5b56:	c403      	stmia	r4!, {r0, r1}
   b5b58:	3308      	adds	r3, #8
   b5b5a:	42ab      	cmp	r3, r5
   b5b5c:	4622      	mov	r2, r4
   b5b5e:	d1f7      	bne.n	b5b50 <_Z13deepSleepTestv+0x34>
  const char again[] = "again";
   b5b60:	4b9d      	ldr	r3, [pc, #628]	; (b5dd8 <_Z13deepSleepTestv+0x2bc>)
  uint16_t y = ((display.height() - tbh) / 2) - tby;
  display.setFullWindow();
  display.firstPage();
  do
  {
    display.fillScreen(GxEPD_WHITE);
   b5b62:	4e9e      	ldr	r6, [pc, #632]	; (b5ddc <_Z13deepSleepTestv+0x2c0>)
  const char again[] = "again";
   b5b64:	6818      	ldr	r0, [r3, #0]
   b5b66:	9008      	str	r0, [sp, #32]
   b5b68:	889b      	ldrh	r3, [r3, #4]
  display.setRotation(1);
   b5b6a:	489c      	ldr	r0, [pc, #624]	; (b5ddc <_Z13deepSleepTestv+0x2c0>)
  const char again[] = "again";
   b5b6c:	f8ad 3024 	strh.w	r3, [sp, #36]	; 0x24
  display.setRotation(1);
   b5b70:	2101      	movs	r1, #1
   b5b72:	f000 fd4c 	bl	b660e <_ZN12Adafruit_GFX11setRotationEh>
  display.setFont(&FreeMonoBold9pt7b);
   b5b76:	499a      	ldr	r1, [pc, #616]	; (b5de0 <_Z13deepSleepTestv+0x2c4>)
   b5b78:	4898      	ldr	r0, [pc, #608]	; (b5ddc <_Z13deepSleepTestv+0x2c0>)
   b5b7a:	f000 ff4c 	bl	b6a16 <_ZN12Adafruit_GFX7setFontEPK7GFXfont>
  display.setTextColor(GxEPD_BLACK);
   b5b7e:	4897      	ldr	r0, [pc, #604]	; (b5ddc <_Z13deepSleepTestv+0x2c0>)
   b5b80:	2100      	movs	r1, #0
   b5b82:	f000 ff43 	bl	b6a0c <_ZN12Adafruit_GFX12setTextColorEt>
  display.getTextBounds(hibernating, 0, 0, &tbx, &tby, &tbw, &tbh);
   b5b86:	f10d 031a 	add.w	r3, sp, #26
   b5b8a:	9301      	str	r3, [sp, #4]
   b5b8c:	ab06      	add	r3, sp, #24
   b5b8e:	9300      	str	r3, [sp, #0]
   b5b90:	f10d 081e 	add.w	r8, sp, #30
   b5b94:	2300      	movs	r3, #0
   b5b96:	af07      	add	r7, sp, #28
   b5b98:	461a      	mov	r2, r3
   b5b9a:	4649      	mov	r1, r9
   b5b9c:	488f      	ldr	r0, [pc, #572]	; (b5ddc <_Z13deepSleepTestv+0x2c0>)
   b5b9e:	f8cd 800c 	str.w	r8, [sp, #12]
   b5ba2:	9702      	str	r7, [sp, #8]
   b5ba4:	f001 f80b 	bl	b6bbe <_ZN12Adafruit_GFX13getTextBoundsEPKcssPsS2_PtS3_>
  uint16_t x = ((display.width() - tbw) / 2) - tbx;
   b5ba8:	488c      	ldr	r0, [pc, #560]	; (b5ddc <_Z13deepSleepTestv+0x2c0>)
   b5baa:	f001 f856 	bl	b6c5a <_ZNK12Adafruit_GFX5widthEv>
   b5bae:	f8bd 501c 	ldrh.w	r5, [sp, #28]
   b5bb2:	1b40      	subs	r0, r0, r5
   b5bb4:	f8bd 5018 	ldrh.w	r5, [sp, #24]
   b5bb8:	eb00 70d0 	add.w	r0, r0, r0, lsr #31
   b5bbc:	ebc5 0060 	rsb	r0, r5, r0, asr #1
   b5bc0:	b285      	uxth	r5, r0
  uint16_t y = ((display.height() - tbh) / 2) - tby;
   b5bc2:	4886      	ldr	r0, [pc, #536]	; (b5ddc <_Z13deepSleepTestv+0x2c0>)
   b5bc4:	f001 f84c 	bl	b6c60 <_ZNK12Adafruit_GFX6heightEv>
   b5bc8:	f8bd 401e 	ldrh.w	r4, [sp, #30]
   b5bcc:	1b00      	subs	r0, r0, r4
   b5bce:	f8bd 401a 	ldrh.w	r4, [sp, #26]
   b5bd2:	eb00 70d0 	add.w	r0, r0, r0, lsr #31
   b5bd6:	ebc4 0460 	rsb	r4, r4, r0, asr #1
  display.setFullWindow();
   b5bda:	4880      	ldr	r0, [pc, #512]	; (b5ddc <_Z13deepSleepTestv+0x2c0>)
   b5bdc:	f7ff fae5 	bl	b51aa <_ZN9GxEPD2_3CI11GxEPD2_420cLt300EE13setFullWindowEv>
  display.firstPage();
   b5be0:	487e      	ldr	r0, [pc, #504]	; (b5ddc <_Z13deepSleepTestv+0x2c0>)
   b5be2:	f7ff faf1 	bl	b51c8 <_ZN9GxEPD2_3CI11GxEPD2_420cLt300EE9firstPageEv>
  uint16_t y = ((display.height() - tbh) / 2) - tby;
   b5be6:	b2a4      	uxth	r4, r4
    display.setCursor(x, y);
   b5be8:	b224      	sxth	r4, r4
    display.fillScreen(GxEPD_WHITE);
   b5bea:	f64f 71ff 	movw	r1, #65535	; 0xffff
   b5bee:	4630      	mov	r0, r6
   b5bf0:	f7ff faf9 	bl	b51e6 <_ZN9GxEPD2_3CI11GxEPD2_420cLt300EE10fillScreenEt>
    display.setCursor(x, y);
   b5bf4:	4622      	mov	r2, r4
   b5bf6:	b229      	sxth	r1, r5
   b5bf8:	4630      	mov	r0, r6
   b5bfa:	f000 ff04 	bl	b6a06 <_ZN12Adafruit_GFX9setCursorEss>
    display.print(hibernating);
   b5bfe:	4649      	mov	r1, r9
   b5c00:	4630      	mov	r0, r6
   b5c02:	f002 fb57 	bl	b82b4 <_ZN5Print5printEPKc>
  }
  while (display.nextPage());
   b5c06:	4630      	mov	r0, r6
   b5c08:	f7ff fbf4 	bl	b53f4 <_ZN9GxEPD2_3CI11GxEPD2_420cLt300EE8nextPageEv>
   b5c0c:	2800      	cmp	r0, #0
   b5c0e:	d1ec      	bne.n	b5bea <_Z13deepSleepTestv+0xce>
   b5c10:	9004      	str	r0, [sp, #16]
      epd2.hibernate();
   b5c12:	4874      	ldr	r0, [pc, #464]	; (b5de4 <_Z13deepSleepTestv+0x2c8>)
   b5c14:	f001 fb8c 	bl	b7330 <_ZN11GxEPD2_420c9hibernateEv>
  display.hibernate();
  delay(5000);
   b5c18:	f241 3088 	movw	r0, #5000	; 0x1388
   b5c1c:	f002 fca0 	bl	b8560 <delay>
  display.getTextBounds(wokeup, 0, 0, &tbx, &tby, &tbw, &tbh);
   b5c20:	ab06      	add	r3, sp, #24
   b5c22:	9300      	str	r3, [sp, #0]
   b5c24:	9b04      	ldr	r3, [sp, #16]
   b5c26:	486d      	ldr	r0, [pc, #436]	; (b5ddc <_Z13deepSleepTestv+0x2c0>)
   b5c28:	9305      	str	r3, [sp, #20]
   b5c2a:	f10d 0b1a 	add.w	fp, sp, #26
   b5c2e:	461a      	mov	r2, r3
   b5c30:	a90a      	add	r1, sp, #40	; 0x28
   b5c32:	e9cd 7802 	strd	r7, r8, [sp, #8]
   b5c36:	f8cd b004 	str.w	fp, [sp, #4]
   b5c3a:	f000 ffc0 	bl	b6bbe <_ZN12Adafruit_GFX13getTextBoundsEPKcssPsS2_PtS3_>
  uint16_t wx = (display.width() - tbw) / 2;
   b5c3e:	4867      	ldr	r0, [pc, #412]	; (b5ddc <_Z13deepSleepTestv+0x2c0>)
   b5c40:	f001 f80b 	bl	b6c5a <_ZNK12Adafruit_GFX5widthEv>
   b5c44:	f8bd 201c 	ldrh.w	r2, [sp, #28]
   b5c48:	1a80      	subs	r0, r0, r2
   b5c4a:	eb00 70d0 	add.w	r0, r0, r0, lsr #31
   b5c4e:	1043      	asrs	r3, r0, #1
  uint16_t wy = (display.height() / 3) + tbh / 2; // y is base line!
   b5c50:	4862      	ldr	r0, [pc, #392]	; (b5ddc <_Z13deepSleepTestv+0x2c0>)
  uint16_t wx = (display.width() - tbw) / 2;
   b5c52:	9304      	str	r3, [sp, #16]
  uint16_t wy = (display.height() / 3) + tbh / 2; // y is base line!
   b5c54:	f001 f804 	bl	b6c60 <_ZNK12Adafruit_GFX6heightEv>
  display.getTextBounds(from, 0, 0, &tbx, &tby, &tbw, &tbh);
   b5c58:	ab06      	add	r3, sp, #24
  uint16_t wy = (display.height() / 3) + tbh / 2; // y is base line!
   b5c5a:	f8bd 501e 	ldrh.w	r5, [sp, #30]
  display.getTextBounds(from, 0, 0, &tbx, &tby, &tbw, &tbh);
   b5c5e:	9300      	str	r3, [sp, #0]
   b5c60:	9b05      	ldr	r3, [sp, #20]
   b5c62:	f8cd b004 	str.w	fp, [sp, #4]
   b5c66:	461a      	mov	r2, r3
   b5c68:	4651      	mov	r1, sl
  uint16_t wy = (display.height() / 3) + tbh / 2; // y is base line!
   b5c6a:	2603      	movs	r6, #3
  display.getTextBounds(from, 0, 0, &tbx, &tby, &tbw, &tbh);
   b5c6c:	e9cd 7802 	strd	r7, r8, [sp, #8]
  uint16_t wy = (display.height() / 3) + tbh / 2; // y is base line!
   b5c70:	fb90 f0f6 	sdiv	r0, r0, r6
   b5c74:	eb00 0555 	add.w	r5, r0, r5, lsr #1
  display.getTextBounds(from, 0, 0, &tbx, &tby, &tbw, &tbh);
   b5c78:	4858      	ldr	r0, [pc, #352]	; (b5ddc <_Z13deepSleepTestv+0x2c0>)
   b5c7a:	f000 ffa0 	bl	b6bbe <_ZN12Adafruit_GFX13getTextBoundsEPKcssPsS2_PtS3_>
  uint16_t fx = (display.width() - tbw) / 2;
   b5c7e:	4857      	ldr	r0, [pc, #348]	; (b5ddc <_Z13deepSleepTestv+0x2c0>)
   b5c80:	f000 ffeb 	bl	b6c5a <_ZNK12Adafruit_GFX5widthEv>
   b5c84:	f8bd 301c 	ldrh.w	r3, [sp, #28]
   b5c88:	1ac0      	subs	r0, r0, r3
   b5c8a:	eb00 70d0 	add.w	r0, r0, r0, lsr #31
   b5c8e:	1043      	asrs	r3, r0, #1
  uint16_t fy = (display.height() * 2 / 3) + tbh / 2; // y is base line!
   b5c90:	4852      	ldr	r0, [pc, #328]	; (b5ddc <_Z13deepSleepTestv+0x2c0>)
  uint16_t fx = (display.width() - tbw) / 2;
   b5c92:	9305      	str	r3, [sp, #20]
  uint16_t fy = (display.height() * 2 / 3) + tbh / 2; // y is base line!
   b5c94:	f000 ffe4 	bl	b6c60 <_ZNK12Adafruit_GFX6heightEv>
   b5c98:	0044      	lsls	r4, r0, #1
  display.firstPage();
   b5c9a:	4850      	ldr	r0, [pc, #320]	; (b5ddc <_Z13deepSleepTestv+0x2c0>)
  uint16_t fy = (display.height() * 2 / 3) + tbh / 2; // y is base line!
   b5c9c:	fb94 f4f6 	sdiv	r4, r4, r6
   b5ca0:	f8bd 601e 	ldrh.w	r6, [sp, #30]
  display.firstPage();
   b5ca4:	f7ff fa90 	bl	b51c8 <_ZN9GxEPD2_3CI11GxEPD2_420cLt300EE9firstPageEv>
  uint16_t fy = (display.height() * 2 / 3) + tbh / 2; // y is base line!
   b5ca8:	eb04 0456 	add.w	r4, r4, r6, lsr #1
  uint16_t wy = (display.height() / 3) + tbh / 2; // y is base line!
   b5cac:	b2ad      	uxth	r5, r5
  do
  {
    display.fillScreen(GxEPD_WHITE);
   b5cae:	4e4b      	ldr	r6, [pc, #300]	; (b5ddc <_Z13deepSleepTestv+0x2c0>)
  uint16_t fy = (display.height() * 2 / 3) + tbh / 2; // y is base line!
   b5cb0:	b2a4      	uxth	r4, r4
    display.setCursor(wx, wy);
   b5cb2:	b22d      	sxth	r5, r5
    display.fillScreen(GxEPD_WHITE);
   b5cb4:	f64f 71ff 	movw	r1, #65535	; 0xffff
   b5cb8:	4630      	mov	r0, r6
   b5cba:	f7ff fa94 	bl	b51e6 <_ZN9GxEPD2_3CI11GxEPD2_420cLt300EE10fillScreenEt>
    display.setCursor(wx, wy);
   b5cbe:	462a      	mov	r2, r5
   b5cc0:	f9bd 1010 	ldrsh.w	r1, [sp, #16]
   b5cc4:	4630      	mov	r0, r6
   b5cc6:	f000 fe9e 	bl	b6a06 <_ZN12Adafruit_GFX9setCursorEss>
    display.print(wokeup);
   b5cca:	a90a      	add	r1, sp, #40	; 0x28
   b5ccc:	4630      	mov	r0, r6
   b5cce:	f002 faf1 	bl	b82b4 <_ZN5Print5printEPKc>
    display.setCursor(fx, fy);
   b5cd2:	f9bd 1014 	ldrsh.w	r1, [sp, #20]
   b5cd6:	b222      	sxth	r2, r4
   b5cd8:	4630      	mov	r0, r6
   b5cda:	f000 fe94 	bl	b6a06 <_ZN12Adafruit_GFX9setCursorEss>
    display.print(from);
   b5cde:	4651      	mov	r1, sl
   b5ce0:	4630      	mov	r0, r6
   b5ce2:	f002 fae7 	bl	b82b4 <_ZN5Print5printEPKc>
  }
  while (display.nextPage());
   b5ce6:	4630      	mov	r0, r6
   b5ce8:	f7ff fb84 	bl	b53f4 <_ZN9GxEPD2_3CI11GxEPD2_420cLt300EE8nextPageEv>
   b5cec:	2800      	cmp	r0, #0
   b5cee:	d1e1      	bne.n	b5cb4 <_Z13deepSleepTestv+0x198>
   b5cf0:	9004      	str	r0, [sp, #16]
  delay(5000);
   b5cf2:	f241 3088 	movw	r0, #5000	; 0x1388
   b5cf6:	f002 fc33 	bl	b8560 <delay>
  display.getTextBounds(hibernating, 0, 0, &tbx, &tby, &tbw, &tbh);
   b5cfa:	ab06      	add	r3, sp, #24
   b5cfc:	9300      	str	r3, [sp, #0]
   b5cfe:	9b04      	ldr	r3, [sp, #16]
   b5d00:	4836      	ldr	r0, [pc, #216]	; (b5ddc <_Z13deepSleepTestv+0x2c0>)
   b5d02:	f8cd b004 	str.w	fp, [sp, #4]
   b5d06:	461a      	mov	r2, r3
   b5d08:	4649      	mov	r1, r9
   b5d0a:	e9cd 7802 	strd	r7, r8, [sp, #8]
   b5d0e:	f000 ff56 	bl	b6bbe <_ZN12Adafruit_GFX13getTextBoundsEPKcssPsS2_PtS3_>
  uint16_t hx = (display.width() - tbw) / 2;
   b5d12:	4832      	ldr	r0, [pc, #200]	; (b5ddc <_Z13deepSleepTestv+0x2c0>)
   b5d14:	f000 ffa1 	bl	b6c5a <_ZNK12Adafruit_GFX5widthEv>
   b5d18:	f8bd 601c 	ldrh.w	r6, [sp, #28]
   b5d1c:	1b80      	subs	r0, r0, r6
   b5d1e:	eb00 70d0 	add.w	r0, r0, r0, lsr #31
   b5d22:	1046      	asrs	r6, r0, #1
  uint16_t hy = (display.height() / 3) + tbh / 2; // y is base line!
   b5d24:	482d      	ldr	r0, [pc, #180]	; (b5ddc <_Z13deepSleepTestv+0x2c0>)
   b5d26:	f000 ff9b 	bl	b6c60 <_ZNK12Adafruit_GFX6heightEv>
  display.getTextBounds(again, 0, 0, &tbx, &tby, &tbw, &tbh);
   b5d2a:	ab06      	add	r3, sp, #24
  uint16_t hy = (display.height() / 3) + tbh / 2; // y is base line!
   b5d2c:	f8bd 501e 	ldrh.w	r5, [sp, #30]
  display.getTextBounds(again, 0, 0, &tbx, &tby, &tbw, &tbh);
   b5d30:	9300      	str	r3, [sp, #0]
   b5d32:	9b04      	ldr	r3, [sp, #16]
   b5d34:	f8cd b004 	str.w	fp, [sp, #4]
   b5d38:	461a      	mov	r2, r3
   b5d3a:	a908      	add	r1, sp, #32
   b5d3c:	e9cd 7802 	strd	r7, r8, [sp, #8]
  uint16_t hy = (display.height() / 3) + tbh / 2; // y is base line!
   b5d40:	2403      	movs	r4, #3
   b5d42:	fb90 f0f4 	sdiv	r0, r0, r4
   b5d46:	eb00 0555 	add.w	r5, r0, r5, lsr #1
  display.getTextBounds(again, 0, 0, &tbx, &tby, &tbw, &tbh);
   b5d4a:	4824      	ldr	r0, [pc, #144]	; (b5ddc <_Z13deepSleepTestv+0x2c0>)
  uint16_t ax = (display.width() - tbw) / 2;
  uint16_t ay = (display.height() * 2 / 3) + tbh / 2; // y is base line!
  display.firstPage();
  do
  {
    display.fillScreen(GxEPD_WHITE);
   b5d4c:	f8df 808c 	ldr.w	r8, [pc, #140]	; b5ddc <_Z13deepSleepTestv+0x2c0>
  display.getTextBounds(again, 0, 0, &tbx, &tby, &tbw, &tbh);
   b5d50:	f000 ff35 	bl	b6bbe <_ZN12Adafruit_GFX13getTextBoundsEPKcssPsS2_PtS3_>
  uint16_t ax = (display.width() - tbw) / 2;
   b5d54:	4821      	ldr	r0, [pc, #132]	; (b5ddc <_Z13deepSleepTestv+0x2c0>)
   b5d56:	f000 ff80 	bl	b6c5a <_ZNK12Adafruit_GFX5widthEv>
   b5d5a:	f8bd 701c 	ldrh.w	r7, [sp, #28]
   b5d5e:	1bc0      	subs	r0, r0, r7
   b5d60:	eb00 70d0 	add.w	r0, r0, r0, lsr #31
   b5d64:	1047      	asrs	r7, r0, #1
  uint16_t ay = (display.height() * 2 / 3) + tbh / 2; // y is base line!
   b5d66:	481d      	ldr	r0, [pc, #116]	; (b5ddc <_Z13deepSleepTestv+0x2c0>)
   b5d68:	f000 ff7a 	bl	b6c60 <_ZNK12Adafruit_GFX6heightEv>
   b5d6c:	0040      	lsls	r0, r0, #1
   b5d6e:	fb90 f4f4 	sdiv	r4, r0, r4
   b5d72:	f8bd 001e 	ldrh.w	r0, [sp, #30]
   b5d76:	eb04 0450 	add.w	r4, r4, r0, lsr #1
  display.firstPage();
   b5d7a:	4818      	ldr	r0, [pc, #96]	; (b5ddc <_Z13deepSleepTestv+0x2c0>)
   b5d7c:	f7ff fa24 	bl	b51c8 <_ZN9GxEPD2_3CI11GxEPD2_420cLt300EE9firstPageEv>
  uint16_t hy = (display.height() / 3) + tbh / 2; // y is base line!
   b5d80:	b2ad      	uxth	r5, r5
  uint16_t ay = (display.height() * 2 / 3) + tbh / 2; // y is base line!
   b5d82:	b2a4      	uxth	r4, r4
    display.setCursor(hx, hy);
   b5d84:	b22d      	sxth	r5, r5
    display.fillScreen(GxEPD_WHITE);
   b5d86:	f64f 71ff 	movw	r1, #65535	; 0xffff
   b5d8a:	4640      	mov	r0, r8
   b5d8c:	f7ff fa2b 	bl	b51e6 <_ZN9GxEPD2_3CI11GxEPD2_420cLt300EE10fillScreenEt>
    display.setCursor(hx, hy);
   b5d90:	462a      	mov	r2, r5
   b5d92:	b231      	sxth	r1, r6
   b5d94:	4640      	mov	r0, r8
   b5d96:	f000 fe36 	bl	b6a06 <_ZN12Adafruit_GFX9setCursorEss>
    display.print(hibernating);
   b5d9a:	4649      	mov	r1, r9
   b5d9c:	4640      	mov	r0, r8
   b5d9e:	f002 fa89 	bl	b82b4 <_ZN5Print5printEPKc>
    display.setCursor(ax, ay);
   b5da2:	b222      	sxth	r2, r4
   b5da4:	b239      	sxth	r1, r7
   b5da6:	4640      	mov	r0, r8
   b5da8:	f000 fe2d 	bl	b6a06 <_ZN12Adafruit_GFX9setCursorEss>
    display.print(again);
   b5dac:	a908      	add	r1, sp, #32
   b5dae:	4640      	mov	r0, r8
   b5db0:	f002 fa80 	bl	b82b4 <_ZN5Print5printEPKc>
  }
  while (display.nextPage());
   b5db4:	4640      	mov	r0, r8
   b5db6:	f7ff fb1d 	bl	b53f4 <_ZN9GxEPD2_3CI11GxEPD2_420cLt300EE8nextPageEv>
   b5dba:	2800      	cmp	r0, #0
   b5dbc:	d1e3      	bne.n	b5d86 <_Z13deepSleepTestv+0x26a>
   b5dbe:	4809      	ldr	r0, [pc, #36]	; (b5de4 <_Z13deepSleepTestv+0x2c8>)
   b5dc0:	f001 fab6 	bl	b7330 <_ZN11GxEPD2_420c9hibernateEv>
  display.hibernate();
  //Serial.println("deepSleepTest done");
}
   b5dc4:	b015      	add	sp, #84	; 0x54
   b5dc6:	e8bd 8ff0 	ldmia.w	sp!, {r4, r5, r6, r7, r8, r9, sl, fp, pc}
   b5dca:	bf00      	nop
   b5dcc:	000d6c74 	.word	0x000d6c74
   b5dd0:	000d6c84 	.word	0x000d6c84
   b5dd4:	000d6c8c 	.word	0x000d6c8c
   b5dd8:	000d6c9c 	.word	0x000d6c9c
   b5ddc:	200370ec 	.word	0x200370ec
   b5de0:	000d6db8 	.word	0x000d6db8
   b5de4:	20037110 	.word	0x20037110

000b5de8 <_ZN9GxEPD2_3CI11GxEPD2_420cLt300EE7_rotateERtS2_S2_S2_>:
    };
    static inline uint16_t gx_uint16_max(uint16_t a, uint16_t b)
    {
      return (a > b ? a : b);
    };
    void _rotate(uint16_t& x, uint16_t& y, uint16_t& w, uint16_t& h)
   b5de8:	e92d 41f0 	stmdb	sp!, {r4, r5, r6, r7, r8, lr}
   b5dec:	f8dd 8018 	ldr.w	r8, [sp, #24]
   b5df0:	4607      	mov	r7, r0
   b5df2:	460d      	mov	r5, r1
   b5df4:	4614      	mov	r4, r2
   b5df6:	461e      	mov	r6, r3
    {
      switch (getRotation())
   b5df8:	f000 fe0b 	bl	b6a12 <_ZNK12Adafruit_GFX11getRotationEv>
   b5dfc:	2802      	cmp	r0, #2
   b5dfe:	d015      	beq.n	b5e2c <_ZN9GxEPD2_3CI11GxEPD2_420cLt300EE7_rotateERtS2_S2_S2_+0x44>
   b5e00:	2803      	cmp	r0, #3
   b5e02:	d021      	beq.n	b5e48 <_ZN9GxEPD2_3CI11GxEPD2_420cLt300EE7_rotateERtS2_S2_S2_+0x60>
   b5e04:	2801      	cmp	r0, #1
   b5e06:	d10f      	bne.n	b5e28 <_ZN9GxEPD2_3CI11GxEPD2_420cLt300EE7_rotateERtS2_S2_S2_+0x40>
      T t = a;
   b5e08:	882b      	ldrh	r3, [r5, #0]
      a = b;
   b5e0a:	8822      	ldrh	r2, [r4, #0]
   b5e0c:	802a      	strh	r2, [r5, #0]
      b = t;
   b5e0e:	8023      	strh	r3, [r4, #0]
      T t = a;
   b5e10:	8833      	ldrh	r3, [r6, #0]
      a = b;
   b5e12:	f8b8 2000 	ldrh.w	r2, [r8]
   b5e16:	8032      	strh	r2, [r6, #0]
      b = t;
   b5e18:	f8a8 3000 	strh.w	r3, [r8]
      {
        case 1:
          _swap_(x, y);
          _swap_(w, h);
          x = WIDTH - x - w;
   b5e1c:	882b      	ldrh	r3, [r5, #0]
   b5e1e:	8832      	ldrh	r2, [r6, #0]
   b5e20:	441a      	add	r2, r3
   b5e22:	893b      	ldrh	r3, [r7, #8]
   b5e24:	1a9b      	subs	r3, r3, r2
   b5e26:	802b      	strh	r3, [r5, #0]
          _swap_(x, y);
          _swap_(w, h);
          y = HEIGHT - y - h;
          break;
      }
    }
   b5e28:	e8bd 81f0 	ldmia.w	sp!, {r4, r5, r6, r7, r8, pc}
          x = WIDTH - x - w;
   b5e2c:	882b      	ldrh	r3, [r5, #0]
   b5e2e:	8832      	ldrh	r2, [r6, #0]
   b5e30:	441a      	add	r2, r3
   b5e32:	893b      	ldrh	r3, [r7, #8]
   b5e34:	1a9b      	subs	r3, r3, r2
   b5e36:	802b      	strh	r3, [r5, #0]
          y = HEIGHT - y - h;
   b5e38:	8823      	ldrh	r3, [r4, #0]
   b5e3a:	f8b8 2000 	ldrh.w	r2, [r8]
   b5e3e:	441a      	add	r2, r3
   b5e40:	897b      	ldrh	r3, [r7, #10]
   b5e42:	1a9b      	subs	r3, r3, r2
          y = HEIGHT - y - h;
   b5e44:	8023      	strh	r3, [r4, #0]
    }
   b5e46:	e7ef      	b.n	b5e28 <_ZN9GxEPD2_3CI11GxEPD2_420cLt300EE7_rotateERtS2_S2_S2_+0x40>
      T t = a;
   b5e48:	882b      	ldrh	r3, [r5, #0]
      a = b;
   b5e4a:	8822      	ldrh	r2, [r4, #0]
   b5e4c:	802a      	strh	r2, [r5, #0]
      b = t;
   b5e4e:	8023      	strh	r3, [r4, #0]
      T t = a;
   b5e50:	8833      	ldrh	r3, [r6, #0]
      a = b;
   b5e52:	f8b8 2000 	ldrh.w	r2, [r8]
   b5e56:	8032      	strh	r2, [r6, #0]
      b = t;
   b5e58:	f8a8 3000 	strh.w	r3, [r8]
          y = HEIGHT - y - h;
   b5e5c:	8822      	ldrh	r2, [r4, #0]
   b5e5e:	4413      	add	r3, r2
   b5e60:	897a      	ldrh	r2, [r7, #10]
   b5e62:	1ad3      	subs	r3, r2, r3
   b5e64:	e7ee      	b.n	b5e44 <_ZN9GxEPD2_3CI11GxEPD2_420cLt300EE7_rotateERtS2_S2_S2_+0x5c>

000b5e66 <_ZN9GxEPD2_3CI11GxEPD2_420cLt300EE16setPartialWindowEtttt>:
    void setPartialWindow(uint16_t x, uint16_t y, uint16_t w, uint16_t h)
   b5e66:	e92d 41f3 	stmdb	sp!, {r0, r1, r4, r5, r6, r7, r8, lr}
   b5e6a:	4605      	mov	r5, r0
   b5e6c:	461e      	mov	r6, r3
   b5e6e:	4617      	mov	r7, r2
   b5e70:	4688      	mov	r8, r1
      _pw_x = gx_uint16_min(x, width());
   b5e72:	f000 fef2 	bl	b6c5a <_ZNK12Adafruit_GFX5widthEv>
   b5e76:	b280      	uxth	r0, r0
   b5e78:	f505 44e0 	add.w	r4, r5, #28672	; 0x7000
   b5e7c:	4540      	cmp	r0, r8
   b5e7e:	4601      	mov	r1, r0
   b5e80:	bf28      	it	cs
   b5e82:	4641      	movcs	r1, r8
   b5e84:	f8a4 15a6 	strh.w	r1, [r4, #1446]	; 0x5a6
      _pw_y = gx_uint16_min(y, height());
   b5e88:	4628      	mov	r0, r5
   b5e8a:	f000 fee9 	bl	b6c60 <_ZNK12Adafruit_GFX6heightEv>
   b5e8e:	b280      	uxth	r0, r0
   b5e90:	42b8      	cmp	r0, r7
   b5e92:	4602      	mov	r2, r0
   b5e94:	bf28      	it	cs
   b5e96:	463a      	movcs	r2, r7
   b5e98:	f8a4 25a8 	strh.w	r2, [r4, #1448]	; 0x5a8
      _pw_w = gx_uint16_min(w, width() - _pw_x);
   b5e9c:	4628      	mov	r0, r5
   b5e9e:	f000 fedc 	bl	b6c5a <_ZNK12Adafruit_GFX5widthEv>
   b5ea2:	f8b4 35a6 	ldrh.w	r3, [r4, #1446]	; 0x5a6
   b5ea6:	1ac0      	subs	r0, r0, r3
   b5ea8:	b280      	uxth	r0, r0
   b5eaa:	42b0      	cmp	r0, r6
   b5eac:	4603      	mov	r3, r0
   b5eae:	bf28      	it	cs
   b5eb0:	4633      	movcs	r3, r6
   b5eb2:	f8a4 35aa 	strh.w	r3, [r4, #1450]	; 0x5aa
      _pw_h = gx_uint16_min(h, height() - _pw_y);
   b5eb6:	4628      	mov	r0, r5
   b5eb8:	f000 fed2 	bl	b6c60 <_ZNK12Adafruit_GFX6heightEv>
   b5ebc:	f8b4 35a8 	ldrh.w	r3, [r4, #1448]	; 0x5a8
   b5ec0:	1ac0      	subs	r0, r0, r3
   b5ec2:	f8bd 3020 	ldrh.w	r3, [sp, #32]
   b5ec6:	b280      	uxth	r0, r0
   b5ec8:	4298      	cmp	r0, r3
   b5eca:	bf28      	it	cs
   b5ecc:	4618      	movcs	r0, r3
      _rotate(_pw_x, _pw_y, _pw_w, _pw_h);
   b5ece:	f505 43eb 	add.w	r3, r5, #30080	; 0x7580
   b5ed2:	332c      	adds	r3, #44	; 0x2c
      _pw_h = gx_uint16_min(h, height() - _pw_y);
   b5ed4:	f8a4 05ac 	strh.w	r0, [r4, #1452]	; 0x5ac
      _rotate(_pw_x, _pw_y, _pw_w, _pw_h);
   b5ed8:	f505 42eb 	add.w	r2, r5, #30080	; 0x7580
   b5edc:	9300      	str	r3, [sp, #0]
   b5ede:	f505 41eb 	add.w	r1, r5, #30080	; 0x7580
   b5ee2:	f505 43eb 	add.w	r3, r5, #30080	; 0x7580
   b5ee6:	332a      	adds	r3, #42	; 0x2a
   b5ee8:	3228      	adds	r2, #40	; 0x28
   b5eea:	3126      	adds	r1, #38	; 0x26
   b5eec:	4628      	mov	r0, r5
   b5eee:	f7ff ff7b 	bl	b5de8 <_ZN9GxEPD2_3CI11GxEPD2_420cLt300EE7_rotateERtS2_S2_S2_>
      _pw_w += _pw_x % 8;
   b5ef2:	f8b4 25a6 	ldrh.w	r2, [r4, #1446]	; 0x5a6
      _using_partial_mode = true;
   b5ef6:	2301      	movs	r3, #1
   b5ef8:	f884 3598 	strb.w	r3, [r4, #1432]	; 0x598
      _pw_w += _pw_x % 8;
   b5efc:	f8b4 35aa 	ldrh.w	r3, [r4, #1450]	; 0x5aa
   b5f00:	f002 0107 	and.w	r1, r2, #7
   b5f04:	4419      	add	r1, r3
   b5f06:	b28b      	uxth	r3, r1
      if (_pw_w % 8 > 0) _pw_w += 8 - _pw_w % 8;
   b5f08:	0749      	lsls	r1, r1, #29
   b5f0a:	bf1c      	itt	ne
   b5f0c:	f023 0307 	bicne.w	r3, r3, #7
   b5f10:	3308      	addne	r3, #8
      _pw_x -= _pw_x % 8;
   b5f12:	f022 0207 	bic.w	r2, r2, #7
      if (_pw_w % 8 > 0) _pw_w += 8 - _pw_w % 8;
   b5f16:	f8a4 35aa 	strh.w	r3, [r4, #1450]	; 0x5aa
      _pw_x -= _pw_x % 8;
   b5f1a:	f8a4 25a6 	strh.w	r2, [r4, #1446]	; 0x5a6
    }
   b5f1e:	b002      	add	sp, #8
   b5f20:	e8bd 81f0 	ldmia.w	sp!, {r4, r5, r6, r7, r8, pc}

000b5f24 <_Z17showPartialUpdatev>:
// the size is increased in setPartialWindow() if x or w are not multiple of 8 for even rotation, y or h for odd rotation
// see also comment in GxEPD2_BW.h, GxEPD2_3C.h or GxEPD2_GFX.h for method setPartialWindow()
// showPartialUpdate() purposely uses values that are not multiples of 8 to test this

void showPartialUpdate()
{
   b5f24:	e92d 41f0 	stmdb	sp!, {r4, r5, r6, r7, r8, lr}
   b5f28:	ed2d 8b02 	vpush	{d8}
  // some useful background
  helloWorld(display);
   b5f2c:	4850      	ldr	r0, [pc, #320]	; (b6070 <_Z17showPartialUpdatev+0x14c>)
  display.setFont(&FreeMonoBold9pt7b);
  display.setTextColor(GxEPD_BLACK);
  // show where the update box is
  for (uint16_t r = 0; r < 4; r++)
  {
    display.setRotation(r);
   b5f2e:	4c50      	ldr	r4, [pc, #320]	; (b6070 <_Z17showPartialUpdatev+0x14c>)
{
   b5f30:	b082      	sub	sp, #8
  helloWorld(display);
   b5f32:	f7fe fd83 	bl	b4a3c <_Z10helloWorldR10GxEPD2_GFX>
  display.setFont(&FreeMonoBold9pt7b);
   b5f36:	494f      	ldr	r1, [pc, #316]	; (b6074 <_Z17showPartialUpdatev+0x150>)
   b5f38:	484d      	ldr	r0, [pc, #308]	; (b6070 <_Z17showPartialUpdatev+0x14c>)
   b5f3a:	f000 fd6c 	bl	b6a16 <_ZN12Adafruit_GFX7setFontEPK7GFXfont>
  display.setTextColor(GxEPD_BLACK);
   b5f3e:	484c      	ldr	r0, [pc, #304]	; (b6070 <_Z17showPartialUpdatev+0x14c>)
   b5f40:	2100      	movs	r1, #0
   b5f42:	f000 fd63 	bl	b6a0c <_ZN12Adafruit_GFX12setTextColorEt>
   b5f46:	2600      	movs	r6, #0
    display.setPartialWindow(box_x, box_y, box_w, box_h);
   b5f48:	2714      	movs	r7, #20
    display.setRotation(r);
   b5f4a:	b2f1      	uxtb	r1, r6
   b5f4c:	4620      	mov	r0, r4
   b5f4e:	f000 fb5e 	bl	b660e <_ZN12Adafruit_GFX11setRotationEh>
    display.setPartialWindow(box_x, box_y, box_w, box_h);
   b5f52:	2346      	movs	r3, #70	; 0x46
   b5f54:	220f      	movs	r2, #15
   b5f56:	210a      	movs	r1, #10
   b5f58:	4620      	mov	r0, r4
   b5f5a:	9700      	str	r7, [sp, #0]
   b5f5c:	f7ff ff83 	bl	b5e66 <_ZN9GxEPD2_3CI11GxEPD2_420cLt300EE16setPartialWindowEtttt>
    display.firstPage();
   b5f60:	4620      	mov	r0, r4
   b5f62:	f7ff f931 	bl	b51c8 <_ZN9GxEPD2_3CI11GxEPD2_420cLt300EE9firstPageEv>
    do
    {
      display.fillRect(box_x, box_y, box_w, box_h, GxEPD_BLACK);
   b5f66:	2500      	movs	r5, #0
   b5f68:	4620      	mov	r0, r4
   b5f6a:	e9cd 7500 	strd	r7, r5, [sp]
   b5f6e:	2346      	movs	r3, #70	; 0x46
   b5f70:	220f      	movs	r2, #15
   b5f72:	210a      	movs	r1, #10
   b5f74:	f000 fa97 	bl	b64a6 <_ZN12Adafruit_GFX8fillRectEsssst>
      //display.fillScreen(GxEPD_BLACK);
    }
    while (display.nextPage());
   b5f78:	4620      	mov	r0, r4
   b5f7a:	f7ff fa3b 	bl	b53f4 <_ZN9GxEPD2_3CI11GxEPD2_420cLt300EE8nextPageEv>
   b5f7e:	2800      	cmp	r0, #0
   b5f80:	d1f2      	bne.n	b5f68 <_Z17showPartialUpdatev+0x44>
    delay(2000);
   b5f82:	f44f 60fa 	mov.w	r0, #2000	; 0x7d0
   b5f86:	f002 faeb 	bl	b8560 <delay>
    display.firstPage();
   b5f8a:	4620      	mov	r0, r4
   b5f8c:	f7ff f91c 	bl	b51c8 <_ZN9GxEPD2_3CI11GxEPD2_420cLt300EE9firstPageEv>
    do
    {
      display.fillRect(box_x, box_y, box_w, box_h, GxEPD_WHITE);
   b5f90:	f64f 78ff 	movw	r8, #65535	; 0xffff
   b5f94:	2346      	movs	r3, #70	; 0x46
   b5f96:	220f      	movs	r2, #15
   b5f98:	210a      	movs	r1, #10
   b5f9a:	4620      	mov	r0, r4
   b5f9c:	e9cd 7800 	strd	r7, r8, [sp]
   b5fa0:	f000 fa81 	bl	b64a6 <_ZN12Adafruit_GFX8fillRectEsssst>
    }
    while (display.nextPage());
   b5fa4:	4620      	mov	r0, r4
   b5fa6:	f7ff fa25 	bl	b53f4 <_ZN9GxEPD2_3CI11GxEPD2_420cLt300EE8nextPageEv>
   b5faa:	4605      	mov	r5, r0
   b5fac:	2800      	cmp	r0, #0
   b5fae:	d1f1      	bne.n	b5f94 <_Z17showPartialUpdatev+0x70>
    delay(1000);
   b5fb0:	f44f 707a 	mov.w	r0, #1000	; 0x3e8
  for (uint16_t r = 0; r < 4; r++)
   b5fb4:	3601      	adds	r6, #1
    delay(1000);
   b5fb6:	f002 fad3 	bl	b8560 <delay>
  for (uint16_t r = 0; r < 4; r++)
   b5fba:	2e04      	cmp	r6, #4
   b5fbc:	d1c5      	bne.n	b5f4a <_Z17showPartialUpdatev+0x26>
  }
  //return;
  // show updates in the update box
  for (uint16_t r = 0; r < 4; r++)
  {
    display.setRotation(r);
   b5fbe:	4c2c      	ldr	r4, [pc, #176]	; (b6070 <_Z17showPartialUpdatev+0x14c>)
    display.setPartialWindow(box_x, box_y, box_w, box_h);
   b5fc0:	2714      	movs	r7, #20
    display.setRotation(r);
   b5fc2:	b2e9      	uxtb	r1, r5
   b5fc4:	4620      	mov	r0, r4
   b5fc6:	f000 fb22 	bl	b660e <_ZN12Adafruit_GFX11setRotationEh>
    display.setPartialWindow(box_x, box_y, box_w, box_h);
   b5fca:	9700      	str	r7, [sp, #0]
   b5fcc:	2346      	movs	r3, #70	; 0x46
   b5fce:	220f      	movs	r2, #15
   b5fd0:	210a      	movs	r1, #10
   b5fd2:	4620      	mov	r0, r4
   b5fd4:	f7ff ff47 	bl	b5e66 <_ZN9GxEPD2_3CI11GxEPD2_420cLt300EE16setPartialWindowEtttt>
      display.firstPage();
      do
      {
        display.fillRect(box_x, box_y, box_w, box_h, GxEPD_WHITE);
        display.setCursor(box_x, cursor_y);
        display.print(value * i, 2);
   b5fd8:	ed9f 8a27 	vldr	s16, [pc, #156]	; b6078 <_Z17showPartialUpdatev+0x154>
    display.setPartialWindow(box_x, box_y, box_w, box_h);
   b5fdc:	2601      	movs	r6, #1
      display.firstPage();
   b5fde:	4620      	mov	r0, r4
   b5fe0:	f7ff f8f2 	bl	b51c8 <_ZN9GxEPD2_3CI11GxEPD2_420cLt300EE9firstPageEv>
        display.fillRect(box_x, box_y, box_w, box_h, GxEPD_WHITE);
   b5fe4:	f64f 78ff 	movw	r8, #65535	; 0xffff
   b5fe8:	2346      	movs	r3, #70	; 0x46
   b5fea:	220f      	movs	r2, #15
   b5fec:	210a      	movs	r1, #10
   b5fee:	4620      	mov	r0, r4
   b5ff0:	e9cd 7800 	strd	r7, r8, [sp]
   b5ff4:	f000 fa57 	bl	b64a6 <_ZN12Adafruit_GFX8fillRectEsssst>
        display.setCursor(box_x, cursor_y);
   b5ff8:	221d      	movs	r2, #29
   b5ffa:	210a      	movs	r1, #10
   b5ffc:	4620      	mov	r0, r4
   b5ffe:	f000 fd02 	bl	b6a06 <_ZN12Adafruit_GFX9setCursorEss>
        display.print(value * i, 2);
   b6002:	ee07 6a90 	vmov	s15, r6
   b6006:	eeb8 0ae7 	vcvt.f32.s32	s0, s15
   b600a:	2102      	movs	r1, #2
   b600c:	ee20 0a08 	vmul.f32	s0, s0, s16
   b6010:	4620      	mov	r0, r4
   b6012:	f002 fa53 	bl	b84bc <_ZN5Print5printEfi>
      }
      while (display.nextPage());
   b6016:	4620      	mov	r0, r4
   b6018:	f7ff f9ec 	bl	b53f4 <_ZN9GxEPD2_3CI11GxEPD2_420cLt300EE8nextPageEv>
   b601c:	2800      	cmp	r0, #0
   b601e:	d1e1      	bne.n	b5fe4 <_Z17showPartialUpdatev+0xc0>
      delay(500);
   b6020:	f44f 70fa 	mov.w	r0, #500	; 0x1f4
    for (uint16_t i = 1; i <= 10; i += incr)
   b6024:	3603      	adds	r6, #3
      delay(500);
   b6026:	f002 fa9b 	bl	b8560 <delay>
    for (uint16_t i = 1; i <= 10; i += incr)
   b602a:	2e0d      	cmp	r6, #13
   b602c:	d1d7      	bne.n	b5fde <_Z17showPartialUpdatev+0xba>
    }
    delay(1000);
   b602e:	f44f 707a 	mov.w	r0, #1000	; 0x3e8
   b6032:	f002 fa95 	bl	b8560 <delay>
    display.firstPage();
   b6036:	4620      	mov	r0, r4
   b6038:	f7ff f8c6 	bl	b51c8 <_ZN9GxEPD2_3CI11GxEPD2_420cLt300EE9firstPageEv>
    do
    {
      display.fillRect(box_x, box_y, box_w, box_h, GxEPD_WHITE);
   b603c:	4620      	mov	r0, r4
   b603e:	e9cd 7800 	strd	r7, r8, [sp]
   b6042:	2346      	movs	r3, #70	; 0x46
   b6044:	220f      	movs	r2, #15
   b6046:	210a      	movs	r1, #10
   b6048:	f000 fa2d 	bl	b64a6 <_ZN12Adafruit_GFX8fillRectEsssst>
    }
    while (display.nextPage());
   b604c:	4620      	mov	r0, r4
   b604e:	f7ff f9d1 	bl	b53f4 <_ZN9GxEPD2_3CI11GxEPD2_420cLt300EE8nextPageEv>
   b6052:	2800      	cmp	r0, #0
   b6054:	d1f2      	bne.n	b603c <_Z17showPartialUpdatev+0x118>
    delay(1000);
   b6056:	f44f 707a 	mov.w	r0, #1000	; 0x3e8
  for (uint16_t r = 0; r < 4; r++)
   b605a:	3501      	adds	r5, #1
    delay(1000);
   b605c:	f002 fa80 	bl	b8560 <delay>
  for (uint16_t r = 0; r < 4; r++)
   b6060:	2d04      	cmp	r5, #4
   b6062:	d1ae      	bne.n	b5fc2 <_Z17showPartialUpdatev+0x9e>
  }
}
   b6064:	b002      	add	sp, #8
   b6066:	ecbd 8b02 	vpop	{d8}
   b606a:	e8bd 81f0 	ldmia.w	sp!, {r4, r5, r6, r7, r8, pc}
   b606e:	bf00      	nop
   b6070:	200370ec 	.word	0x200370ec
   b6074:	000d6db8 	.word	0x000d6db8
   b6078:	415f3333 	.word	0x415f3333

000b607c <setup>:
{
   b607c:	b513      	push	{r0, r1, r4, lr}
  Serial.begin(115200);
   b607e:	f002 fbeb 	bl	b8858 <_Z16_fetch_usbserialv>
   b6082:	f44f 31e1 	mov.w	r1, #115200	; 0x1c200
   b6086:	f002 fbdb 	bl	b8840 <_ZN9USBSerial5beginEl>
  Serial.println();
   b608a:	f002 fbe5 	bl	b8858 <_Z16_fetch_usbserialv>
   b608e:	f002 f918 	bl	b82c2 <_ZN5Print7printlnEv>
  Serial.println("setup");
   b6092:	f002 fbe1 	bl	b8858 <_Z16_fetch_usbserialv>
   b6096:	4926      	ldr	r1, [pc, #152]	; (b6130 <setup+0xb4>)
  display.init(115200, true, 2, false); // USE THIS for Waveshare boards with "clever" reset circuit, 2ms reset pulse
   b6098:	4c26      	ldr	r4, [pc, #152]	; (b6134 <setup+0xb8>)
  Serial.println("setup");
   b609a:	f002 f91e 	bl	b82da <_ZN5Print7printlnEPKc>
  delay(100);
   b609e:	2064      	movs	r0, #100	; 0x64
   b60a0:	f002 fa5e 	bl	b8560 <delay>
  display.init(115200, true, 2, false); // USE THIS for Waveshare boards with "clever" reset circuit, 2ms reset pulse
   b60a4:	2300      	movs	r3, #0
   b60a6:	2201      	movs	r2, #1
   b60a8:	f44f 31e1 	mov.w	r1, #115200	; 0x1c200
   b60ac:	9300      	str	r3, [sp, #0]
   b60ae:	4620      	mov	r0, r4
   b60b0:	2302      	movs	r3, #2
   b60b2:	f7ff f91b 	bl	b52ec <_ZN9GxEPD2_3CI11GxEPD2_420cLt300EE4initEmbtb>
  helloWorld(display);
   b60b6:	4620      	mov	r0, r4
   b60b8:	f7fe fcc0 	bl	b4a3c <_Z10helloWorldR10GxEPD2_GFX>
  delay(1000);
   b60bc:	f44f 707a 	mov.w	r0, #1000	; 0x3e8
   b60c0:	f002 fa4e 	bl	b8560 <delay>
  helloFullScreenPartialMode(display);
   b60c4:	4620      	mov	r0, r4
   b60c6:	f7fe fd17 	bl	b4af8 <_Z26helloFullScreenPartialModeR10GxEPD2_GFX>
  delay(1000);
   b60ca:	f44f 707a 	mov.w	r0, #1000	; 0x3e8
   b60ce:	f002 fa47 	bl	b8560 <delay>
  helloArduino(display);
   b60d2:	4620      	mov	r0, r4
   b60d4:	f7fe fe3a 	bl	b4d4c <_Z12helloArduinoR10GxEPD2_GFX>
  delay(1000);
   b60d8:	f44f 707a 	mov.w	r0, #1000	; 0x3e8
   b60dc:	f002 fa40 	bl	b8560 <delay>
  helloEpaper(display);
   b60e0:	4620      	mov	r0, r4
   b60e2:	f7fe fec5 	bl	b4e70 <_Z11helloEpaperR10GxEPD2_GFX>
  delay(1000);
   b60e6:	f44f 707a 	mov.w	r0, #1000	; 0x3e8
   b60ea:	f002 fa39 	bl	b8560 <delay>
  showFont(display, "FreeMonoBold9pt7b", &FreeMonoBold9pt7b);
   b60ee:	4a12      	ldr	r2, [pc, #72]	; (b6138 <setup+0xbc>)
   b60f0:	4912      	ldr	r1, [pc, #72]	; (b613c <setup+0xc0>)
   b60f2:	4620      	mov	r0, r4
   b60f4:	f7fe ff94 	bl	b5020 <_Z8showFontR10GxEPD2_GFXPKcPK7GFXfont>
  delay(1000);
   b60f8:	f44f 707a 	mov.w	r0, #1000	; 0x3e8
   b60fc:	f002 fa30 	bl	b8560 <delay>
  bitmaps.drawBitmaps();
   b6100:	480f      	ldr	r0, [pc, #60]	; (b6140 <setup+0xc4>)
   b6102:	f7ff f843 	bl	b518c <_ZN13BitmapDisplay11drawBitmapsEv>
    showPartialUpdate();
   b6106:	f7ff ff0d 	bl	b5f24 <_Z17showPartialUpdatev>
    delay(1000);
   b610a:	f44f 707a 	mov.w	r0, #1000	; 0x3e8
   b610e:	f002 fa27 	bl	b8560 <delay>
      epd2.powerOff();
   b6112:	f104 0024 	add.w	r0, r4, #36	; 0x24
   b6116:	f001 f909 	bl	b732c <_ZN11GxEPD2_420c8powerOffEv>
  deepSleepTest();
   b611a:	f7ff fcff 	bl	b5b1c <_Z13deepSleepTestv>
  Serial.println("setup done");
   b611e:	f002 fb9b 	bl	b8858 <_Z16_fetch_usbserialv>
   b6122:	4908      	ldr	r1, [pc, #32]	; (b6144 <setup+0xc8>)
}
   b6124:	b002      	add	sp, #8
   b6126:	e8bd 4010 	ldmia.w	sp!, {r4, lr}
  Serial.println("setup done");
   b612a:	f002 b8d6 	b.w	b82da <_ZN5Print7printlnEPKc>
   b612e:	bf00      	nop
   b6130:	000d6ca2 	.word	0x000d6ca2
   b6134:	200370ec 	.word	0x200370ec
   b6138:	000d6db8 	.word	0x000d6db8
   b613c:	000d6ca8 	.word	0x000d6ca8
   b6140:	200370e8 	.word	0x200370e8
   b6144:	000d6cba 	.word	0x000d6cba

000b6148 <_ZN9GxEPD2_3CI11GxEPD2_420cLt300EE13displayWindowEtttt>:
    void displayWindow(uint16_t x, uint16_t y, uint16_t w, uint16_t h)
   b6148:	b530      	push	{r4, r5, lr}
   b614a:	b08f      	sub	sp, #60	; 0x3c
   b614c:	4604      	mov	r4, r0
   b614e:	f8ad 2034 	strh.w	r2, [sp, #52]	; 0x34
   b6152:	f8ad 3032 	strh.w	r3, [sp, #50]	; 0x32
      x = gx_uint16_min(x, width());
   b6156:	460d      	mov	r5, r1
    void displayWindow(uint16_t x, uint16_t y, uint16_t w, uint16_t h)
   b6158:	f8ad 1036 	strh.w	r1, [sp, #54]	; 0x36
      x = gx_uint16_min(x, width());
   b615c:	f000 fd7d 	bl	b6c5a <_ZNK12Adafruit_GFX5widthEv>
   b6160:	b281      	uxth	r1, r0
   b6162:	42a9      	cmp	r1, r5
   b6164:	bf28      	it	cs
   b6166:	4629      	movcs	r1, r5
      y = gx_uint16_min(y, height());
   b6168:	4620      	mov	r0, r4
   b616a:	f8bd 5034 	ldrh.w	r5, [sp, #52]	; 0x34
      x = gx_uint16_min(x, width());
   b616e:	f8ad 1036 	strh.w	r1, [sp, #54]	; 0x36
      y = gx_uint16_min(y, height());
   b6172:	f000 fd75 	bl	b6c60 <_ZNK12Adafruit_GFX6heightEv>
   b6176:	b280      	uxth	r0, r0
   b6178:	42a8      	cmp	r0, r5
   b617a:	bf28      	it	cs
   b617c:	4628      	movcs	r0, r5
   b617e:	f8ad 0034 	strh.w	r0, [sp, #52]	; 0x34
      w = gx_uint16_min(w, width() - x);
   b6182:	4620      	mov	r0, r4
   b6184:	f8bd 5032 	ldrh.w	r5, [sp, #50]	; 0x32
   b6188:	f000 fd67 	bl	b6c5a <_ZNK12Adafruit_GFX5widthEv>
   b618c:	f8bd 3036 	ldrh.w	r3, [sp, #54]	; 0x36
   b6190:	1ac0      	subs	r0, r0, r3
   b6192:	b280      	uxth	r0, r0
   b6194:	42a8      	cmp	r0, r5
   b6196:	bf28      	it	cs
   b6198:	4628      	movcs	r0, r5
   b619a:	f8ad 0032 	strh.w	r0, [sp, #50]	; 0x32
      h = gx_uint16_min(h, height() - y);
   b619e:	4620      	mov	r0, r4
   b61a0:	f8bd 5048 	ldrh.w	r5, [sp, #72]	; 0x48
   b61a4:	f000 fd5c 	bl	b6c60 <_ZNK12Adafruit_GFX6heightEv>
   b61a8:	f8bd 3034 	ldrh.w	r3, [sp, #52]	; 0x34
   b61ac:	1ac0      	subs	r0, r0, r3
   b61ae:	b280      	uxth	r0, r0
   b61b0:	42a8      	cmp	r0, r5
   b61b2:	bf28      	it	cs
   b61b4:	4628      	movcs	r0, r5
      _rotate(x, y, w, h);
   b61b6:	ab12      	add	r3, sp, #72	; 0x48
      h = gx_uint16_min(h, height() - y);
   b61b8:	f8ad 0048 	strh.w	r0, [sp, #72]	; 0x48
      _rotate(x, y, w, h);
   b61bc:	9300      	str	r3, [sp, #0]
   b61be:	aa0d      	add	r2, sp, #52	; 0x34
   b61c0:	f10d 0332 	add.w	r3, sp, #50	; 0x32
   b61c4:	f10d 0136 	add.w	r1, sp, #54	; 0x36
   b61c8:	4620      	mov	r0, r4
   b61ca:	f7ff fe0d 	bl	b5de8 <_ZN9GxEPD2_3CI11GxEPD2_420cLt300EE7_rotateERtS2_S2_S2_>
      epd2.writeImagePart(_black_buffer, _color_buffer, x, y, GxEPD2_Type::WIDTH, _page_height, x, y, w, h);
   b61ce:	2200      	movs	r2, #0
   b61d0:	e9cd 2208 	strd	r2, r2, [sp, #32]
   b61d4:	9207      	str	r2, [sp, #28]
   b61d6:	f9bd 2048 	ldrsh.w	r2, [sp, #72]	; 0x48
   b61da:	f9bd 1034 	ldrsh.w	r1, [sp, #52]	; 0x34
   b61de:	9206      	str	r2, [sp, #24]
   b61e0:	f9bd 2032 	ldrsh.w	r2, [sp, #50]	; 0x32
   b61e4:	f9bd 3036 	ldrsh.w	r3, [sp, #54]	; 0x36
   b61e8:	9303      	str	r3, [sp, #12]
   b61ea:	e9cd 1204 	strd	r1, r2, [sp, #16]
   b61ee:	f504 42e0 	add.w	r2, r4, #28672	; 0x7000
   b61f2:	f104 0024 	add.w	r0, r4, #36	; 0x24
   b61f6:	f9b2 25a4 	ldrsh.w	r2, [r2, #1444]	; 0x5a4
   b61fa:	9202      	str	r2, [sp, #8]
   b61fc:	f44f 72c8 	mov.w	r2, #400	; 0x190
   b6200:	e9cd 1200 	strd	r1, r2, [sp]
   b6204:	f504 526c 	add.w	r2, r4, #15104	; 0x3b00
   b6208:	f104 0168 	add.w	r1, r4, #104	; 0x68
   b620c:	900b      	str	r0, [sp, #44]	; 0x2c
   b620e:	f001 f8e9 	bl	b73e4 <_ZN11GxEPD2_420c14writeImagePartEPKhS1_ssssssssbbb>
      epd2.refresh(x, y, w, h);
   b6212:	f9bd 3048 	ldrsh.w	r3, [sp, #72]	; 0x48
   b6216:	9300      	str	r3, [sp, #0]
   b6218:	f9bd 2034 	ldrsh.w	r2, [sp, #52]	; 0x34
   b621c:	f9bd 3032 	ldrsh.w	r3, [sp, #50]	; 0x32
   b6220:	f9bd 1036 	ldrsh.w	r1, [sp, #54]	; 0x36
   b6224:	980b      	ldr	r0, [sp, #44]	; 0x2c
   b6226:	f001 fc87 	bl	b7b38 <_ZN11GxEPD2_420c7refreshEssss>
    }
   b622a:	b00f      	add	sp, #60	; 0x3c
   b622c:	bd30      	pop	{r4, r5, pc}
	...

000b6230 <_GLOBAL__sub_I_SystemMode>:
}
   b6230:	b530      	push	{r4, r5, lr}

class SystemSleepResult {
public:
    SystemSleepResult()
            : wakeupSource_(nullptr),
              error_(SYSTEM_ERROR_NONE) {
   b6232:	4b35      	ldr	r3, [pc, #212]	; (b6308 <_GLOBAL__sub_I_SystemMode+0xd8>)
    SleepResult() {}
   b6234:	4a35      	ldr	r2, [pc, #212]	; (b630c <_GLOBAL__sub_I_SystemMode+0xdc>)
   b6236:	609a      	str	r2, [r3, #8]
              error_(SYSTEM_ERROR_NONE) {
   b6238:	2500      	movs	r5, #0
   b623a:	b095      	sub	sp, #84	; 0x54
   b623c:	e9c3 5500 	strd	r5, r5, [r3]

class SystemClass {
public:

    SystemClass(System_Mode_TypeDef mode = DEFAULT) {
        set_system_mode(mode);
   b6240:	2001      	movs	r0, #1
   b6242:	f001 fe27 	bl	b7e94 <set_system_mode>
SYSTEM_THREAD(ENABLED);
   b6246:	4629      	mov	r1, r5
   b6248:	2001      	movs	r0, #1
#include <GxEPD2_EPD.h>

class GxEPD2_GFX : public GxEPD2_GFX_ROOT_CLASS
{
  public:
    GxEPD2_GFX(GxEPD2_EPD& _epd2, int16_t w, int16_t h) : GxEPD2_GFX_ROOT_CLASS(w, h), epd2(_epd2) {};
   b624a:	4c31      	ldr	r4, [pc, #196]	; (b6310 <_GLOBAL__sub_I_SystemMode+0xe0>)
   b624c:	f001 fe32 	bl	b7eb4 <system_thread_set_state>
#define MAX_HEIGHT(EPD) (EPD::HEIGHT <= (MAX_DISPLAY_BUFFER_SIZE / 2) / (EPD::WIDTH / 8) ? EPD::HEIGHT : (MAX_DISPLAY_BUFFER_SIZE / 2) / (EPD::WIDTH / 8))
#elif IS_GxEPD2_7C(GxEPD2_DISPLAY_CLASS)
#define MAX_HEIGHT(EPD) (EPD::HEIGHT <= (MAX_DISPLAY_BUFFER_SIZE) / (EPD::WIDTH / 2) ? EPD::HEIGHT : (MAX_DISPLAY_BUFFER_SIZE) / (EPD::WIDTH / 2))
#endif
// adapt the constructor parameters to your wiring
GxEPD2_DISPLAY_CLASS<GxEPD2_DRIVER_CLASS, MAX_HEIGHT(GxEPD2_DRIVER_CLASS)> display(GxEPD2_DRIVER_CLASS(/*CS=*/ EPD_CS, /*DC=*/ EPD_DC, /*RST=*/ EPD_RST, /*BUSY=*/ EPD_BUSY));
   b6250:	2348      	movs	r3, #72	; 0x48
   b6252:	9300      	str	r3, [sp, #0]
   b6254:	2244      	movs	r2, #68	; 0x44
   b6256:	2346      	movs	r3, #70	; 0x46
   b6258:	2130      	movs	r1, #48	; 0x30
   b625a:	a803      	add	r0, sp, #12
   b625c:	f000 ff48 	bl	b70f0 <_ZN11GxEPD2_420cC1Essss>
   b6260:	f44f 7296 	mov.w	r2, #300	; 0x12c
   b6264:	f44f 71c8 	mov.w	r1, #400	; 0x190
   b6268:	4620      	mov	r0, r4
   b626a:	f000 f9df 	bl	b662c <_ZN12Adafruit_GFXC1Ess>
   b626e:	f104 0324 	add.w	r3, r4, #36	; 0x24
   b6272:	6223      	str	r3, [r4, #32]
    GxEPD2_3C(GxEPD2_Type epd2_instance) : GxEPD2_GFX_BASE_CLASS(epd2, GxEPD2_Type::WIDTH_VISIBLE, GxEPD2_Type::HEIGHT), epd2(epd2_instance)
   b6274:	4b27      	ldr	r3, [pc, #156]	; (b6314 <_GLOBAL__sub_I_SystemMode+0xe4>)
   b6276:	6023      	str	r3, [r4, #0]
#include <GxEPD2.h>

#pragma GCC diagnostic ignored "-Wunused-parameter"
//#pragma GCC diagnostic ignored "-Wsign-compare"

class GxEPD2_EPD
   b6278:	f9bd 3020 	ldrsh.w	r3, [sp, #32]
   b627c:	8723      	strh	r3, [r4, #56]	; 0x38
   b627e:	9b09      	ldr	r3, [sp, #36]	; 0x24
   b6280:	63e3      	str	r3, [r4, #60]	; 0x3c
   b6282:	f8bd 3028 	ldrh.w	r3, [sp, #40]	; 0x28
   b6286:	f8a4 3040 	strh.w	r3, [r4, #64]	; 0x40
   b628a:	9b0b      	ldr	r3, [sp, #44]	; 0x2c
   b628c:	6463      	str	r3, [r4, #68]	; 0x44
class SPISettings : public Printable {
   b628e:	4b22      	ldr	r3, [pc, #136]	; (b6318 <_GLOBAL__sub_I_SystemMode+0xe8>)
   b6290:	64a3      	str	r3, [r4, #72]	; 0x48
   b6292:	f89d 3034 	ldrb.w	r3, [sp, #52]	; 0x34
   b6296:	f884 304c 	strb.w	r3, [r4, #76]	; 0x4c
   b629a:	9b0e      	ldr	r3, [sp, #56]	; 0x38
   b629c:	6523      	str	r3, [r4, #80]	; 0x50
   b629e:	f8bd 303c 	ldrh.w	r3, [sp, #60]	; 0x3c
   b62a2:	9a04      	ldr	r2, [sp, #16]
   b62a4:	f8a4 3054 	strh.w	r3, [r4, #84]	; 0x54
   b62a8:	9b10      	ldr	r3, [sp, #64]	; 0x40
   b62aa:	62a2      	str	r2, [r4, #40]	; 0x28
   b62ac:	65a3      	str	r3, [r4, #88]	; 0x58
   b62ae:	9a05      	ldr	r2, [sp, #20]
   b62b0:	9b11      	ldr	r3, [sp, #68]	; 0x44
   b62b2:	62e2      	str	r2, [r4, #44]	; 0x2c
   b62b4:	65e3      	str	r3, [r4, #92]	; 0x5c
   b62b6:	9a06      	ldr	r2, [sp, #24]
   b62b8:	9b12      	ldr	r3, [sp, #72]	; 0x48
   b62ba:	6322      	str	r2, [r4, #48]	; 0x30
   b62bc:	6623      	str	r3, [r4, #96]	; 0x60
   b62be:	9a07      	ldr	r2, [sp, #28]
   b62c0:	9b13      	ldr	r3, [sp, #76]	; 0x4c
   b62c2:	6362      	str	r2, [r4, #52]	; 0x34
   b62c4:	6663      	str	r3, [r4, #100]	; 0x64
      _pages = (HEIGHT / _page_height) + ((HEIGHT % _page_height) > 0);
   b62c6:	f9b4 100a 	ldrsh.w	r1, [r4, #10]
#ifndef _GxEPD2_420c_H_
#define _GxEPD2_420c_H_

#include "../GxEPD2_EPD.h"

class GxEPD2_420c : public GxEPD2_EPD
   b62ca:	4b14      	ldr	r3, [pc, #80]	; (b631c <_GLOBAL__sub_I_SystemMode+0xec>)
   b62cc:	6263      	str	r3, [r4, #36]	; 0x24
      _page_height = page_height;
   b62ce:	f44f 7096 	mov.w	r0, #300	; 0x12c
   b62d2:	f504 43e0 	add.w	r3, r4, #28672	; 0x7000
      _pages = (HEIGHT / _page_height) + ((HEIGHT % _page_height) > 0);
   b62d6:	fb91 f2f0 	sdiv	r2, r1, r0
   b62da:	fb00 1112 	mls	r1, r0, r2, r1
   b62de:	42a9      	cmp	r1, r5
   b62e0:	bfc8      	it	gt
   b62e2:	3201      	addgt	r2, #1
      _page_height = page_height;
   b62e4:	f8a3 05a4 	strh.w	r0, [r3, #1444]	; 0x5a4
      _pages = (HEIGHT / _page_height) + ((HEIGHT % _page_height) > 0);
   b62e8:	f8a3 25a2 	strh.w	r2, [r3, #1442]	; 0x5a2
      _mirror = false;
   b62ec:	f883 559a 	strb.w	r5, [r3, #1434]	; 0x59a
      _using_partial_mode = false;
   b62f0:	f883 5598 	strb.w	r5, [r3, #1432]	; 0x598
      _current_page = 0;
   b62f4:	f8a3 55a0 	strh.w	r5, [r3, #1440]	; 0x5a0
      setFullWindow();
   b62f8:	4620      	mov	r0, r4
   b62fa:	f7fe ff56 	bl	b51aa <_ZN9GxEPD2_3CI11GxEPD2_420cLt300EE13setFullWindowEv>
class BitmapDisplay
{
  private:
    GxEPD2_GFX& display;
  public:
    BitmapDisplay(GxEPD2_GFX& _display) : display(_display) {};
   b62fe:	4b08      	ldr	r3, [pc, #32]	; (b6320 <_GLOBAL__sub_I_SystemMode+0xf0>)
   b6300:	601c      	str	r4, [r3, #0]
}
   b6302:	b015      	add	sp, #84	; 0x54
   b6304:	bd30      	pop	{r4, r5, pc}
   b6306:	bf00      	nop
   b6308:	200370dc 	.word	0x200370dc
   b630c:	ffff0000 	.word	0xffff0000
   b6310:	200370ec 	.word	0x200370ec
   b6314:	000d6ce4 	.word	0x000d6ce4
   b6318:	000d6cd0 	.word	0x000d6cd0
   b631c:	000d7a98 	.word	0x000d7a98
   b6320:	200370e8 	.word	0x200370e8

000b6324 <_ZN12Adafruit_GFX9writeLineEsssst>:
    @param    y1  End point y coordinate
    @param    color 16-bit 5-6-5 Color to draw with
*/
/**************************************************************************/
void Adafruit_GFX::writeLine(int16_t x0, int16_t y0, int16_t x1, int16_t y1,
        uint16_t color) {
   b6324:	e92d 4ff0 	stmdb	sp!, {r4, r5, r6, r7, r8, r9, sl, fp, lr}
   b6328:	b085      	sub	sp, #20
   b632a:	461f      	mov	r7, r3
   b632c:	f9bd 8038 	ldrsh.w	r8, [sp, #56]	; 0x38
   b6330:	f8bd 303c 	ldrh.w	r3, [sp, #60]	; 0x3c
    int16_t steep = abs(y1 - y0) > abs(x1 - x0);
   b6334:	eba8 0902 	sub.w	r9, r8, r2
   b6338:	eba7 0a01 	sub.w	sl, r7, r1
   b633c:	f1b9 0f00 	cmp.w	r9, #0
   b6340:	bfb8      	it	lt
   b6342:	f1c9 0900 	rsblt	r9, r9, #0
   b6346:	f1ba 0f00 	cmp.w	sl, #0
   b634a:	bfb8      	it	lt
   b634c:	f1ca 0a00 	rsblt	sl, sl, #0
    if (steep) {
   b6350:	45d1      	cmp	r9, sl
        uint16_t color) {
   b6352:	4683      	mov	fp, r0
   b6354:	460c      	mov	r4, r1
   b6356:	4615      	mov	r5, r2
    if (steep) {
   b6358:	dd04      	ble.n	b6364 <_ZN12Adafruit_GFX9writeLineEsssst+0x40>
   b635a:	463a      	mov	r2, r7
        _swap_int16_t(x0, y0);
   b635c:	462c      	mov	r4, r5
        _swap_int16_t(x1, y1);
   b635e:	4647      	mov	r7, r8
        _swap_int16_t(x0, y0);
   b6360:	460d      	mov	r5, r1
        _swap_int16_t(x1, y1);
   b6362:	4690      	mov	r8, r2
    }

    if (x0 > x1) {
   b6364:	42bc      	cmp	r4, r7
   b6366:	dd05      	ble.n	b6374 <_ZN12Adafruit_GFX9writeLineEsssst+0x50>
   b6368:	462a      	mov	r2, r5
        _swap_int16_t(x0, x1);
        _swap_int16_t(y0, y1);
   b636a:	4645      	mov	r5, r8
   b636c:	4690      	mov	r8, r2
    if (x0 > x1) {
   b636e:	4622      	mov	r2, r4
   b6370:	463c      	mov	r4, r7
   b6372:	4617      	mov	r7, r2
    }

    int16_t dx, dy;
    dx = x1 - x0;
   b6374:	1b3e      	subs	r6, r7, r4
   b6376:	b2b2      	uxth	r2, r6
   b6378:	9200      	str	r2, [sp, #0]
    dy = abs(y1 - y0);
   b637a:	eba8 0205 	sub.w	r2, r8, r5
   b637e:	ea82 71e2 	eor.w	r1, r2, r2, asr #31
   b6382:	eba1 71e2 	sub.w	r1, r1, r2, asr #31

    int16_t err = dx / 2;
   b6386:	f3c6 32c0 	ubfx	r2, r6, #15, #1
   b638a:	fa02 f686 	sxtah	r6, r2, r6
    int16_t ystep;

    if (y0 < y1) {
        ystep = 1;
    } else {
        ystep = -1;
   b638e:	4545      	cmp	r5, r8
   b6390:	bfb4      	ite	lt
   b6392:	2201      	movlt	r2, #1
   b6394:	f04f 32ff 	movge.w	r2, #4294967295
    dy = abs(y1 - y0);
   b6398:	9101      	str	r1, [sp, #4]
    int16_t err = dx / 2;
   b639a:	1076      	asrs	r6, r6, #1
        ystep = -1;
   b639c:	9202      	str	r2, [sp, #8]
    }

    for (; x0<=x1; x0++) {
   b639e:	42bc      	cmp	r4, r7
   b63a0:	dc1c      	bgt.n	b63dc <_ZN12Adafruit_GFX9writeLineEsssst+0xb8>
        if (steep) {
            writePixel(y0, x0, color);
   b63a2:	f8db 2000 	ldr.w	r2, [fp]
   b63a6:	9303      	str	r3, [sp, #12]
        if (steep) {
   b63a8:	45d1      	cmp	r9, sl
            writePixel(y0, x0, color);
   b63aa:	f8d2 8018 	ldr.w	r8, [r2, #24]
   b63ae:	bfc7      	ittee	gt
   b63b0:	4629      	movgt	r1, r5
   b63b2:	4622      	movgt	r2, r4
        } else {
            writePixel(x0, y0, color);
   b63b4:	462a      	movle	r2, r5
   b63b6:	4621      	movle	r1, r4
   b63b8:	4658      	mov	r0, fp
   b63ba:	47c0      	blx	r8
        }
        err -= dy;
   b63bc:	9a01      	ldr	r2, [sp, #4]
            writePixel(x0, y0, color);
   b63be:	9b03      	ldr	r3, [sp, #12]
        err -= dy;
   b63c0:	1ab6      	subs	r6, r6, r2
   b63c2:	b2b1      	uxth	r1, r6
   b63c4:	b236      	sxth	r6, r6
        if (err < 0) {
   b63c6:	2e00      	cmp	r6, #0
   b63c8:	da05      	bge.n	b63d6 <_ZN12Adafruit_GFX9writeLineEsssst+0xb2>
            y0 += ystep;
   b63ca:	9a02      	ldr	r2, [sp, #8]
   b63cc:	4415      	add	r5, r2
            err += dx;
   b63ce:	9a00      	ldr	r2, [sp, #0]
   b63d0:	1856      	adds	r6, r2, r1
            y0 += ystep;
   b63d2:	b22d      	sxth	r5, r5
            err += dx;
   b63d4:	b236      	sxth	r6, r6
    for (; x0<=x1; x0++) {
   b63d6:	3401      	adds	r4, #1
   b63d8:	b224      	sxth	r4, r4
   b63da:	e7e0      	b.n	b639e <_ZN12Adafruit_GFX9writeLineEsssst+0x7a>
        }
    }
}
   b63dc:	b005      	add	sp, #20
   b63de:	e8bd 8ff0 	ldmia.w	sp!, {r4, r5, r6, r7, r8, r9, sl, fp, pc}

000b63e2 <_ZN12Adafruit_GFX10startWriteEv>:
/*!
   @brief    Start a display-writing routine, overwrite in subclasses.
*/
/**************************************************************************/
void Adafruit_GFX::startWrite(){
}
   b63e2:	4770      	bx	lr

000b63e4 <_ZN12Adafruit_GFX10writePixelEsst>:
    @param   x   x coordinate
    @param   y   y coordinate
   @param    color 16-bit 5-6-5 Color to fill with
*/
/**************************************************************************/
void Adafruit_GFX::writePixel(int16_t x, int16_t y, uint16_t color){
   b63e4:	b410      	push	{r4}
    drawPixel(x, y, color);
   b63e6:	6804      	ldr	r4, [r0, #0]
   b63e8:	6924      	ldr	r4, [r4, #16]
   b63ea:	46a4      	mov	ip, r4
}
   b63ec:	f85d 4b04 	ldr.w	r4, [sp], #4
    drawPixel(x, y, color);
   b63f0:	4760      	bx	ip

000b63f2 <_ZN12Adafruit_GFX14writeFastVLineEssst>:
    @param    h   Height in pixels
   @param    color 16-bit 5-6-5 Color to fill with
*/
/**************************************************************************/
void Adafruit_GFX::writeFastVLine(int16_t x, int16_t y,
        int16_t h, uint16_t color) {
   b63f2:	b430      	push	{r4, r5}
    // Overwrite in subclasses if startWrite is defined!
    // Can be just writeLine(x, y, x, y+h-1, color);
    // or writeFillRect(x, y, 1, h, color);
    drawFastVLine(x, y, h, color);
   b63f4:	6804      	ldr	r4, [r0, #0]
        int16_t h, uint16_t color) {
   b63f6:	f8bd 5008 	ldrh.w	r5, [sp, #8]
    drawFastVLine(x, y, h, color);
   b63fa:	9502      	str	r5, [sp, #8]
   b63fc:	6ba4      	ldr	r4, [r4, #56]	; 0x38
   b63fe:	46a4      	mov	ip, r4
}
   b6400:	bc30      	pop	{r4, r5}
    drawFastVLine(x, y, h, color);
   b6402:	4760      	bx	ip

000b6404 <_ZN12Adafruit_GFX14writeFastHLineEssst>:
    @param    w   Width in pixels
   @param    color 16-bit 5-6-5 Color to fill with
*/
/**************************************************************************/
void Adafruit_GFX::writeFastHLine(int16_t x, int16_t y,
        int16_t w, uint16_t color) {
   b6404:	b430      	push	{r4, r5}
    // Overwrite in subclasses if startWrite is defined!
    // Example: writeLine(x, y, x+w-1, y, color);
    // or writeFillRect(x, y, w, 1, color);
    drawFastHLine(x, y, w, color);
   b6406:	6804      	ldr	r4, [r0, #0]
        int16_t w, uint16_t color) {
   b6408:	f8bd 5008 	ldrh.w	r5, [sp, #8]
    drawFastHLine(x, y, w, color);
   b640c:	9502      	str	r5, [sp, #8]
   b640e:	6be4      	ldr	r4, [r4, #60]	; 0x3c
   b6410:	46a4      	mov	ip, r4
}
   b6412:	bc30      	pop	{r4, r5}
    drawFastHLine(x, y, w, color);
   b6414:	4760      	bx	ip

000b6416 <_ZN12Adafruit_GFX13writeFillRectEsssst>:
    @param    h   Height in pixels
   @param    color 16-bit 5-6-5 Color to fill with
*/
/**************************************************************************/
void Adafruit_GFX::writeFillRect(int16_t x, int16_t y, int16_t w, int16_t h,
        uint16_t color) {
   b6416:	b470      	push	{r4, r5, r6}
   b6418:	f9bd 500c 	ldrsh.w	r5, [sp, #12]
   b641c:	f8bd 6010 	ldrh.w	r6, [sp, #16]
    // Overwrite in subclasses if desired!
    fillRect(x,y,w,h,color);
   b6420:	6804      	ldr	r4, [r0, #0]
   b6422:	e9cd 5603 	strd	r5, r6, [sp, #12]
   b6426:	6c24      	ldr	r4, [r4, #64]	; 0x40
   b6428:	46a4      	mov	ip, r4
}
   b642a:	bc70      	pop	{r4, r5, r6}
    fillRect(x,y,w,h,color);
   b642c:	4760      	bx	ip

000b642e <_ZN12Adafruit_GFX13drawFastVLineEssst>:
    @param    h   Height in pixels
   @param    color 16-bit 5-6-5 Color to fill with
*/
/**************************************************************************/
void Adafruit_GFX::drawFastVLine(int16_t x, int16_t y,
        int16_t h, uint16_t color) {
   b642e:	e92d 41f3 	stmdb	sp!, {r0, r1, r4, r5, r6, r7, r8, lr}
   b6432:	461c      	mov	r4, r3
    startWrite();
   b6434:	6803      	ldr	r3, [r0, #0]
        int16_t h, uint16_t color) {
   b6436:	f8bd 8020 	ldrh.w	r8, [sp, #32]
    startWrite();
   b643a:	695b      	ldr	r3, [r3, #20]
        int16_t h, uint16_t color) {
   b643c:	4605      	mov	r5, r0
   b643e:	4616      	mov	r6, r2
    writeLine(x, y, x, y+h-1, color);
   b6440:	3c01      	subs	r4, #1
   b6442:	4434      	add	r4, r6
        int16_t h, uint16_t color) {
   b6444:	460f      	mov	r7, r1
    writeLine(x, y, x, y+h-1, color);
   b6446:	b224      	sxth	r4, r4
    startWrite();
   b6448:	4798      	blx	r3
    writeLine(x, y, x, y+h-1, color);
   b644a:	682b      	ldr	r3, [r5, #0]
   b644c:	f8cd 8004 	str.w	r8, [sp, #4]
   b6450:	9400      	str	r4, [sp, #0]
   b6452:	6a9c      	ldr	r4, [r3, #40]	; 0x28
   b6454:	4628      	mov	r0, r5
   b6456:	463b      	mov	r3, r7
   b6458:	4632      	mov	r2, r6
   b645a:	4639      	mov	r1, r7
   b645c:	47a0      	blx	r4
    endWrite();
   b645e:	682b      	ldr	r3, [r5, #0]
   b6460:	6adb      	ldr	r3, [r3, #44]	; 0x2c
   b6462:	4628      	mov	r0, r5
}
   b6464:	b002      	add	sp, #8
   b6466:	e8bd 41f0 	ldmia.w	sp!, {r4, r5, r6, r7, r8, lr}
    endWrite();
   b646a:	4718      	bx	r3

000b646c <_ZN12Adafruit_GFX13drawFastHLineEssst>:
    @param    w   Width in pixels
   @param    color 16-bit 5-6-5 Color to fill with
*/
/**************************************************************************/
void Adafruit_GFX::drawFastHLine(int16_t x, int16_t y,
        int16_t w, uint16_t color) {
   b646c:	e92d 41f3 	stmdb	sp!, {r0, r1, r4, r5, r6, r7, r8, lr}
   b6470:	461d      	mov	r5, r3
    startWrite();
   b6472:	6803      	ldr	r3, [r0, #0]
        int16_t w, uint16_t color) {
   b6474:	f8bd 8020 	ldrh.w	r8, [sp, #32]
    startWrite();
   b6478:	695b      	ldr	r3, [r3, #20]
        int16_t w, uint16_t color) {
   b647a:	4604      	mov	r4, r0
   b647c:	4617      	mov	r7, r2
   b647e:	460e      	mov	r6, r1
    startWrite();
   b6480:	4798      	blx	r3
    writeLine(x, y, x+w-1, y, color);
   b6482:	e9cd 7800 	strd	r7, r8, [sp]
   b6486:	6822      	ldr	r2, [r4, #0]
   b6488:	1e6b      	subs	r3, r5, #1
   b648a:	4433      	add	r3, r6
   b648c:	6a95      	ldr	r5, [r2, #40]	; 0x28
   b648e:	4620      	mov	r0, r4
   b6490:	b21b      	sxth	r3, r3
   b6492:	463a      	mov	r2, r7
   b6494:	4631      	mov	r1, r6
   b6496:	47a8      	blx	r5
    endWrite();
   b6498:	6823      	ldr	r3, [r4, #0]
   b649a:	6adb      	ldr	r3, [r3, #44]	; 0x2c
   b649c:	4620      	mov	r0, r4
}
   b649e:	b002      	add	sp, #8
   b64a0:	e8bd 41f0 	ldmia.w	sp!, {r4, r5, r6, r7, r8, lr}
    endWrite();
   b64a4:	4718      	bx	r3

000b64a6 <_ZN12Adafruit_GFX8fillRectEsssst>:
    @param    h   Height in pixels
   @param    color 16-bit 5-6-5 Color to fill with
*/
/**************************************************************************/
void Adafruit_GFX::fillRect(int16_t x, int16_t y, int16_t w, int16_t h,
        uint16_t color) {
   b64a6:	e92d 47f3 	stmdb	sp!, {r0, r1, r4, r5, r6, r7, r8, r9, sl, lr}
   b64aa:	461e      	mov	r6, r3
    startWrite();
   b64ac:	6803      	ldr	r3, [r0, #0]
        uint16_t color) {
   b64ae:	f9bd 9028 	ldrsh.w	r9, [sp, #40]	; 0x28
    startWrite();
   b64b2:	695b      	ldr	r3, [r3, #20]
        uint16_t color) {
   b64b4:	f8bd 802c 	ldrh.w	r8, [sp, #44]	; 0x2c
   b64b8:	460c      	mov	r4, r1
   b64ba:	4605      	mov	r5, r0
   b64bc:	4617      	mov	r7, r2
    startWrite();
   b64be:	4798      	blx	r3
    for (int16_t i=x; i<x+w; i++) {
   b64c0:	4426      	add	r6, r4
   b64c2:	42b4      	cmp	r4, r6
        writeFastVLine(i, y, h, color);
   b64c4:	682b      	ldr	r3, [r5, #0]
    for (int16_t i=x; i<x+w; i++) {
   b64c6:	da0b      	bge.n	b64e0 <_ZN12Adafruit_GFX8fillRectEsssst+0x3a>
        writeFastVLine(i, y, h, color);
   b64c8:	f8cd 8000 	str.w	r8, [sp]
   b64cc:	f8d3 a020 	ldr.w	sl, [r3, #32]
   b64d0:	4621      	mov	r1, r4
   b64d2:	464b      	mov	r3, r9
   b64d4:	463a      	mov	r2, r7
   b64d6:	4628      	mov	r0, r5
   b64d8:	3401      	adds	r4, #1
   b64da:	47d0      	blx	sl
    for (int16_t i=x; i<x+w; i++) {
   b64dc:	b224      	sxth	r4, r4
   b64de:	e7f0      	b.n	b64c2 <_ZN12Adafruit_GFX8fillRectEsssst+0x1c>
    }
    endWrite();
   b64e0:	6adb      	ldr	r3, [r3, #44]	; 0x2c
   b64e2:	4628      	mov	r0, r5
}
   b64e4:	b002      	add	sp, #8
   b64e6:	e8bd 47f0 	ldmia.w	sp!, {r4, r5, r6, r7, r8, r9, sl, lr}
    endWrite();
   b64ea:	4718      	bx	r3

000b64ec <_ZN12Adafruit_GFX10fillScreenEt>:
/*!
   @brief    Fill the screen completely with one color. Update in subclasses if desired!
    @param    color 16-bit 5-6-5 Color to fill with
*/
/**************************************************************************/
void Adafruit_GFX::fillScreen(uint16_t color) {
   b64ec:	b513      	push	{r0, r1, r4, lr}
    fillRect(0, 0, _width, _height, color);
   b64ee:	6802      	ldr	r2, [r0, #0]
   b64f0:	9101      	str	r1, [sp, #4]
   b64f2:	f9b0 100e 	ldrsh.w	r1, [r0, #14]
   b64f6:	9100      	str	r1, [sp, #0]
   b64f8:	6c14      	ldr	r4, [r2, #64]	; 0x40
   b64fa:	f9b0 300c 	ldrsh.w	r3, [r0, #12]
   b64fe:	2200      	movs	r2, #0
   b6500:	4611      	mov	r1, r2
   b6502:	47a0      	blx	r4
}
   b6504:	b002      	add	sp, #8
   b6506:	bd10      	pop	{r4, pc}

000b6508 <_ZN12Adafruit_GFX8drawLineEsssst>:
    @param    y1  End point y coordinate
    @param    color 16-bit 5-6-5 Color to draw with
*/
/**************************************************************************/
void Adafruit_GFX::drawLine(int16_t x0, int16_t y0, int16_t x1, int16_t y1,
        uint16_t color) {
   b6508:	e92d 43f7 	stmdb	sp!, {r0, r1, r2, r4, r5, r6, r7, r8, r9, lr}
    // Update in subclasses if desired!
    if(x0 == x1){
   b650c:	4299      	cmp	r1, r3
        uint16_t color) {
   b650e:	4616      	mov	r6, r2
   b6510:	f9bd 7028 	ldrsh.w	r7, [sp, #40]	; 0x28
   b6514:	f8bd 902c 	ldrh.w	r9, [sp, #44]	; 0x2c
        if(y0 > y1) _swap_int16_t(y0, y1);
        drawFastVLine(x0, y0, y1 - y0 + 1, color);
   b6518:	6802      	ldr	r2, [r0, #0]
        uint16_t color) {
   b651a:	4680      	mov	r8, r0
   b651c:	460d      	mov	r5, r1
   b651e:	461c      	mov	r4, r3
    if(x0 == x1){
   b6520:	d113      	bne.n	b654a <_ZN12Adafruit_GFX8drawLineEsssst+0x42>
        if(y0 > y1) _swap_int16_t(y0, y1);
   b6522:	42be      	cmp	r6, r7
   b6524:	bfc8      	it	gt
   b6526:	4633      	movgt	r3, r6
        drawFastVLine(x0, y0, y1 - y0 + 1, color);
   b6528:	f8cd 9028 	str.w	r9, [sp, #40]	; 0x28
        if(y0 > y1) _swap_int16_t(y0, y1);
   b652c:	bfc4      	itt	gt
   b652e:	463e      	movgt	r6, r7
   b6530:	461f      	movgt	r7, r3
        drawFastVLine(x0, y0, y1 - y0 + 1, color);
   b6532:	1c7b      	adds	r3, r7, #1
   b6534:	6b94      	ldr	r4, [r2, #56]	; 0x38
   b6536:	1b9b      	subs	r3, r3, r6
    } else if(y0 == y1){
        if(x0 > x1) _swap_int16_t(x0, x1);
        drawFastHLine(x0, y0, x1 - x0 + 1, color);
   b6538:	b21b      	sxth	r3, r3
   b653a:	4632      	mov	r2, r6
   b653c:	4629      	mov	r1, r5
   b653e:	4640      	mov	r0, r8
   b6540:	46a4      	mov	ip, r4
    } else {
        startWrite();
        writeLine(x0, y0, x1, y1, color);
        endWrite();
    }
}
   b6542:	b003      	add	sp, #12
   b6544:	e8bd 43f0 	ldmia.w	sp!, {r4, r5, r6, r7, r8, r9, lr}
        drawFastHLine(x0, y0, x1 - x0 + 1, color);
   b6548:	4760      	bx	ip
    } else if(y0 == y1){
   b654a:	42be      	cmp	r6, r7
   b654c:	d10a      	bne.n	b6564 <_ZN12Adafruit_GFX8drawLineEsssst+0x5c>
        if(x0 > x1) _swap_int16_t(x0, x1);
   b654e:	4299      	cmp	r1, r3
   b6550:	bfc2      	ittt	gt
   b6552:	460b      	movgt	r3, r1
   b6554:	4625      	movgt	r5, r4
   b6556:	461c      	movgt	r4, r3
        drawFastHLine(x0, y0, x1 - x0 + 1, color);
   b6558:	1c63      	adds	r3, r4, #1
   b655a:	f8cd 9028 	str.w	r9, [sp, #40]	; 0x28
   b655e:	6bd4      	ldr	r4, [r2, #60]	; 0x3c
   b6560:	1b5b      	subs	r3, r3, r5
   b6562:	e7e9      	b.n	b6538 <_ZN12Adafruit_GFX8drawLineEsssst+0x30>
        startWrite();
   b6564:	6953      	ldr	r3, [r2, #20]
   b6566:	4798      	blx	r3
        writeLine(x0, y0, x1, y1, color);
   b6568:	e9cd 7900 	strd	r7, r9, [sp]
   b656c:	f8d8 3000 	ldr.w	r3, [r8]
   b6570:	4640      	mov	r0, r8
   b6572:	6a9f      	ldr	r7, [r3, #40]	; 0x28
   b6574:	4632      	mov	r2, r6
   b6576:	4623      	mov	r3, r4
   b6578:	4629      	mov	r1, r5
   b657a:	47b8      	blx	r7
        endWrite();
   b657c:	f8d8 3000 	ldr.w	r3, [r8]
   b6580:	6adb      	ldr	r3, [r3, #44]	; 0x2c
   b6582:	4640      	mov	r0, r8
}
   b6584:	b003      	add	sp, #12
   b6586:	e8bd 43f0 	ldmia.w	sp!, {r4, r5, r6, r7, r8, r9, lr}
        endWrite();
   b658a:	4718      	bx	r3

000b658c <_ZN12Adafruit_GFX8drawRectEsssst>:
    @param    h   Height in pixels
    @param    color 16-bit 5-6-5 Color to draw with
*/
/**************************************************************************/
void Adafruit_GFX::drawRect(int16_t x, int16_t y, int16_t w, int16_t h,
        uint16_t color) {
   b658c:	e92d 47f3 	stmdb	sp!, {r0, r1, r4, r5, r6, r7, r8, r9, sl, lr}
   b6590:	461d      	mov	r5, r3
    startWrite();
   b6592:	6803      	ldr	r3, [r0, #0]
        uint16_t color) {
   b6594:	f8bd 802c 	ldrh.w	r8, [sp, #44]	; 0x2c
    startWrite();
   b6598:	695b      	ldr	r3, [r3, #20]
        uint16_t color) {
   b659a:	f9bd 9028 	ldrsh.w	r9, [sp, #40]	; 0x28
   b659e:	4604      	mov	r4, r0
   b65a0:	460f      	mov	r7, r1
   b65a2:	4616      	mov	r6, r2
    startWrite();
   b65a4:	4798      	blx	r3
    writeFastHLine(x, y, w, color);
   b65a6:	6823      	ldr	r3, [r4, #0]
   b65a8:	f8cd 8000 	str.w	r8, [sp]
   b65ac:	f8d3 a024 	ldr.w	sl, [r3, #36]	; 0x24
   b65b0:	4632      	mov	r2, r6
   b65b2:	462b      	mov	r3, r5
   b65b4:	4639      	mov	r1, r7
   b65b6:	4620      	mov	r0, r4
   b65b8:	47d0      	blx	sl
    writeFastHLine(x, y+h-1, w, color);
   b65ba:	6823      	ldr	r3, [r4, #0]
   b65bc:	f8cd 8000 	str.w	r8, [sp]
   b65c0:	f109 32ff 	add.w	r2, r9, #4294967295
   b65c4:	4432      	add	r2, r6
   b65c6:	f8d3 a024 	ldr.w	sl, [r3, #36]	; 0x24
   b65ca:	4639      	mov	r1, r7
   b65cc:	462b      	mov	r3, r5
   b65ce:	4620      	mov	r0, r4
   b65d0:	b212      	sxth	r2, r2
   b65d2:	47d0      	blx	sl
    writeFastVLine(x, y, h, color);
   b65d4:	6823      	ldr	r3, [r4, #0]
   b65d6:	f8cd 8000 	str.w	r8, [sp]
   b65da:	f8d3 a020 	ldr.w	sl, [r3, #32]
   b65de:	4632      	mov	r2, r6
   b65e0:	464b      	mov	r3, r9
   b65e2:	4639      	mov	r1, r7
   b65e4:	4620      	mov	r0, r4
   b65e6:	47d0      	blx	sl
    writeFastVLine(x+w-1, y, h, color);
   b65e8:	1e6b      	subs	r3, r5, #1
   b65ea:	19d9      	adds	r1, r3, r7
   b65ec:	6823      	ldr	r3, [r4, #0]
   b65ee:	f8cd 8000 	str.w	r8, [sp]
   b65f2:	6a1d      	ldr	r5, [r3, #32]
   b65f4:	4620      	mov	r0, r4
   b65f6:	464b      	mov	r3, r9
   b65f8:	4632      	mov	r2, r6
   b65fa:	b209      	sxth	r1, r1
   b65fc:	47a8      	blx	r5
    endWrite();
   b65fe:	6823      	ldr	r3, [r4, #0]
   b6600:	6adb      	ldr	r3, [r3, #44]	; 0x2c
   b6602:	4620      	mov	r0, r4
}
   b6604:	b002      	add	sp, #8
   b6606:	e8bd 47f0 	ldmia.w	sp!, {r4, r5, r6, r7, r8, r9, sl, lr}
    endWrite();
   b660a:	4718      	bx	r3

000b660c <_ZN12Adafruit_GFX13invertDisplayEb>:
    @param   i  True if you want to invert, false to make 'normal'
*/
/**************************************************************************/
void Adafruit_GFX::invertDisplay(boolean i) {
    // Do nothing, must be subclassed if supported by hardware
}
   b660c:	4770      	bx	lr

000b660e <_ZN12Adafruit_GFX11setRotationEh>:
    rotation = (x & 3);
   b660e:	f001 0303 	and.w	r3, r1, #3
            _height = HEIGHT;
   b6612:	f9b0 200a 	ldrsh.w	r2, [r0, #10]
    rotation = (x & 3);
   b6616:	7643      	strb	r3, [r0, #25]
    switch(rotation) {
   b6618:	07c9      	lsls	r1, r1, #31
            _width  = WIDTH;
   b661a:	f9b0 3008 	ldrsh.w	r3, [r0, #8]
   b661e:	bf59      	ittee	pl
   b6620:	8183      	strhpl	r3, [r0, #12]
            _height = HEIGHT;
   b6622:	81c2      	strhpl	r2, [r0, #14]
            _width  = HEIGHT;
   b6624:	8182      	strhmi	r2, [r0, #12]
            _height = WIDTH;
   b6626:	81c3      	strhmi	r3, [r0, #14]
}
   b6628:	4770      	bx	lr
	...

000b662c <_ZN12Adafruit_GFXC1Ess>:
Adafruit_GFX::Adafruit_GFX(int16_t w, int16_t h):
   b662c:	b530      	push	{r4, r5, lr}
WIDTH(w), HEIGHT(h)
   b662e:	8101      	strh	r1, [r0, #8]
    Print() : write_error(0) {}
   b6630:	2400      	movs	r4, #0
   b6632:	4d07      	ldr	r5, [pc, #28]	; (b6650 <_ZN12Adafruit_GFXC1Ess+0x24>)
   b6634:	8142      	strh	r2, [r0, #10]
    _width    = WIDTH;
   b6636:	8181      	strh	r1, [r0, #12]
    _height   = HEIGHT;
   b6638:	81c2      	strh	r2, [r0, #14]
    textsize  = 1;
   b663a:	f04f 31ff 	mov.w	r1, #4294967295
   b663e:	f04f 1201 	mov.w	r2, #65537	; 0x10001
   b6642:	e9c0 1205 	strd	r1, r2, [r0, #20]
   b6646:	6044      	str	r4, [r0, #4]
WIDTH(w), HEIGHT(h)
   b6648:	6005      	str	r5, [r0, #0]
    cursor_y  = cursor_x    = 0;
   b664a:	6104      	str	r4, [r0, #16]
    gfxFont   = NULL;
   b664c:	61c4      	str	r4, [r0, #28]
}
   b664e:	bd30      	pop	{r4, r5, pc}
   b6650:	000d79ac 	.word	0x000d79ac

000b6654 <_ZN12Adafruit_GFX8drawCharEsshtth>:
  uint16_t color, uint16_t bg, uint8_t size) {
   b6654:	e92d 4ff0 	stmdb	sp!, {r4, r5, r6, r7, r8, r9, sl, fp, lr}
   b6658:	ed2d 8b02 	vpush	{d8}
   b665c:	b091      	sub	sp, #68	; 0x44
   b665e:	4616      	mov	r6, r2
    if(!gfxFont) { // 'Classic' built-in font
   b6660:	69c2      	ldr	r2, [r0, #28]
  uint16_t color, uint16_t bg, uint8_t size) {
   b6662:	f8bd 7074 	ldrh.w	r7, [sp, #116]	; 0x74
   b6666:	f89d 4078 	ldrb.w	r4, [sp, #120]	; 0x78
   b666a:	4698      	mov	r8, r3
   b666c:	f8bd 3070 	ldrh.w	r3, [sp, #112]	; 0x70
   b6670:	9302      	str	r3, [sp, #8]
   b6672:	4682      	mov	sl, r0
   b6674:	460d      	mov	r5, r1
    if(!gfxFont) { // 'Classic' built-in font
   b6676:	2a00      	cmp	r2, #0
   b6678:	f040 80b8 	bne.w	b67ec <_ZN12Adafruit_GFX8drawCharEsshtth+0x198>
        if((x >= _width)            || // Clip right
   b667c:	f9b0 300c 	ldrsh.w	r3, [r0, #12]
   b6680:	428b      	cmp	r3, r1
   b6682:	f340 813d 	ble.w	b6900 <_ZN12Adafruit_GFX8drawCharEsshtth+0x2ac>
   b6686:	f9b0 300e 	ldrsh.w	r3, [r0, #14]
   b668a:	42b3      	cmp	r3, r6
   b668c:	f340 8138 	ble.w	b6900 <_ZN12Adafruit_GFX8drawCharEsshtth+0x2ac>
           ((x + 6 * size - 1) < 0) || // Clip left
   b6690:	2306      	movs	r3, #6
   b6692:	fb13 1304 	smlabb	r3, r3, r4, r1
           (y >= _height)           || // Clip bottom
   b6696:	2b00      	cmp	r3, #0
   b6698:	f340 8132 	ble.w	b6900 <_ZN12Adafruit_GFX8drawCharEsshtth+0x2ac>
           ((y + 8 * size - 1) < 0))   // Clip top
   b669c:	eb06 03c4 	add.w	r3, r6, r4, lsl #3
           ((x + 6 * size - 1) < 0) || // Clip left
   b66a0:	2b00      	cmp	r3, #0
   b66a2:	f340 812d 	ble.w	b6900 <_ZN12Adafruit_GFX8drawCharEsshtth+0x2ac>
        if(!_cp437 && (c >= 176)) c++; // Handle 'classic' charset behavior
   b66a6:	7ec3      	ldrb	r3, [r0, #27]
   b66a8:	b933      	cbnz	r3, b66b8 <_ZN12Adafruit_GFX8drawCharEsshtth+0x64>
   b66aa:	f1b8 0faf 	cmp.w	r8, #175	; 0xaf
   b66ae:	bf84      	itt	hi
   b66b0:	f108 0801 	addhi.w	r8, r8, #1
   b66b4:	fa5f f888 	uxtbhi.w	r8, r8
        startWrite();
   b66b8:	f8da 3000 	ldr.w	r3, [sl]
   b66bc:	4650      	mov	r0, sl
   b66be:	695b      	ldr	r3, [r3, #20]
   b66c0:	4798      	blx	r3
            uint8_t line = pgm_read_byte(&font[c * 5 + i]);
   b66c2:	2305      	movs	r3, #5
   b66c4:	9309      	str	r3, [sp, #36]	; 0x24
   b66c6:	4b91      	ldr	r3, [pc, #580]	; (b690c <_ZN12Adafruit_GFX8drawCharEsshtth+0x2b8>)
   b66c8:	eb08 0888 	add.w	r8, r8, r8, lsl #2
   b66cc:	4443      	add	r3, r8
   b66ce:	930b      	str	r3, [sp, #44]	; 0x2c
   b66d0:	b2b3      	uxth	r3, r6
   b66d2:	9307      	str	r3, [sp, #28]
   b66d4:	3308      	adds	r3, #8
   b66d6:	b29b      	uxth	r3, r3
        for(int8_t i=0; i<5; i++ ) { // Char bitmap = 5 columns
   b66d8:	f04f 0900 	mov.w	r9, #0
   b66dc:	930a      	str	r3, [sp, #40]	; 0x28
            uint8_t line = pgm_read_byte(&font[c * 5 + i]);
   b66de:	9b0b      	ldr	r3, [sp, #44]	; 0x2c
   b66e0:	f813 3009 	ldrb.w	r3, [r3, r9]
   b66e4:	9306      	str	r3, [sp, #24]
                        writeFillRect(x+i*size, y+j*size, size, size, bg);
   b66e6:	fb09 f804 	mul.w	r8, r9, r4
   b66ea:	b2a3      	uxth	r3, r4
   b66ec:	fa18 f885 	uxtah	r8, r8, r5
   b66f0:	9305      	str	r3, [sp, #20]
   b66f2:	b2ab      	uxth	r3, r5
   b66f4:	9308      	str	r3, [sp, #32]
   b66f6:	fa0f f388 	sxth.w	r3, r8
   b66fa:	ee08 3a10 	vmov	s16, r3
   b66fe:	9b07      	ldr	r3, [sp, #28]
   b6700:	9303      	str	r3, [sp, #12]
   b6702:	4698      	mov	r8, r3
   b6704:	b223      	sxth	r3, r4
   b6706:	9304      	str	r3, [sp, #16]
                        writePixel(x+i, y+j, bg);
   b6708:	eb09 0305 	add.w	r3, r9, r5
   b670c:	b21b      	sxth	r3, r3
   b670e:	ee08 3a90 	vmov	s17, r3
                if(line & 1) {
   b6712:	9a06      	ldr	r2, [sp, #24]
                        writePixel(x+i, y+j, color);
   b6714:	f8da 3000 	ldr.w	r3, [sl]
                if(line & 1) {
   b6718:	07d1      	lsls	r1, r2, #31
   b671a:	d54b      	bpl.n	b67b4 <_ZN12Adafruit_GFX8drawCharEsshtth+0x160>
                    if(size == 1)
   b671c:	2c01      	cmp	r4, #1
   b671e:	d13b      	bne.n	b6798 <_ZN12Adafruit_GFX8drawCharEsshtth+0x144>
                        writePixel(x+i, y+j, color);
   b6720:	f8d3 b018 	ldr.w	fp, [r3, #24]
   b6724:	9b02      	ldr	r3, [sp, #8]
                        writePixel(x+i, y+j, bg);
   b6726:	ee18 1a90 	vmov	r1, s17
   b672a:	fa0f f288 	sxth.w	r2, r8
   b672e:	4650      	mov	r0, sl
   b6730:	47d8      	blx	fp
            for(int8_t j=0; j<8; j++, line >>= 1) {
   b6732:	9b06      	ldr	r3, [sp, #24]
   b6734:	9a05      	ldr	r2, [sp, #20]
   b6736:	085b      	lsrs	r3, r3, #1
   b6738:	9306      	str	r3, [sp, #24]
   b673a:	9b03      	ldr	r3, [sp, #12]
   b673c:	4413      	add	r3, r2
   b673e:	b29b      	uxth	r3, r3
   b6740:	9303      	str	r3, [sp, #12]
   b6742:	f108 0301 	add.w	r3, r8, #1
   b6746:	fa1f f883 	uxth.w	r8, r3
   b674a:	9b0a      	ldr	r3, [sp, #40]	; 0x28
   b674c:	4543      	cmp	r3, r8
   b674e:	d1e0      	bne.n	b6712 <_ZN12Adafruit_GFX8drawCharEsshtth+0xbe>
        for(int8_t i=0; i<5; i++ ) { // Char bitmap = 5 columns
   b6750:	f109 0301 	add.w	r3, r9, #1
   b6754:	fa4f f983 	sxtb.w	r9, r3
   b6758:	9b09      	ldr	r3, [sp, #36]	; 0x24
   b675a:	3b01      	subs	r3, #1
   b675c:	f013 03ff 	ands.w	r3, r3, #255	; 0xff
   b6760:	9309      	str	r3, [sp, #36]	; 0x24
   b6762:	d1bc      	bne.n	b66de <_ZN12Adafruit_GFX8drawCharEsshtth+0x8a>
        if(bg != color) { // If opaque, draw vertical line for last column
   b6764:	9b02      	ldr	r3, [sp, #8]
   b6766:	42bb      	cmp	r3, r7
   b6768:	d00c      	beq.n	b6784 <_ZN12Adafruit_GFX8drawCharEsshtth+0x130>
            if(size == 1) writeFastVLine(x+5, y, 8, bg);
   b676a:	2c01      	cmp	r4, #1
   b676c:	f8da 2000 	ldr.w	r2, [sl]
   b6770:	d12b      	bne.n	b67ca <_ZN12Adafruit_GFX8drawCharEsshtth+0x176>
   b6772:	9908      	ldr	r1, [sp, #32]
   b6774:	9700      	str	r7, [sp, #0]
   b6776:	3105      	adds	r1, #5
   b6778:	6a14      	ldr	r4, [r2, #32]
   b677a:	2308      	movs	r3, #8
   b677c:	4632      	mov	r2, r6
   b677e:	b209      	sxth	r1, r1
   b6780:	4650      	mov	r0, sl
   b6782:	47a0      	blx	r4
        endWrite();
   b6784:	f8da 3000 	ldr.w	r3, [sl]
   b6788:	6adb      	ldr	r3, [r3, #44]	; 0x2c
   b678a:	4650      	mov	r0, sl
}
   b678c:	b011      	add	sp, #68	; 0x44
   b678e:	ecbd 8b02 	vpop	{d8}
   b6792:	e8bd 4ff0 	ldmia.w	sp!, {r4, r5, r6, r7, r8, r9, sl, fp, lr}
        endWrite();
   b6796:	4718      	bx	r3
                        writeFillRect(x+i*size, y+j*size, size, size, color);
   b6798:	9a02      	ldr	r2, [sp, #8]
   b679a:	9201      	str	r2, [sp, #4]
                        writeFillRect(x+i*size, y+j*size, size, size, bg);
   b679c:	9a04      	ldr	r2, [sp, #16]
   b679e:	9200      	str	r2, [sp, #0]
   b67a0:	f8d3 b01c 	ldr.w	fp, [r3, #28]
   b67a4:	ee18 1a10 	vmov	r1, s16
   b67a8:	4613      	mov	r3, r2
   b67aa:	4650      	mov	r0, sl
   b67ac:	f9bd 200c 	ldrsh.w	r2, [sp, #12]
   b67b0:	47d8      	blx	fp
   b67b2:	e7be      	b.n	b6732 <_ZN12Adafruit_GFX8drawCharEsshtth+0xde>
                } else if(bg != color) {
   b67b4:	9a02      	ldr	r2, [sp, #8]
   b67b6:	42ba      	cmp	r2, r7
   b67b8:	d0bb      	beq.n	b6732 <_ZN12Adafruit_GFX8drawCharEsshtth+0xde>
                    if(size == 1)
   b67ba:	2c01      	cmp	r4, #1
   b67bc:	d103      	bne.n	b67c6 <_ZN12Adafruit_GFX8drawCharEsshtth+0x172>
                        writePixel(x+i, y+j, bg);
   b67be:	f8d3 b018 	ldr.w	fp, [r3, #24]
   b67c2:	463b      	mov	r3, r7
   b67c4:	e7af      	b.n	b6726 <_ZN12Adafruit_GFX8drawCharEsshtth+0xd2>
                        writeFillRect(x+i*size, y+j*size, size, size, bg);
   b67c6:	9701      	str	r7, [sp, #4]
   b67c8:	e7e8      	b.n	b679c <_ZN12Adafruit_GFX8drawCharEsshtth+0x148>
            else          writeFillRect(x+5*size, y, size, 8*size, bg);
   b67ca:	9b05      	ldr	r3, [sp, #20]
   b67cc:	9701      	str	r7, [sp, #4]
   b67ce:	eb03 0183 	add.w	r1, r3, r3, lsl #2
   b67d2:	9b08      	ldr	r3, [sp, #32]
   b67d4:	440b      	add	r3, r1
   b67d6:	4619      	mov	r1, r3
   b67d8:	9b05      	ldr	r3, [sp, #20]
   b67da:	00db      	lsls	r3, r3, #3
   b67dc:	9300      	str	r3, [sp, #0]
   b67de:	69d5      	ldr	r5, [r2, #28]
   b67e0:	4623      	mov	r3, r4
   b67e2:	4632      	mov	r2, r6
   b67e4:	b209      	sxth	r1, r1
   b67e6:	4650      	mov	r0, sl
   b67e8:	47a8      	blx	r5
        endWrite();
   b67ea:	e7cb      	b.n	b6784 <_ZN12Adafruit_GFX8drawCharEsshtth+0x130>
        c -= (uint8_t)pgm_read_byte(&gfxFont->first);
   b67ec:	7a13      	ldrb	r3, [r2, #8]
        GFXglyph *glyph  = &(((GFXglyph *)pgm_read_pointer(&gfxFont->glyph))[c]);
   b67ee:	6851      	ldr	r1, [r2, #4]
        uint8_t  *bitmap = (uint8_t *)pgm_read_pointer(&gfxFont->bitmap);
   b67f0:	6812      	ldr	r2, [r2, #0]
   b67f2:	920a      	str	r2, [sp, #40]	; 0x28
        c -= (uint8_t)pgm_read_byte(&gfxFont->first);
   b67f4:	eba8 0803 	sub.w	r8, r8, r3
        GFXglyph *glyph  = &(((GFXglyph *)pgm_read_pointer(&gfxFont->glyph))[c]);
   b67f8:	fa5f f888 	uxtb.w	r8, r8
   b67fc:	eb01 03c8 	add.w	r3, r1, r8, lsl #3
        uint16_t bo = pgm_read_word(&glyph->bitmapOffset);
   b6800:	f831 b038 	ldrh.w	fp, [r1, r8, lsl #3]
        uint8_t  w  = pgm_read_byte(&glyph->width),
   b6804:	789a      	ldrb	r2, [r3, #2]
                 yo = pgm_read_byte(&glyph->yOffset);
   b6806:	f993 8006 	ldrsb.w	r8, [r3, #6]
        uint8_t  w  = pgm_read_byte(&glyph->width),
   b680a:	920b      	str	r2, [sp, #44]	; 0x2c
        if(size > 1) {
   b680c:	2c01      	cmp	r4, #1
                 h  = pgm_read_byte(&glyph->height);
   b680e:	78da      	ldrb	r2, [r3, #3]
   b6810:	920c      	str	r2, [sp, #48]	; 0x30
        int8_t   xo = pgm_read_byte(&glyph->xOffset),
   b6812:	f993 2005 	ldrsb.w	r2, [r3, #5]
   b6816:	9206      	str	r2, [sp, #24]
        int16_t  xo16 = 0, yo16 = 0;
   b6818:	bf95      	itete	ls
   b681a:	2300      	movls	r3, #0
            yo16 = yo;
   b681c:	fa0f f388 	sxthhi.w	r3, r8
        int16_t  xo16 = 0, yo16 = 0;
   b6820:	461f      	movls	r7, r3
            yo16 = yo;
   b6822:	9303      	strhi	r3, [sp, #12]
        int16_t  xo16 = 0, yo16 = 0;
   b6824:	bf98      	it	ls
   b6826:	9303      	strls	r3, [sp, #12]
        startWrite();
   b6828:	6803      	ldr	r3, [r0, #0]
            xo16 = xo;
   b682a:	bf88      	it	hi
   b682c:	f9bd 7018 	ldrshhi.w	r7, [sp, #24]
        startWrite();
   b6830:	695b      	ldr	r3, [r3, #20]
   b6832:	4798      	blx	r3
        for(yy=0; yy<h; yy++) {
   b6834:	4367      	muls	r7, r4
                        writeFillRect(x+(xo16+xx)*size, y+(yo16+yy)*size,
   b6836:	b2a3      	uxth	r3, r4
   b6838:	9305      	str	r3, [sp, #20]
   b683a:	b2ab      	uxth	r3, r5
   b683c:	fa17 f585 	uxtah	r5, r7, r5
   b6840:	b2b2      	uxth	r2, r6
   b6842:	9307      	str	r3, [sp, #28]
   b6844:	b2ab      	uxth	r3, r5
   b6846:	9309      	str	r3, [sp, #36]	; 0x24
   b6848:	920e      	str	r2, [sp, #56]	; 0x38
        uint8_t  xx, yy, bits = 0, bit = 0;
   b684a:	2300      	movs	r3, #0
                        writePixel(x+xo+xx, y+yo+yy, color);
   b684c:	fa18 f286 	uxtah	r2, r8, r6
        uint8_t  xx, yy, bits = 0, bit = 0;
   b6850:	461f      	mov	r7, r3
        for(yy=0; yy<h; yy++) {
   b6852:	461d      	mov	r5, r3
                        writePixel(x+xo+xx, y+yo+yy, color);
   b6854:	920f      	str	r2, [sp, #60]	; 0x3c
        for(yy=0; yy<h; yy++) {
   b6856:	9a0c      	ldr	r2, [sp, #48]	; 0x30
   b6858:	4295      	cmp	r5, r2
   b685a:	d293      	bcs.n	b6784 <_ZN12Adafruit_GFX8drawCharEsshtth+0x130>
                        writeFillRect(x+(xo16+xx)*size, y+(yo16+yy)*size,
   b685c:	9a03      	ldr	r2, [sp, #12]
   b685e:	990e      	ldr	r1, [sp, #56]	; 0x38
   b6860:	9805      	ldr	r0, [sp, #20]
   b6862:	f8dd 8024 	ldr.w	r8, [sp, #36]	; 0x24
   b6866:	442a      	add	r2, r5
   b6868:	fb02 1200 	mla	r2, r2, r0, r1
   b686c:	b212      	sxth	r2, r2
   b686e:	ee08 2a10 	vmov	s16, r2
   b6872:	e9dd 1206 	ldrd	r1, r2, [sp, #24]
   b6876:	1856      	adds	r6, r2, r1
   b6878:	b2b2      	uxth	r2, r6
   b687a:	9204      	str	r2, [sp, #16]
   b687c:	9a0b      	ldr	r2, [sp, #44]	; 0x2c
   b687e:	189a      	adds	r2, r3, r2
   b6880:	b2d2      	uxtb	r2, r2
   b6882:	9208      	str	r2, [sp, #32]
                        writePixel(x+xo+xx, y+yo+yy, color);
   b6884:	9a0f      	ldr	r2, [sp, #60]	; 0x3c
   b6886:	eb02 0905 	add.w	r9, r2, r5
   b688a:	fa0f f989 	sxth.w	r9, r9
            for(xx=0; xx<w; xx++) {
   b688e:	9a08      	ldr	r2, [sp, #32]
   b6890:	429a      	cmp	r2, r3
   b6892:	d032      	beq.n	b68fa <_ZN12Adafruit_GFX8drawCharEsshtth+0x2a6>
                if(!(bit++ & 7)) {
   b6894:	1c5a      	adds	r2, r3, #1
   b6896:	b2d2      	uxtb	r2, r2
   b6898:	920d      	str	r2, [sp, #52]	; 0x34
   b689a:	075a      	lsls	r2, r3, #29
                    bits = pgm_read_byte(&bitmap[bo++]);
   b689c:	bf01      	itttt	eq
   b689e:	9a0a      	ldreq	r2, [sp, #40]	; 0x28
   b68a0:	f812 700b 	ldrbeq.w	r7, [r2, fp]
   b68a4:	f10b 0301 	addeq.w	r3, fp, #1
   b68a8:	fa1f fb83 	uxtheq.w	fp, r3
                if(bits & 0x80) {
   b68ac:	063b      	lsls	r3, r7, #24
   b68ae:	d50b      	bpl.n	b68c8 <_ZN12Adafruit_GFX8drawCharEsshtth+0x274>
                    if(size == 1) {
   b68b0:	2c01      	cmp	r4, #1
                        writePixel(x+xo+xx, y+yo+yy, color);
   b68b2:	f8da 2000 	ldr.w	r2, [sl]
                    if(size == 1) {
   b68b6:	d113      	bne.n	b68e0 <_ZN12Adafruit_GFX8drawCharEsshtth+0x28c>
                        writePixel(x+xo+xx, y+yo+yy, color);
   b68b8:	6993      	ldr	r3, [r2, #24]
   b68ba:	f9bd 1010 	ldrsh.w	r1, [sp, #16]
   b68be:	461e      	mov	r6, r3
   b68c0:	464a      	mov	r2, r9
   b68c2:	9b02      	ldr	r3, [sp, #8]
   b68c4:	4650      	mov	r0, sl
   b68c6:	47b0      	blx	r6
                bits <<= 1;
   b68c8:	9e04      	ldr	r6, [sp, #16]
   b68ca:	3601      	adds	r6, #1
   b68cc:	b2b3      	uxth	r3, r6
   b68ce:	9304      	str	r3, [sp, #16]
   b68d0:	9b05      	ldr	r3, [sp, #20]
   b68d2:	007f      	lsls	r7, r7, #1
   b68d4:	4498      	add	r8, r3
   b68d6:	b2ff      	uxtb	r7, r7
                if(!(bit++ & 7)) {
   b68d8:	9b0d      	ldr	r3, [sp, #52]	; 0x34
   b68da:	fa1f f888 	uxth.w	r8, r8
            for(xx=0; xx<w; xx++) {
   b68de:	e7d6      	b.n	b688e <_ZN12Adafruit_GFX8drawCharEsshtth+0x23a>
                        writeFillRect(x+(xo16+xx)*size, y+(yo16+yy)*size,
   b68e0:	9902      	ldr	r1, [sp, #8]
   b68e2:	b223      	sxth	r3, r4
   b68e4:	e9cd 3100 	strd	r3, r1, [sp]
   b68e8:	69d2      	ldr	r2, [r2, #28]
   b68ea:	fa0f f188 	sxth.w	r1, r8
   b68ee:	4616      	mov	r6, r2
   b68f0:	4650      	mov	r0, sl
   b68f2:	ee18 2a10 	vmov	r2, s16
   b68f6:	47b0      	blx	r6
   b68f8:	e7e6      	b.n	b68c8 <_ZN12Adafruit_GFX8drawCharEsshtth+0x274>
        for(yy=0; yy<h; yy++) {
   b68fa:	3501      	adds	r5, #1
   b68fc:	b2ed      	uxtb	r5, r5
   b68fe:	e7aa      	b.n	b6856 <_ZN12Adafruit_GFX8drawCharEsshtth+0x202>
}
   b6900:	b011      	add	sp, #68	; 0x44
   b6902:	ecbd 8b02 	vpop	{d8}
   b6906:	e8bd 8ff0 	ldmia.w	sp!, {r4, r5, r6, r7, r8, r9, sl, fp, pc}
   b690a:	bf00      	nop
   b690c:	000d74a4 	.word	0x000d74a4

000b6910 <_ZN12Adafruit_GFX5writeEh>:
size_t Adafruit_GFX::write(uint8_t c) {
   b6910:	b57f      	push	{r0, r1, r2, r3, r4, r5, r6, lr}
    if(!gfxFont) { // 'Classic' built-in font
   b6912:	69c2      	ldr	r2, [r0, #28]
size_t Adafruit_GFX::write(uint8_t c) {
   b6914:	4604      	mov	r4, r0
   b6916:	460b      	mov	r3, r1
    if(!gfxFont) { // 'Classic' built-in font
   b6918:	2a00      	cmp	r2, #0
   b691a:	d132      	bne.n	b6982 <_ZN12Adafruit_GFX5writeEh+0x72>
        if(c == '\n') {                        // Newline?
   b691c:	290a      	cmp	r1, #10
   b691e:	d108      	bne.n	b6932 <_ZN12Adafruit_GFX5writeEh+0x22>
            cursor_y += textsize * 8;          // advance y one line
   b6920:	8a43      	ldrh	r3, [r0, #18]
            cursor_x  = 0;                     // Reset x to zero,
   b6922:	8202      	strh	r2, [r0, #16]
            cursor_y += textsize * 8;          // advance y one line
   b6924:	7e02      	ldrb	r2, [r0, #24]
   b6926:	eb03 03c2 	add.w	r3, r3, r2, lsl #3
            cursor_y += (int16_t)textsize *
   b692a:	8263      	strh	r3, [r4, #18]
}
   b692c:	2001      	movs	r0, #1
   b692e:	b004      	add	sp, #16
   b6930:	bd70      	pop	{r4, r5, r6, pc}
        } else if(c != '\r') {                 // Ignore carriage returns
   b6932:	290d      	cmp	r1, #13
   b6934:	d0fa      	beq.n	b692c <_ZN12Adafruit_GFX5writeEh+0x1c>
            cursor_y += textsize * 8;          // advance y one line
   b6936:	7e01      	ldrb	r1, [r0, #24]
            if(wrap && ((cursor_x + textsize * 6) > _width)) { // Off right?
   b6938:	7e80      	ldrb	r0, [r0, #26]
   b693a:	b170      	cbz	r0, b695a <_ZN12Adafruit_GFX5writeEh+0x4a>
   b693c:	f9b4 5010 	ldrsh.w	r5, [r4, #16]
   b6940:	2006      	movs	r0, #6
   b6942:	fb10 5001 	smlabb	r0, r0, r1, r5
   b6946:	f9b4 500c 	ldrsh.w	r5, [r4, #12]
   b694a:	42a8      	cmp	r0, r5
            cursor_y += textsize * 8;          // advance y one line
   b694c:	bfc1      	itttt	gt
   b694e:	f9b4 0012 	ldrshgt.w	r0, [r4, #18]
                cursor_x  = 0;                 // Reset x to zero,
   b6952:	8222      	strhgt	r2, [r4, #16]
                cursor_y += textsize * 8;      // advance y one line
   b6954:	eb00 02c1 	addgt.w	r2, r0, r1, lsl #3
   b6958:	8262      	strhgt	r2, [r4, #18]
            drawChar(cursor_x, cursor_y, c, textcolor, textbgcolor, textsize);
   b695a:	8ae2      	ldrh	r2, [r4, #22]
   b695c:	9201      	str	r2, [sp, #4]
   b695e:	8aa2      	ldrh	r2, [r4, #20]
   b6960:	9102      	str	r1, [sp, #8]
   b6962:	9200      	str	r2, [sp, #0]
   b6964:	f9b4 1010 	ldrsh.w	r1, [r4, #16]
   b6968:	f9b4 2012 	ldrsh.w	r2, [r4, #18]
   b696c:	4620      	mov	r0, r4
   b696e:	f7ff fe71 	bl	b6654 <_ZN12Adafruit_GFX8drawCharEsshtth>
            cursor_x += textsize * 6;          // Advance x one char
   b6972:	7e23      	ldrb	r3, [r4, #24]
   b6974:	8a22      	ldrh	r2, [r4, #16]
   b6976:	eb03 0343 	add.w	r3, r3, r3, lsl #1
   b697a:	eb02 0343 	add.w	r3, r2, r3, lsl #1
                cursor_x += (uint8_t)pgm_read_byte(&glyph->xAdvance) * (int16_t)textsize;
   b697e:	8223      	strh	r3, [r4, #16]
   b6980:	e7d4      	b.n	b692c <_ZN12Adafruit_GFX5writeEh+0x1c>
        if(c == '\n') {
   b6982:	290a      	cmp	r1, #10
   b6984:	d107      	bne.n	b6996 <_ZN12Adafruit_GFX5writeEh+0x86>
            cursor_x  = 0;
   b6986:	2300      	movs	r3, #0
   b6988:	8203      	strh	r3, [r0, #16]
            cursor_y += (int16_t)textsize *
   b698a:	7e01      	ldrb	r1, [r0, #24]
                        (uint8_t)pgm_read_byte(&gfxFont->yAdvance);
   b698c:	7a92      	ldrb	r2, [r2, #10]
            cursor_y += (int16_t)textsize *
   b698e:	8a43      	ldrh	r3, [r0, #18]
   b6990:	fb01 3302 	mla	r3, r1, r2, r3
   b6994:	e7c9      	b.n	b692a <_ZN12Adafruit_GFX5writeEh+0x1a>
        } else if(c != '\r') {
   b6996:	290d      	cmp	r1, #13
   b6998:	d0c8      	beq.n	b692c <_ZN12Adafruit_GFX5writeEh+0x1c>
            uint8_t first = pgm_read_byte(&gfxFont->first);
   b699a:	7a15      	ldrb	r5, [r2, #8]
            if((c >= first) && (c <= (uint8_t)pgm_read_byte(&gfxFont->last))) {
   b699c:	42a9      	cmp	r1, r5
   b699e:	d3c5      	bcc.n	b692c <_ZN12Adafruit_GFX5writeEh+0x1c>
   b69a0:	7a51      	ldrb	r1, [r2, #9]
   b69a2:	4299      	cmp	r1, r3
   b69a4:	d3c2      	bcc.n	b692c <_ZN12Adafruit_GFX5writeEh+0x1c>
                  &gfxFont->glyph))[c - first]);
   b69a6:	6851      	ldr	r1, [r2, #4]
   b69a8:	1b5d      	subs	r5, r3, r5
   b69aa:	eb01 05c5 	add.w	r5, r1, r5, lsl #3
                uint8_t   w     = pgm_read_byte(&glyph->width),
   b69ae:	78ae      	ldrb	r6, [r5, #2]
                if((w > 0) && (h > 0)) { // Is there an associated bitmap?
   b69b0:	b31e      	cbz	r6, b69fa <_ZN12Adafruit_GFX5writeEh+0xea>
   b69b2:	78e9      	ldrb	r1, [r5, #3]
   b69b4:	b309      	cbz	r1, b69fa <_ZN12Adafruit_GFX5writeEh+0xea>
            cursor_y += textsize * 8;          // advance y one line
   b69b6:	7e01      	ldrb	r1, [r0, #24]
                    if(wrap && ((cursor_x + textsize * (xo + w)) > _width)) {
   b69b8:	7e80      	ldrb	r0, [r0, #26]
   b69ba:	b190      	cbz	r0, b69e2 <_ZN12Adafruit_GFX5writeEh+0xd2>
   b69bc:	f995 0005 	ldrsb.w	r0, [r5, #5]
   b69c0:	4406      	add	r6, r0
   b69c2:	f9b4 0010 	ldrsh.w	r0, [r4, #16]
   b69c6:	fb01 0006 	mla	r0, r1, r6, r0
   b69ca:	f9b4 600c 	ldrsh.w	r6, [r4, #12]
   b69ce:	42b0      	cmp	r0, r6
   b69d0:	dd07      	ble.n	b69e2 <_ZN12Adafruit_GFX5writeEh+0xd2>
                        cursor_x  = 0;
   b69d2:	2600      	movs	r6, #0
   b69d4:	8226      	strh	r6, [r4, #16]
            cursor_y += textsize * 8;          // advance y one line
   b69d6:	f9b4 0012 	ldrsh.w	r0, [r4, #18]
                          (uint8_t)pgm_read_byte(&gfxFont->yAdvance);
   b69da:	7a92      	ldrb	r2, [r2, #10]
                        cursor_y += (int16_t)textsize *
   b69dc:	fb02 0201 	mla	r2, r2, r1, r0
   b69e0:	8262      	strh	r2, [r4, #18]
                    drawChar(cursor_x, cursor_y, c, textcolor, textbgcolor, textsize);
   b69e2:	8ae2      	ldrh	r2, [r4, #22]
   b69e4:	9201      	str	r2, [sp, #4]
   b69e6:	8aa2      	ldrh	r2, [r4, #20]
   b69e8:	9102      	str	r1, [sp, #8]
   b69ea:	9200      	str	r2, [sp, #0]
   b69ec:	f9b4 1010 	ldrsh.w	r1, [r4, #16]
   b69f0:	f9b4 2012 	ldrsh.w	r2, [r4, #18]
   b69f4:	4620      	mov	r0, r4
   b69f6:	f7ff fe2d 	bl	b6654 <_ZN12Adafruit_GFX8drawCharEsshtth>
                cursor_x += (uint8_t)pgm_read_byte(&glyph->xAdvance) * (int16_t)textsize;
   b69fa:	7929      	ldrb	r1, [r5, #4]
   b69fc:	7e22      	ldrb	r2, [r4, #24]
   b69fe:	8a23      	ldrh	r3, [r4, #16]
   b6a00:	fb01 3302 	mla	r3, r1, r2, r3
   b6a04:	e7bb      	b.n	b697e <_ZN12Adafruit_GFX5writeEh+0x6e>

000b6a06 <_ZN12Adafruit_GFX9setCursorEss>:
    cursor_x = x;
   b6a06:	8201      	strh	r1, [r0, #16]
    cursor_y = y;
   b6a08:	8242      	strh	r2, [r0, #18]
}
   b6a0a:	4770      	bx	lr

000b6a0c <_ZN12Adafruit_GFX12setTextColorEt>:
    textcolor = textbgcolor = c;
   b6a0c:	82c1      	strh	r1, [r0, #22]
   b6a0e:	8281      	strh	r1, [r0, #20]
}
   b6a10:	4770      	bx	lr

000b6a12 <_ZNK12Adafruit_GFX11getRotationEv>:
}
   b6a12:	7e40      	ldrb	r0, [r0, #25]
   b6a14:	4770      	bx	lr

000b6a16 <_ZN12Adafruit_GFX7setFontEPK7GFXfont>:
        if(!gfxFont) { // And no current font struct?
   b6a16:	69c3      	ldr	r3, [r0, #28]
    if(f) {            // Font struct pointer passed in?
   b6a18:	b129      	cbz	r1, b6a26 <_ZN12Adafruit_GFX7setFontEPK7GFXfont+0x10>
        if(!gfxFont) { // And no current font struct?
   b6a1a:	b913      	cbnz	r3, b6a22 <_ZN12Adafruit_GFX7setFontEPK7GFXfont+0xc>
            cursor_y += 6;
   b6a1c:	8a43      	ldrh	r3, [r0, #18]
   b6a1e:	3306      	adds	r3, #6
        cursor_y -= 6;
   b6a20:	8243      	strh	r3, [r0, #18]
    gfxFont = (GFXfont *)f;
   b6a22:	61c1      	str	r1, [r0, #28]
}
   b6a24:	4770      	bx	lr
    } else if(gfxFont) { // NULL passed.  Current font struct defined?
   b6a26:	2b00      	cmp	r3, #0
   b6a28:	d0fb      	beq.n	b6a22 <_ZN12Adafruit_GFX7setFontEPK7GFXfont+0xc>
        cursor_y -= 6;
   b6a2a:	8a43      	ldrh	r3, [r0, #18]
   b6a2c:	3b06      	subs	r3, #6
   b6a2e:	e7f7      	b.n	b6a20 <_ZN12Adafruit_GFX7setFontEPK7GFXfont+0xa>

000b6a30 <_ZN12Adafruit_GFX10charBoundsEcPsS0_S0_S0_S0_S0_>:
  int16_t *minx, int16_t *miny, int16_t *maxx, int16_t *maxy) {
   b6a30:	e92d 4ff7 	stmdb	sp!, {r0, r1, r2, r4, r5, r6, r7, r8, r9, sl, fp, lr}
    if(gfxFont) {
   b6a34:	69c4      	ldr	r4, [r0, #28]
  int16_t *minx, int16_t *miny, int16_t *maxx, int16_t *maxy) {
   b6a36:	e9dd 650c 	ldrd	r6, r5, [sp, #48]	; 0x30
   b6a3a:	e9dd ec0e 	ldrd	lr, ip, [sp, #56]	; 0x38
    if(gfxFont) {
   b6a3e:	2c00      	cmp	r4, #0
   b6a40:	d072      	beq.n	b6b28 <_ZN12Adafruit_GFX10charBoundsEcPsS0_S0_S0_S0_S0_+0xf8>
        if(c == '\n') { // Newline?
   b6a42:	290a      	cmp	r1, #10
   b6a44:	d109      	bne.n	b6a5a <_ZN12Adafruit_GFX10charBoundsEcPsS0_S0_S0_S0_S0_+0x2a>
            *x  = 0;    // Reset x to zero, advance y by one line
   b6a46:	2100      	movs	r1, #0
   b6a48:	8011      	strh	r1, [r2, #0]
            *y += textsize * (uint8_t)pgm_read_byte(&gfxFont->yAdvance);
   b6a4a:	69c2      	ldr	r2, [r0, #28]
   b6a4c:	7e01      	ldrb	r1, [r0, #24]
   b6a4e:	7a94      	ldrb	r4, [r2, #10]
   b6a50:	881a      	ldrh	r2, [r3, #0]
   b6a52:	fb04 2201 	mla	r2, r4, r1, r2
            *y += textsize * 8;             // advance y one line
   b6a56:	801a      	strh	r2, [r3, #0]
   b6a58:	e063      	b.n	b6b22 <_ZN12Adafruit_GFX10charBoundsEcPsS0_S0_S0_S0_S0_+0xf2>
        } else if(c != '\r') { // Not a carriage return; is normal char
   b6a5a:	290d      	cmp	r1, #13
   b6a5c:	d061      	beq.n	b6b22 <_ZN12Adafruit_GFX10charBoundsEcPsS0_S0_S0_S0_S0_+0xf2>
            uint8_t first = pgm_read_byte(&gfxFont->first),
   b6a5e:	7a27      	ldrb	r7, [r4, #8]
            if((c >= first) && (c <= last)) { // Char present in this font?
   b6a60:	42b9      	cmp	r1, r7
   b6a62:	d35e      	bcc.n	b6b22 <_ZN12Adafruit_GFX10charBoundsEcPsS0_S0_S0_S0_S0_+0xf2>
   b6a64:	f894 8009 	ldrb.w	r8, [r4, #9]
   b6a68:	4588      	cmp	r8, r1
   b6a6a:	d35a      	bcc.n	b6b22 <_ZN12Adafruit_GFX10charBoundsEcPsS0_S0_S0_S0_S0_+0xf2>
                  &gfxFont->glyph))[c - first]);
   b6a6c:	1bc9      	subs	r1, r1, r7
   b6a6e:	6867      	ldr	r7, [r4, #4]
   b6a70:	eb07 07c1 	add.w	r7, r7, r1, lsl #3
                        gh = pgm_read_byte(&glyph->height),
   b6a74:	78fc      	ldrb	r4, [r7, #3]
                uint8_t gw = pgm_read_byte(&glyph->width),
   b6a76:	78b9      	ldrb	r1, [r7, #2]
                int8_t  xo = pgm_read_byte(&glyph->xOffset),
   b6a78:	f997 8005 	ldrsb.w	r8, [r7, #5]
                        yo = pgm_read_byte(&glyph->yOffset);
   b6a7c:	f997 9006 	ldrsb.w	r9, [r7, #6]
                        gh = pgm_read_byte(&glyph->height),
   b6a80:	9400      	str	r4, [sp, #0]
                        xa = pgm_read_byte(&glyph->xAdvance);
   b6a82:	793c      	ldrb	r4, [r7, #4]
                if(wrap && ((*x+(((int16_t)xo+gw)*textsize)) > _width)) {
   b6a84:	7e87      	ldrb	r7, [r0, #26]
                        xa = pgm_read_byte(&glyph->xAdvance);
   b6a86:	9401      	str	r4, [sp, #4]
                if(wrap && ((*x+(((int16_t)xo+gw)*textsize)) > _width)) {
   b6a88:	b1b7      	cbz	r7, b6ab8 <_ZN12Adafruit_GFX10charBoundsEcPsS0_S0_S0_S0_S0_+0x88>
   b6a8a:	f890 b018 	ldrb.w	fp, [r0, #24]
   b6a8e:	f9b2 7000 	ldrsh.w	r7, [r2]
   b6a92:	eb08 0a01 	add.w	sl, r8, r1
   b6a96:	fb0b 770a 	mla	r7, fp, sl, r7
   b6a9a:	f9b0 a00c 	ldrsh.w	sl, [r0, #12]
   b6a9e:	4557      	cmp	r7, sl
   b6aa0:	dd0a      	ble.n	b6ab8 <_ZN12Adafruit_GFX10charBoundsEcPsS0_S0_S0_S0_S0_+0x88>
                    *x  = 0; // Reset x to zero, advance y by one line
   b6aa2:	2700      	movs	r7, #0
   b6aa4:	8017      	strh	r7, [r2, #0]
                    *y += textsize * (uint8_t)pgm_read_byte(&gfxFont->yAdvance);
   b6aa6:	69c7      	ldr	r7, [r0, #28]
   b6aa8:	f890 a018 	ldrb.w	sl, [r0, #24]
   b6aac:	f897 b00a 	ldrb.w	fp, [r7, #10]
   b6ab0:	881f      	ldrh	r7, [r3, #0]
   b6ab2:	fb0b 770a 	mla	r7, fp, sl, r7
   b6ab6:	801f      	strh	r7, [r3, #0]
                        x1 = *x + xo * ts,
   b6ab8:	7e00      	ldrb	r0, [r0, #24]
   b6aba:	8817      	ldrh	r7, [r2, #0]
                        y1 = *y + yo * ts,
   b6abc:	881b      	ldrh	r3, [r3, #0]
                        x2 = x1 + gw * ts - 1,
   b6abe:	fb11 f100 	smulbb	r1, r1, r0
                        x1 = *x + xo * ts,
   b6ac2:	fb08 7800 	mla	r8, r8, r0, r7
                        x2 = x1 + gw * ts - 1,
   b6ac6:	3901      	subs	r1, #1
                        x1 = *x + xo * ts,
   b6ac8:	fa0f f788 	sxth.w	r7, r8
                        x2 = x1 + gw * ts - 1,
   b6acc:	fa11 f888 	uxtah	r8, r1, r8
                        y2 = y1 + gh * ts - 1;
   b6ad0:	9900      	ldr	r1, [sp, #0]
   b6ad2:	fb11 f400 	smulbb	r4, r1, r0
                if(x1 < *minx) *minx = x1;
   b6ad6:	f9b6 1000 	ldrsh.w	r1, [r6]
   b6ada:	42b9      	cmp	r1, r7
   b6adc:	bfc8      	it	gt
   b6ade:	8037      	strhgt	r7, [r6, #0]
                if(y1 < *miny) *miny = y1;
   b6ae0:	f9b5 1000 	ldrsh.w	r1, [r5]
                        y1 = *y + yo * ts,
   b6ae4:	fb09 3900 	mla	r9, r9, r0, r3
   b6ae8:	fa0f f389 	sxth.w	r3, r9
                if(y1 < *miny) *miny = y1;
   b6aec:	4299      	cmp	r1, r3
   b6aee:	bfc8      	it	gt
   b6af0:	802b      	strhgt	r3, [r5, #0]
                if(x2 > *maxx) *maxx = x2;
   b6af2:	f9be 3000 	ldrsh.w	r3, [lr]
                *x += xa * ts;
   b6af6:	9901      	ldr	r1, [sp, #4]
                        x2 = x1 + gw * ts - 1,
   b6af8:	fa0f f888 	sxth.w	r8, r8
                if(x2 > *maxx) *maxx = x2;
   b6afc:	4543      	cmp	r3, r8
   b6afe:	bfb8      	it	lt
   b6b00:	f8ae 8000 	strhlt.w	r8, [lr]
                        y2 = y1 + gh * ts - 1;
   b6b04:	3c01      	subs	r4, #1
                if(y2 > *maxy) *maxy = y2;
   b6b06:	f9bc 3000 	ldrsh.w	r3, [ip]
                        y2 = y1 + gh * ts - 1;
   b6b0a:	fa14 f989 	uxtah	r9, r4, r9
   b6b0e:	fa0f f989 	sxth.w	r9, r9
                if(y2 > *maxy) *maxy = y2;
   b6b12:	454b      	cmp	r3, r9
   b6b14:	bfb8      	it	lt
   b6b16:	f8ac 9000 	strhlt.w	r9, [ip]
                *x += xa * ts;
   b6b1a:	8813      	ldrh	r3, [r2, #0]
   b6b1c:	fb01 3000 	mla	r0, r1, r0, r3
   b6b20:	8010      	strh	r0, [r2, #0]
}
   b6b22:	b003      	add	sp, #12
   b6b24:	e8bd 8ff0 	ldmia.w	sp!, {r4, r5, r6, r7, r8, r9, sl, fp, pc}
        if(c == '\n') {                     // Newline?
   b6b28:	290a      	cmp	r1, #10
   b6b2a:	d105      	bne.n	b6b38 <_ZN12Adafruit_GFX10charBoundsEcPsS0_S0_S0_S0_S0_+0x108>
            *x  = 0;                        // Reset x to zero,
   b6b2c:	8014      	strh	r4, [r2, #0]
            *y += textsize * 8;             // advance y one line
   b6b2e:	7e01      	ldrb	r1, [r0, #24]
   b6b30:	881a      	ldrh	r2, [r3, #0]
   b6b32:	eb02 02c1 	add.w	r2, r2, r1, lsl #3
   b6b36:	e78e      	b.n	b6a56 <_ZN12Adafruit_GFX10charBoundsEcPsS0_S0_S0_S0_S0_+0x26>
        } else if(c != '\r') {  // Normal char; ignore carriage returns
   b6b38:	290d      	cmp	r1, #13
   b6b3a:	d0f2      	beq.n	b6b22 <_ZN12Adafruit_GFX10charBoundsEcPsS0_S0_S0_S0_S0_+0xf2>
            if(wrap && ((*x + textsize * 6) > _width)) { // Off right?
   b6b3c:	7e81      	ldrb	r1, [r0, #26]
   b6b3e:	b181      	cbz	r1, b6b62 <_ZN12Adafruit_GFX10charBoundsEcPsS0_S0_S0_S0_S0_+0x132>
   b6b40:	f890 9018 	ldrb.w	r9, [r0, #24]
   b6b44:	f9b2 8000 	ldrsh.w	r8, [r2]
   b6b48:	f9b0 700c 	ldrsh.w	r7, [r0, #12]
   b6b4c:	2106      	movs	r1, #6
   b6b4e:	fb11 8109 	smlabb	r1, r1, r9, r8
   b6b52:	428f      	cmp	r7, r1
   b6b54:	da05      	bge.n	b6b62 <_ZN12Adafruit_GFX10charBoundsEcPsS0_S0_S0_S0_S0_+0x132>
                *x  = 0;                    // Reset x to zero,
   b6b56:	8014      	strh	r4, [r2, #0]
                *y += textsize * 8;         // advance y one line
   b6b58:	7e04      	ldrb	r4, [r0, #24]
   b6b5a:	8819      	ldrh	r1, [r3, #0]
   b6b5c:	eb01 01c4 	add.w	r1, r1, r4, lsl #3
   b6b60:	8019      	strh	r1, [r3, #0]
            int x2 = *x + textsize * 6 - 1, // Lower-right pixel of char
   b6b62:	7e07      	ldrb	r7, [r0, #24]
   b6b64:	f9b2 1000 	ldrsh.w	r1, [r2]
   b6b68:	2406      	movs	r4, #6
   b6b6a:	fb14 1407 	smlabb	r4, r4, r7, r1
                y2 = *y + textsize * 8 - 1;
   b6b6e:	f9b3 1000 	ldrsh.w	r1, [r3]
   b6b72:	eb01 01c7 	add.w	r1, r1, r7, lsl #3
            if(x2 > *maxx) *maxx = x2;      // Track max x, y
   b6b76:	f9be 7000 	ldrsh.w	r7, [lr]
            int x2 = *x + textsize * 6 - 1, // Lower-right pixel of char
   b6b7a:	3c01      	subs	r4, #1
            if(x2 > *maxx) *maxx = x2;      // Track max x, y
   b6b7c:	42a7      	cmp	r7, r4
   b6b7e:	bfb8      	it	lt
   b6b80:	f8ae 4000 	strhlt.w	r4, [lr]
            if(y2 > *maxy) *maxy = y2;
   b6b84:	f9bc 4000 	ldrsh.w	r4, [ip]
                y2 = *y + textsize * 8 - 1;
   b6b88:	3901      	subs	r1, #1
            if(y2 > *maxy) *maxy = y2;
   b6b8a:	428c      	cmp	r4, r1
   b6b8c:	bfb8      	it	lt
   b6b8e:	f8ac 1000 	strhlt.w	r1, [ip]
            if(*x < *minx) *minx = *x;      // Track min x, y
   b6b92:	f9b2 1000 	ldrsh.w	r1, [r2]
   b6b96:	f9b6 4000 	ldrsh.w	r4, [r6]
   b6b9a:	428c      	cmp	r4, r1
   b6b9c:	bfc8      	it	gt
   b6b9e:	8031      	strhgt	r1, [r6, #0]
            if(*y < *miny) *miny = *y;
   b6ba0:	f9b3 3000 	ldrsh.w	r3, [r3]
   b6ba4:	f9b5 1000 	ldrsh.w	r1, [r5]
   b6ba8:	4299      	cmp	r1, r3
   b6baa:	bfc8      	it	gt
   b6bac:	802b      	strhgt	r3, [r5, #0]
            *x += textsize * 6;             // Advance x one char
   b6bae:	7e03      	ldrb	r3, [r0, #24]
   b6bb0:	8811      	ldrh	r1, [r2, #0]
   b6bb2:	eb03 0343 	add.w	r3, r3, r3, lsl #1
   b6bb6:	eb01 0343 	add.w	r3, r1, r3, lsl #1
   b6bba:	8013      	strh	r3, [r2, #0]
}
   b6bbc:	e7b1      	b.n	b6b22 <_ZN12Adafruit_GFX10charBoundsEcPsS0_S0_S0_S0_S0_+0xf2>

000b6bbe <_ZN12Adafruit_GFX13getTextBoundsEPKcssPsS2_PtS3_>:
        int16_t *x1, int16_t *y1, uint16_t *w, uint16_t *h) {
   b6bbe:	e92d 47f0 	stmdb	sp!, {r4, r5, r6, r7, r8, r9, sl, lr}
   b6bc2:	b088      	sub	sp, #32
   b6bc4:	e9dd 9710 	ldrd	r9, r7, [sp, #64]	; 0x40
   b6bc8:	e9dd 8512 	ldrd	r8, r5, [sp, #72]	; 0x48
    *x1 = x;
   b6bcc:	f8a9 2000 	strh.w	r2, [r9]
        int16_t *x1, int16_t *y1, uint16_t *w, uint16_t *h) {
   b6bd0:	f8ad 3014 	strh.w	r3, [sp, #20]
    *y1 = y;
   b6bd4:	803b      	strh	r3, [r7, #0]
    *w  = *h = 0;
   b6bd6:	2300      	movs	r3, #0
   b6bd8:	802b      	strh	r3, [r5, #0]
   b6bda:	f8a8 3000 	strh.w	r3, [r8]
    int16_t minx = _width, miny = _height, maxx = -1, maxy = -1;
   b6bde:	8983      	ldrh	r3, [r0, #12]
   b6be0:	f8ad 3018 	strh.w	r3, [sp, #24]
   b6be4:	89c3      	ldrh	r3, [r0, #14]
   b6be6:	f8ad 301a 	strh.w	r3, [sp, #26]
   b6bea:	f64f 73ff 	movw	r3, #65535	; 0xffff
        int16_t *x1, int16_t *y1, uint16_t *w, uint16_t *h) {
   b6bee:	4604      	mov	r4, r0
   b6bf0:	460e      	mov	r6, r1
   b6bf2:	f8ad 2016 	strh.w	r2, [sp, #22]
    int16_t minx = _width, miny = _height, maxx = -1, maxy = -1;
   b6bf6:	f8ad 301c 	strh.w	r3, [sp, #28]
   b6bfa:	f8ad 301e 	strh.w	r3, [sp, #30]
        charBounds(c, &x, &y, &minx, &miny, &maxx, &maxy);
   b6bfe:	f10d 0a1e 	add.w	sl, sp, #30
    while((c = *str++))
   b6c02:	f816 1b01 	ldrb.w	r1, [r6], #1
   b6c06:	b179      	cbz	r1, b6c28 <_ZN12Adafruit_GFX13getTextBoundsEPKcssPsS2_PtS3_+0x6a>
        charBounds(c, &x, &y, &minx, &miny, &maxx, &maxy);
   b6c08:	ab07      	add	r3, sp, #28
   b6c0a:	9302      	str	r3, [sp, #8]
   b6c0c:	f10d 031a 	add.w	r3, sp, #26
   b6c10:	9301      	str	r3, [sp, #4]
   b6c12:	ab06      	add	r3, sp, #24
   b6c14:	9300      	str	r3, [sp, #0]
   b6c16:	f8cd a00c 	str.w	sl, [sp, #12]
   b6c1a:	ab05      	add	r3, sp, #20
   b6c1c:	f10d 0216 	add.w	r2, sp, #22
   b6c20:	4620      	mov	r0, r4
   b6c22:	f7ff ff05 	bl	b6a30 <_ZN12Adafruit_GFX10charBoundsEcPsS0_S0_S0_S0_S0_>
    while((c = *str++))
   b6c26:	e7ec      	b.n	b6c02 <_ZN12Adafruit_GFX13getTextBoundsEPKcssPsS2_PtS3_+0x44>
    if(maxx >= minx) {
   b6c28:	f9bd 301c 	ldrsh.w	r3, [sp, #28]
   b6c2c:	f9bd 2018 	ldrsh.w	r2, [sp, #24]
   b6c30:	4293      	cmp	r3, r2
        *w  = maxx - minx + 1;
   b6c32:	bfa1      	itttt	ge
   b6c34:	3301      	addge	r3, #1
   b6c36:	1a9b      	subge	r3, r3, r2
        *x1 = minx;
   b6c38:	f8a9 2000 	strhge.w	r2, [r9]
        *w  = maxx - minx + 1;
   b6c3c:	f8a8 3000 	strhge.w	r3, [r8]
    if(maxy >= miny) {
   b6c40:	f9bd 201a 	ldrsh.w	r2, [sp, #26]
   b6c44:	f9bd 301e 	ldrsh.w	r3, [sp, #30]
   b6c48:	4293      	cmp	r3, r2
        *h  = maxy - miny + 1;
   b6c4a:	bfa1      	itttt	ge
   b6c4c:	3301      	addge	r3, #1
   b6c4e:	1a9b      	subge	r3, r3, r2
        *y1 = miny;
   b6c50:	803a      	strhge	r2, [r7, #0]
        *h  = maxy - miny + 1;
   b6c52:	802b      	strhge	r3, [r5, #0]
}
   b6c54:	b008      	add	sp, #32
   b6c56:	e8bd 87f0 	ldmia.w	sp!, {r4, r5, r6, r7, r8, r9, sl, pc}

000b6c5a <_ZNK12Adafruit_GFX5widthEv>:
}
   b6c5a:	f9b0 000c 	ldrsh.w	r0, [r0, #12]
   b6c5e:	4770      	bx	lr

000b6c60 <_ZNK12Adafruit_GFX6heightEv>:
}
   b6c60:	f9b0 000e 	ldrsh.w	r0, [r0, #14]
   b6c64:	4770      	bx	lr

000b6c66 <_ZN10GxEPD2_EPD24writeImageForFullRefreshEPKhssssbbb>:
    //  Support for Bitmaps (Sprites) to Controller Buffer and to Screen
    virtual void clearScreen(uint8_t value) = 0; // init controller memory and screen (default white)
    virtual void writeScreenBuffer(uint8_t value) = 0; // init controller memory (default white)
    // write to controller memory, without screen refresh; x and w should be multiple of 8
    virtual void writeImage(const uint8_t bitmap[], int16_t x, int16_t y, int16_t w, int16_t h, bool invert = false, bool mirror_y = false, bool pgm = false) = 0;
    virtual void writeImageForFullRefresh(const uint8_t bitmap[], int16_t x, int16_t y, int16_t w, int16_t h, bool invert = false, bool mirror_y = false, bool pgm = false)
   b6c66:	b5f0      	push	{r4, r5, r6, r7, lr}
   b6c68:	f89d c020 	ldrb.w	ip, [sp, #32]
   b6c6c:	f9bd 6018 	ldrsh.w	r6, [sp, #24]
   b6c70:	f89d 701c 	ldrb.w	r7, [sp, #28]
   b6c74:	f89d e024 	ldrb.w	lr, [sp, #36]	; 0x24
   b6c78:	f9bd 5014 	ldrsh.w	r5, [sp, #20]
    {
      // writeImage is independent from refresh mode for most controllers, exception e.g. SSD1681
      writeImage(bitmap, x, y, w, h, invert, mirror_y, pgm);
   b6c7c:	6804      	ldr	r4, [r0, #0]
   b6c7e:	9505      	str	r5, [sp, #20]
   b6c80:	e9cd ce08 	strd	ip, lr, [sp, #32]
   b6c84:	e9cd 6706 	strd	r6, r7, [sp, #24]
   b6c88:	6964      	ldr	r4, [r4, #20]
   b6c8a:	46a4      	mov	ip, r4
    }
   b6c8c:	e8bd 40f0 	ldmia.w	sp!, {r4, r5, r6, r7, lr}
      writeImage(bitmap, x, y, w, h, invert, mirror_y, pgm);
   b6c90:	4760      	bx	ip

000b6c92 <_ZN10GxEPD2_EPD22writeScreenBufferAgainEh>:
    //    virtual void writeNative(const uint8_t* data1, const uint8_t* data2, int16_t x, int16_t y, int16_t w, int16_t h, bool invert = false, bool mirror_y = false, bool pgm = false) = 0;
    // for differential update: set current and previous buffers equal (for fast partial update to work correctly)
    virtual void writeScreenBufferAgain(uint8_t value = 0xFF) // init controller memory (default white)
    {
      // most controllers with differential update do switch buffers on refresh, can use:
      writeScreenBuffer(value);
   b6c92:	6803      	ldr	r3, [r0, #0]
   b6c94:	691b      	ldr	r3, [r3, #16]
   b6c96:	4718      	bx	r3

000b6c98 <_ZN10GxEPD2_EPD15writeImageAgainEPKhssssbbb>:
    }
    virtual void writeImageAgain(const uint8_t bitmap[], int16_t x, int16_t y, int16_t w, int16_t h, bool invert = false, bool mirror_y = false, bool pgm = false)
   b6c98:	b5f0      	push	{r4, r5, r6, r7, lr}
   b6c9a:	f89d c020 	ldrb.w	ip, [sp, #32]
   b6c9e:	f9bd 6018 	ldrsh.w	r6, [sp, #24]
   b6ca2:	f89d 701c 	ldrb.w	r7, [sp, #28]
   b6ca6:	f89d e024 	ldrb.w	lr, [sp, #36]	; 0x24
   b6caa:	f9bd 5014 	ldrsh.w	r5, [sp, #20]
    {
      // most controllers with differential update do switch buffers on refresh, can use:
      writeImage(bitmap, x, y, w, h, invert, mirror_y, pgm);
   b6cae:	6804      	ldr	r4, [r0, #0]
   b6cb0:	9505      	str	r5, [sp, #20]
   b6cb2:	e9cd ce08 	strd	ip, lr, [sp, #32]
   b6cb6:	e9cd 6706 	strd	r6, r7, [sp, #24]
   b6cba:	6964      	ldr	r4, [r4, #20]
   b6cbc:	46a4      	mov	ip, r4
    }
   b6cbe:	e8bd 40f0 	ldmia.w	sp!, {r4, r5, r6, r7, lr}
      writeImage(bitmap, x, y, w, h, invert, mirror_y, pgm);
   b6cc2:	4760      	bx	ip

000b6cc4 <_ZN10GxEPD2_EPD19writeImagePartAgainEPKhssssssssbbb>:
    virtual void writeImagePartAgain(const uint8_t bitmap[], int16_t x_part, int16_t y_part, int16_t w_bitmap, int16_t h_bitmap,
   b6cc4:	e92d 4ff0 	stmdb	sp!, {r4, r5, r6, r7, r8, r9, sl, fp, lr}
   b6cc8:	f9bd c030 	ldrsh.w	ip, [sp, #48]	; 0x30
   b6ccc:	f9bd 6028 	ldrsh.w	r6, [sp, #40]	; 0x28
   b6cd0:	f9bd 702c 	ldrsh.w	r7, [sp, #44]	; 0x2c
   b6cd4:	f9bd e034 	ldrsh.w	lr, [sp, #52]	; 0x34
   b6cd8:	f9bd 8038 	ldrsh.w	r8, [sp, #56]	; 0x38
   b6cdc:	f89d 903c 	ldrb.w	r9, [sp, #60]	; 0x3c
   b6ce0:	f89d a040 	ldrb.w	sl, [sp, #64]	; 0x40
   b6ce4:	f89d b044 	ldrb.w	fp, [sp, #68]	; 0x44
   b6ce8:	f9bd 5024 	ldrsh.w	r5, [sp, #36]	; 0x24
                                     int16_t x, int16_t y, int16_t w, int16_t h, bool invert = false, bool mirror_y = false, bool pgm = false)
    {
      // most controllers with differential update do switch buffers on refresh, can use:
      writeImagePart(bitmap, x_part, y_part, w_bitmap, h_bitmap, x, y, w, h, invert, mirror_y, pgm);
   b6cec:	6804      	ldr	r4, [r0, #0]
   b6cee:	9509      	str	r5, [sp, #36]	; 0x24
   b6cf0:	e9cd ce0c 	strd	ip, lr, [sp, #48]	; 0x30
   b6cf4:	e9cd ab10 	strd	sl, fp, [sp, #64]	; 0x40
   b6cf8:	e9cd 890e 	strd	r8, r9, [sp, #56]	; 0x38
   b6cfc:	e9cd 670a 	strd	r6, r7, [sp, #40]	; 0x28
   b6d00:	69e4      	ldr	r4, [r4, #28]
   b6d02:	46a4      	mov	ip, r4
    }
   b6d04:	e8bd 4ff0 	ldmia.w	sp!, {r4, r5, r6, r7, r8, r9, sl, fp, lr}
      writeImagePart(bitmap, x_part, y_part, w_bitmap, h_bitmap, x, y, w, h, invert, mirror_y, pgm);
   b6d08:	4760      	bx	ip

000b6d0a <_ZN10GxEPD2_EPD15writeDemoBitmapEPKhS1_sssssbb>:
    //    virtual void drawImagePart(const uint8_t* black, const uint8_t* color, int16_t x_part, int16_t y_part, int16_t w_bitmap, int16_t h_bitmap,
    //                                int16_t x, int16_t y, int16_t w, int16_t h, bool invert = false, bool mirror_y = false, bool pgm = false) = 0;
    // write sprite of native data to controller memory, with screen refresh; x and w should be multiple of 8
    //    virtual void drawNative(const uint8_t* data1, const uint8_t* data2, int16_t x, int16_t y, int16_t w, int16_t h, bool invert = false, bool mirror_y = false, bool pgm = false) = 0;
    // a demo bitmap can use yet another bitmap format, e.g. 7-color bitmap from Good Display for GDEY073D46
    virtual void writeDemoBitmap(const uint8_t* data1, const uint8_t* data2, int16_t x, int16_t y, int16_t w, int16_t h, int16_t mode = 0, bool mirror_y = false, bool pgm = false){};
   b6d0a:	4770      	bx	lr

000b6d0c <_ZN10GxEPD2_EPD14drawDemoBitmapEPKhS1_sssssbb>:
    virtual void drawDemoBitmap(const uint8_t* data1, const uint8_t* data2, int16_t x, int16_t y, int16_t w, int16_t h, int16_t mode = 0, bool mirror_y = false, bool pgm = false){};
   b6d0c:	4770      	bx	lr

000b6d0e <_ZN10GxEPD2_EPD8setPagedEv>:
    virtual void refresh(bool partial_update_mode = false) = 0; // screen refresh from controller memory to full screen
    virtual void refresh(int16_t x, int16_t y, int16_t w, int16_t h) = 0; // screen refresh from controller memory, partial screen
    virtual void powerOff() = 0; // turns off generation of panel driving voltages, avoids screen fading over time
    virtual void hibernate() = 0; // turns powerOff() and sets controller to deep sleep for minimum power use, ONLY if wakeable by RST (rst >= 0)
    virtual void setPaged() {}; // for GxEPD2_154c paged workaround
   b6d0e:	4770      	bx	lr

000b6d10 <_ZN10GxEPD2_EPD4initEm>:
  _busy_callback = 0;
  _busy_callback_parameter = 0;
}

void GxEPD2_EPD::init(uint32_t serial_diag_bitrate)
{
   b6d10:	b513      	push	{r0, r1, r4, lr}
  init(serial_diag_bitrate, true, 10, false);
   b6d12:	6803      	ldr	r3, [r0, #0]
   b6d14:	2200      	movs	r2, #0
   b6d16:	9200      	str	r2, [sp, #0]
   b6d18:	685c      	ldr	r4, [r3, #4]
   b6d1a:	2201      	movs	r2, #1
   b6d1c:	230a      	movs	r3, #10
   b6d1e:	47a0      	blx	r4
}
   b6d20:	b002      	add	sp, #8
   b6d22:	bd10      	pop	{r4, pc}

000b6d24 <_ZN10GxEPD2_EPD3endEv>:
    pinMode(_busy, INPUT);
  }
}

void GxEPD2_EPD::end()
{
   b6d24:	b510      	push	{r4, lr}
   b6d26:	4604      	mov	r4, r0
  _pSPIx->end();
   b6d28:	6a00      	ldr	r0, [r0, #32]
   b6d2a:	f001 f9e1 	bl	b80f0 <_ZN8SPIClass3endEv>
  if (_cs >= 0) pinMode(_cs, INPUT);
   b6d2e:	f9b4 000c 	ldrsh.w	r0, [r4, #12]
   b6d32:	2800      	cmp	r0, #0
   b6d34:	db03      	blt.n	b6d3e <_ZN10GxEPD2_EPD3endEv+0x1a>
   b6d36:	2100      	movs	r1, #0
   b6d38:	b280      	uxth	r0, r0
   b6d3a:	f001 ffab 	bl	b8c94 <pinMode>
  if (_dc >= 0) pinMode(_dc, INPUT);
   b6d3e:	f9b4 000e 	ldrsh.w	r0, [r4, #14]
   b6d42:	2800      	cmp	r0, #0
   b6d44:	db03      	blt.n	b6d4e <_ZN10GxEPD2_EPD3endEv+0x2a>
   b6d46:	2100      	movs	r1, #0
   b6d48:	b280      	uxth	r0, r0
   b6d4a:	f001 ffa3 	bl	b8c94 <pinMode>
  if (_rst >= 0) pinMode(_rst, INPUT);
   b6d4e:	f9b4 0010 	ldrsh.w	r0, [r4, #16]
   b6d52:	2800      	cmp	r0, #0
   b6d54:	db05      	blt.n	b6d62 <_ZN10GxEPD2_EPD3endEv+0x3e>
}
   b6d56:	e8bd 4010 	ldmia.w	sp!, {r4, lr}
  if (_rst >= 0) pinMode(_rst, INPUT);
   b6d5a:	2100      	movs	r1, #0
   b6d5c:	b280      	uxth	r0, r0
   b6d5e:	f001 bf99 	b.w	b8c94 <pinMode>
}
   b6d62:	bd10      	pop	{r4, pc}

000b6d64 <_ZN10GxEPD2_EPDC1EsssssmttN6GxEPD25PanelEbbb>:
GxEPD2_EPD::GxEPD2_EPD(int16_t cs, int16_t dc, int16_t rst, int16_t busy, int16_t busy_level, uint32_t busy_timeout,
   b6d64:	b537      	push	{r0, r1, r2, r4, r5, lr}
   b6d66:	4604      	mov	r4, r0
  _pSPIx(&SPI), _spi_settings(4000000, MSBFIRST, SPI_MODE0)
   b6d68:	4824      	ldr	r0, [pc, #144]	; (b6dfc <_ZN10GxEPD2_EPDC1EsssssmttN6GxEPD25PanelEbbb+0x98>)
   b6d6a:	6020      	str	r0, [r4, #0]
   b6d6c:	f8bd 0024 	ldrh.w	r0, [sp, #36]	; 0x24
   b6d70:	80a0      	strh	r0, [r4, #4]
   b6d72:	f8bd 0028 	ldrh.w	r0, [sp, #40]	; 0x28
   b6d76:	80e0      	strh	r0, [r4, #6]
   b6d78:	8223      	strh	r3, [r4, #16]
   b6d7a:	f89d 002c 	ldrb.w	r0, [sp, #44]	; 0x2c
   b6d7e:	f9bd 3018 	ldrsh.w	r3, [sp, #24]
   b6d82:	7220      	strb	r0, [r4, #8]
   b6d84:	8263      	strh	r3, [r4, #18]
   b6d86:	f89d 0030 	ldrb.w	r0, [sp, #48]	; 0x30
   b6d8a:	f9bd 301c 	ldrsh.w	r3, [sp, #28]
   b6d8e:	7260      	strb	r0, [r4, #9]
   b6d90:	82a3      	strh	r3, [r4, #20]
   b6d92:	f89d 0034 	ldrb.w	r0, [sp, #52]	; 0x34
   b6d96:	9b08      	ldr	r3, [sp, #32]
   b6d98:	72a0      	strb	r0, [r4, #10]
   b6d9a:	61a3      	str	r3, [r4, #24]
   b6d9c:	f89d 0038 	ldrb.w	r0, [sp, #56]	; 0x38

template <hal_spi_interface_t Interface>
class SpiProxy {
public:
    static SPIClass& instance() {
        static SPIClass instance(Interface);
   b6da0:	4d17      	ldr	r5, [pc, #92]	; (b6e00 <_ZN10GxEPD2_EPDC1EsssssmttN6GxEPD25PanelEbbb+0x9c>)
   b6da2:	72e0      	strb	r0, [r4, #11]
   b6da4:	2300      	movs	r3, #0
   b6da6:	81a1      	strh	r1, [r4, #12]
   b6da8:	81e2      	strh	r2, [r4, #14]
   b6daa:	7723      	strb	r3, [r4, #28]
   b6dac:	7829      	ldrb	r1, [r5, #0]
   b6dae:	f3bf 8f5b 	dmb	ish
   b6db2:	f011 0101 	ands.w	r1, r1, #1
   b6db6:	d10b      	bne.n	b6dd0 <_ZN10GxEPD2_EPDC1EsssssmttN6GxEPD25PanelEbbb+0x6c>
   b6db8:	4628      	mov	r0, r5
   b6dba:	9101      	str	r1, [sp, #4]
   b6dbc:	f7fd fe36 	bl	b4a2c <__cxa_guard_acquire>
   b6dc0:	9901      	ldr	r1, [sp, #4]
   b6dc2:	b128      	cbz	r0, b6dd0 <_ZN10GxEPD2_EPDC1EsssssmttN6GxEPD25PanelEbbb+0x6c>
   b6dc4:	480f      	ldr	r0, [pc, #60]	; (b6e04 <_ZN10GxEPD2_EPDC1EsssssmttN6GxEPD25PanelEbbb+0xa0>)
   b6dc6:	f001 f975 	bl	b80b4 <_ZN8SPIClassC1E19hal_spi_interface_t>
   b6dca:	4628      	mov	r0, r5
   b6dcc:	f7fd fe33 	bl	b4a36 <__cxa_guard_release>
   b6dd0:	4b0c      	ldr	r3, [pc, #48]	; (b6e04 <_ZN10GxEPD2_EPDC1EsssssmttN6GxEPD25PanelEbbb+0xa0>)
      dataMode_{dataMode}
   b6dd2:	4a0d      	ldr	r2, [pc, #52]	; (b6e08 <_ZN10GxEPD2_EPDC1EsssssmttN6GxEPD25PanelEbbb+0xa4>)
   b6dd4:	6223      	str	r3, [r4, #32]
   b6dd6:	62e2      	str	r2, [r4, #44]	; 0x2c
   b6dd8:	4b0c      	ldr	r3, [pc, #48]	; (b6e0c <_ZN10GxEPD2_EPDC1EsssssmttN6GxEPD25PanelEbbb+0xa8>)
   b6dda:	6263      	str	r3, [r4, #36]	; 0x24
   b6ddc:	2201      	movs	r2, #1
   b6dde:	2300      	movs	r3, #0
   b6de0:	8622      	strh	r2, [r4, #48]	; 0x30
  _hibernating = false;
   b6de2:	f240 1101 	movw	r1, #257	; 0x101
   b6de6:	f44f 2220 	mov.w	r2, #655360	; 0xa0000
}
   b6dea:	4620      	mov	r0, r4
  _hibernating = false;
   b6dec:	e9c4 120d 	strd	r1, r2, [r4, #52]	; 0x34
  _busy_callback_parameter = 0;
   b6df0:	e9c4 330f 	strd	r3, r3, [r4, #60]	; 0x3c
   b6df4:	f884 3028 	strb.w	r3, [r4, #40]	; 0x28
}
   b6df8:	b003      	add	sp, #12
   b6dfa:	bd30      	pop	{r4, r5, pc}
   b6dfc:	000d7a18 	.word	0x000d7a18
   b6e00:	2003e69c 	.word	0x2003e69c
   b6e04:	2003e6a0 	.word	0x2003e6a0
   b6e08:	003d0900 	.word	0x003d0900
   b6e0c:	000d6cd0 	.word	0x000d6cd0

000b6e10 <_ZN10GxEPD2_EPD6_resetEv>:
  _pSPIx = &spi;
  _spi_settings = spi_settings;
}

void GxEPD2_EPD::_reset()
{
   b6e10:	b538      	push	{r3, r4, r5, lr}
   b6e12:	4604      	mov	r4, r0
  if (_rst >= 0)
   b6e14:	f9b0 0010 	ldrsh.w	r0, [r0, #16]
   b6e18:	2800      	cmp	r0, #0
   b6e1a:	db1d      	blt.n	b6e58 <_ZN10GxEPD2_EPD6_resetEv+0x48>
  {
    if (_pulldown_rst_mode)
   b6e1c:	7f65      	ldrb	r5, [r4, #29]
    {
      digitalWrite(_rst, LOW);
   b6e1e:	b280      	uxth	r0, r0
    if (_pulldown_rst_mode)
   b6e20:	b1dd      	cbz	r5, b6e5a <_ZN10GxEPD2_EPD6_resetEv+0x4a>
      digitalWrite(_rst, LOW);
   b6e22:	2100      	movs	r1, #0
   b6e24:	f001 ff47 	bl	b8cb6 <digitalWrite>
      pinMode(_rst, OUTPUT);
   b6e28:	8a20      	ldrh	r0, [r4, #16]
   b6e2a:	2101      	movs	r1, #1
   b6e2c:	f001 ff32 	bl	b8c94 <pinMode>
      digitalWrite(_rst, LOW);
   b6e30:	2100      	movs	r1, #0
   b6e32:	8a20      	ldrh	r0, [r4, #16]
   b6e34:	f001 ff3f 	bl	b8cb6 <digitalWrite>
      delay(_reset_duration);
   b6e38:	8f60      	ldrh	r0, [r4, #58]	; 0x3a
   b6e3a:	f001 fb91 	bl	b8560 <delay>
      pinMode(_rst, INPUT_PULLUP);
   b6e3e:	8a20      	ldrh	r0, [r4, #16]
   b6e40:	2102      	movs	r1, #2
   b6e42:	f001 ff27 	bl	b8c94 <pinMode>
      digitalWrite(_rst, HIGH); // NEEDED for Waveshare "clever" reset circuit, power controller before reset pulse, set (needed e.g. for RP2040)
      delay(10); // NEEDED for Waveshare "clever" reset circuit, at least delay(2);
      digitalWrite(_rst, LOW);
      delay(_reset_duration);
      digitalWrite(_rst, HIGH);
      delay(_reset_duration > 10 ? _reset_duration : 10);
   b6e46:	8f60      	ldrh	r0, [r4, #58]	; 0x3a
   b6e48:	280a      	cmp	r0, #10
   b6e4a:	bf38      	it	cc
   b6e4c:	200a      	movcc	r0, #10
   b6e4e:	f001 fb87 	bl	b8560 <delay>
    }
    _hibernating = false;
   b6e52:	2300      	movs	r3, #0
   b6e54:	f884 3038 	strb.w	r3, [r4, #56]	; 0x38
  }
}
   b6e58:	bd38      	pop	{r3, r4, r5, pc}
      digitalWrite(_rst, HIGH); // NEEDED for Waveshare "clever" reset circuit, power controller before reset pulse, preset (less glitch for any analyzer)
   b6e5a:	2101      	movs	r1, #1
   b6e5c:	f001 ff2b 	bl	b8cb6 <digitalWrite>
      pinMode(_rst, OUTPUT);
   b6e60:	8a20      	ldrh	r0, [r4, #16]
   b6e62:	2101      	movs	r1, #1
   b6e64:	f001 ff16 	bl	b8c94 <pinMode>
      digitalWrite(_rst, HIGH); // NEEDED for Waveshare "clever" reset circuit, power controller before reset pulse, set (needed e.g. for RP2040)
   b6e68:	8a20      	ldrh	r0, [r4, #16]
   b6e6a:	2101      	movs	r1, #1
   b6e6c:	f001 ff23 	bl	b8cb6 <digitalWrite>
      delay(10); // NEEDED for Waveshare "clever" reset circuit, at least delay(2);
   b6e70:	200a      	movs	r0, #10
   b6e72:	f001 fb75 	bl	b8560 <delay>
      digitalWrite(_rst, LOW);
   b6e76:	4629      	mov	r1, r5
   b6e78:	8a20      	ldrh	r0, [r4, #16]
   b6e7a:	f001 ff1c 	bl	b8cb6 <digitalWrite>
      delay(_reset_duration);
   b6e7e:	8f60      	ldrh	r0, [r4, #58]	; 0x3a
   b6e80:	f001 fb6e 	bl	b8560 <delay>
      digitalWrite(_rst, HIGH);
   b6e84:	8a20      	ldrh	r0, [r4, #16]
   b6e86:	2101      	movs	r1, #1
   b6e88:	f001 ff15 	bl	b8cb6 <digitalWrite>
   b6e8c:	e7db      	b.n	b6e46 <_ZN10GxEPD2_EPD6_resetEv+0x36>

000b6e8e <_ZN10GxEPD2_EPD4initEmbtb>:
{
   b6e8e:	b538      	push	{r3, r4, r5, lr}
   b6e90:	4604      	mov	r4, r0
   b6e92:	f89d 0010 	ldrb.w	r0, [sp, #16]
  _initial_write = initial;
   b6e96:	f884 2034 	strb.w	r2, [r4, #52]	; 0x34
  _initial_refresh = initial;
   b6e9a:	f884 2035 	strb.w	r2, [r4, #53]	; 0x35
  _power_is_on = false;
   b6e9e:	2200      	movs	r2, #0
  _pulldown_rst_mode = pulldown_rst_mode;
   b6ea0:	7760      	strb	r0, [r4, #29]
  _power_is_on = false;
   b6ea2:	86e2      	strh	r2, [r4, #54]	; 0x36
  _hibernating = false;
   b6ea4:	8722      	strh	r2, [r4, #56]	; 0x38
  _reset_duration = reset_duration;
   b6ea6:	8763      	strh	r3, [r4, #58]	; 0x3a
  if (serial_diag_bitrate > 0)
   b6ea8:	460d      	mov	r5, r1
   b6eaa:	b131      	cbz	r1, b6eba <_ZN10GxEPD2_EPD4initEmbtb+0x2c>
    Serial.begin(serial_diag_bitrate);
   b6eac:	f001 fcd4 	bl	b8858 <_Z16_fetch_usbserialv>
   b6eb0:	4629      	mov	r1, r5
   b6eb2:	f001 fcc5 	bl	b8840 <_ZN9USBSerial5beginEl>
    _diag_enabled = true;
   b6eb6:	2301      	movs	r3, #1
   b6eb8:	7723      	strb	r3, [r4, #28]
  if (_cs >= 0)
   b6eba:	f9b4 000c 	ldrsh.w	r0, [r4, #12]
   b6ebe:	2800      	cmp	r0, #0
   b6ec0:	db0b      	blt.n	b6eda <_ZN10GxEPD2_EPD4initEmbtb+0x4c>
    digitalWrite(_cs, HIGH); // preset (less glitch for any analyzer)
   b6ec2:	2101      	movs	r1, #1
   b6ec4:	b280      	uxth	r0, r0
   b6ec6:	f001 fef6 	bl	b8cb6 <digitalWrite>
    pinMode(_cs, OUTPUT);
   b6eca:	89a0      	ldrh	r0, [r4, #12]
   b6ecc:	2101      	movs	r1, #1
   b6ece:	f001 fee1 	bl	b8c94 <pinMode>
    digitalWrite(_cs, HIGH); // set (needed e.g. for RP2040)
   b6ed2:	89a0      	ldrh	r0, [r4, #12]
   b6ed4:	2101      	movs	r1, #1
   b6ed6:	f001 feee 	bl	b8cb6 <digitalWrite>
  _reset();
   b6eda:	4620      	mov	r0, r4
   b6edc:	f7ff ff98 	bl	b6e10 <_ZN10GxEPD2_EPD6_resetEv>
  _pSPIx->begin(); // may steal _rst pin (Waveshare Pico-ePaper-2.9)
   b6ee0:	6a20      	ldr	r0, [r4, #32]
   b6ee2:	f001 f8f1 	bl	b80c8 <_ZN8SPIClass5beginEv>
  if (_rst >= 0)
   b6ee6:	f9b4 0010 	ldrsh.w	r0, [r4, #16]
   b6eea:	2800      	cmp	r0, #0
   b6eec:	db0b      	blt.n	b6f06 <_ZN10GxEPD2_EPD4initEmbtb+0x78>
    digitalWrite(_rst, HIGH); // preset (less glitch for any analyzer)
   b6eee:	2101      	movs	r1, #1
   b6ef0:	b280      	uxth	r0, r0
   b6ef2:	f001 fee0 	bl	b8cb6 <digitalWrite>
    pinMode(_rst, OUTPUT);
   b6ef6:	8a20      	ldrh	r0, [r4, #16]
   b6ef8:	2101      	movs	r1, #1
   b6efa:	f001 fecb 	bl	b8c94 <pinMode>
    digitalWrite(_rst, HIGH); // set (needed e.g. for RP2040)
   b6efe:	8a20      	ldrh	r0, [r4, #16]
   b6f00:	2101      	movs	r1, #1
   b6f02:	f001 fed8 	bl	b8cb6 <digitalWrite>
  if (_cs >= 0)
   b6f06:	f9b4 000c 	ldrsh.w	r0, [r4, #12]
   b6f0a:	2800      	cmp	r0, #0
   b6f0c:	db0b      	blt.n	b6f26 <_ZN10GxEPD2_EPD4initEmbtb+0x98>
    digitalWrite(_cs, HIGH); // preset (less glitch for any analyzer)
   b6f0e:	2101      	movs	r1, #1
   b6f10:	b280      	uxth	r0, r0
   b6f12:	f001 fed0 	bl	b8cb6 <digitalWrite>
    pinMode(_cs, OUTPUT);
   b6f16:	89a0      	ldrh	r0, [r4, #12]
   b6f18:	2101      	movs	r1, #1
   b6f1a:	f001 febb 	bl	b8c94 <pinMode>
    digitalWrite(_cs, HIGH); // set (needed e.g. for RP2040)
   b6f1e:	89a0      	ldrh	r0, [r4, #12]
   b6f20:	2101      	movs	r1, #1
   b6f22:	f001 fec8 	bl	b8cb6 <digitalWrite>
  if (_dc >= 0)
   b6f26:	f9b4 000e 	ldrsh.w	r0, [r4, #14]
   b6f2a:	2800      	cmp	r0, #0
   b6f2c:	db0b      	blt.n	b6f46 <_ZN10GxEPD2_EPD4initEmbtb+0xb8>
    digitalWrite(_dc, HIGH); // preset (less glitch for any analyzer)
   b6f2e:	2101      	movs	r1, #1
   b6f30:	b280      	uxth	r0, r0
   b6f32:	f001 fec0 	bl	b8cb6 <digitalWrite>
    pinMode(_dc, OUTPUT);
   b6f36:	89e0      	ldrh	r0, [r4, #14]
   b6f38:	2101      	movs	r1, #1
   b6f3a:	f001 feab 	bl	b8c94 <pinMode>
    digitalWrite(_dc, HIGH); // set (needed e.g. for RP2040)
   b6f3e:	89e0      	ldrh	r0, [r4, #14]
   b6f40:	2101      	movs	r1, #1
   b6f42:	f001 feb8 	bl	b8cb6 <digitalWrite>
  if (_busy >= 0)
   b6f46:	f9b4 0012 	ldrsh.w	r0, [r4, #18]
   b6f4a:	2800      	cmp	r0, #0
   b6f4c:	db05      	blt.n	b6f5a <_ZN10GxEPD2_EPD4initEmbtb+0xcc>
}
   b6f4e:	e8bd 4038 	ldmia.w	sp!, {r3, r4, r5, lr}
    pinMode(_busy, INPUT);
   b6f52:	2100      	movs	r1, #0
   b6f54:	b280      	uxth	r0, r0
   b6f56:	f001 be9d 	b.w	b8c94 <pinMode>
}
   b6f5a:	bd38      	pop	{r3, r4, r5, pc}

000b6f5c <_ZN10GxEPD2_EPD14_waitWhileBusyEPKct>:

void GxEPD2_EPD::_waitWhileBusy(const char* comment, uint16_t busy_time)
{
   b6f5c:	b570      	push	{r4, r5, r6, lr}
   b6f5e:	4604      	mov	r4, r0
   b6f60:	460d      	mov	r5, r1
  if (_busy >= 0)
   b6f62:	f9b4 3012 	ldrsh.w	r3, [r4, #18]
   b6f66:	2b00      	cmp	r3, #0
{
   b6f68:	4610      	mov	r0, r2
  if (_busy >= 0)
   b6f6a:	db42      	blt.n	b6ff2 <_ZN10GxEPD2_EPD14_waitWhileBusyEPKct+0x96>
  {
    delay(1); // add some margin to become active
   b6f6c:	2001      	movs	r0, #1
   b6f6e:	f001 faf7 	bl	b8560 <delay>
#ifdef __cplusplus
extern "C" {
#endif

inline system_tick_t millis(void) { return HAL_Timer_Get_Milli_Seconds(); }
inline unsigned long micros(void) { return HAL_Timer_Get_Micro_Seconds(); }
   b6f72:	f000 fe6f 	bl	b7c54 <HAL_Timer_Get_Micro_Seconds>
   b6f76:	4606      	mov	r6, r0
    unsigned long start = micros();
    while (1)
    {
      if (digitalRead(_busy) != _busy_level) break;
   b6f78:	8a60      	ldrh	r0, [r4, #18]
   b6f7a:	f001 feb5 	bl	b8ce8 <digitalRead>
   b6f7e:	f9b4 3014 	ldrsh.w	r3, [r4, #20]
   b6f82:	4298      	cmp	r0, r3
   b6f84:	d115      	bne.n	b6fb2 <_ZN10GxEPD2_EPD14_waitWhileBusyEPKct+0x56>
      if (_busy_callback) _busy_callback(_busy_callback_parameter);
   b6f86:	6be3      	ldr	r3, [r4, #60]	; 0x3c
   b6f88:	b37b      	cbz	r3, b6fea <_ZN10GxEPD2_EPD14_waitWhileBusyEPKct+0x8e>
   b6f8a:	6c20      	ldr	r0, [r4, #64]	; 0x40
   b6f8c:	4798      	blx	r3
      else delay(1);
      if (digitalRead(_busy) != _busy_level) break;
   b6f8e:	8a60      	ldrh	r0, [r4, #18]
   b6f90:	f001 feaa 	bl	b8ce8 <digitalRead>
   b6f94:	f9b4 3014 	ldrsh.w	r3, [r4, #20]
   b6f98:	4298      	cmp	r0, r3
   b6f9a:	d10a      	bne.n	b6fb2 <_ZN10GxEPD2_EPD14_waitWhileBusyEPKct+0x56>
   b6f9c:	f000 fe5a 	bl	b7c54 <HAL_Timer_Get_Micro_Seconds>
      if (micros() - start > _busy_timeout)
   b6fa0:	69a3      	ldr	r3, [r4, #24]
   b6fa2:	1b80      	subs	r0, r0, r6
   b6fa4:	4298      	cmp	r0, r3
   b6fa6:	d9e7      	bls.n	b6f78 <_ZN10GxEPD2_EPD14_waitWhileBusyEPKct+0x1c>
      {
        Serial.println("Busy Timeout!");
   b6fa8:	f001 fc56 	bl	b8858 <_Z16_fetch_usbserialv>
   b6fac:	4913      	ldr	r1, [pc, #76]	; (b6ffc <_ZN10GxEPD2_EPD14_waitWhileBusyEPKct+0xa0>)
   b6fae:	f001 f994 	bl	b82da <_ZN5Print7printlnEPKc>
      }
#if defined(ESP8266) || defined(ESP32)
      yield(); // avoid wdt
#endif
    }
    if (comment)
   b6fb2:	b315      	cbz	r5, b6ffa <_ZN10GxEPD2_EPD14_waitWhileBusyEPKct+0x9e>
    {
#if !defined(DISABLE_DIAGNOSTIC_OUTPUT)
      if (_diag_enabled)
   b6fb4:	7f23      	ldrb	r3, [r4, #28]
   b6fb6:	b303      	cbz	r3, b6ffa <_ZN10GxEPD2_EPD14_waitWhileBusyEPKct+0x9e>
   b6fb8:	f000 fe4c 	bl	b7c54 <HAL_Timer_Get_Micro_Seconds>
      {
        unsigned long elapsed = micros() - start;
   b6fbc:	1b86      	subs	r6, r0, r6
        Serial.print(comment);
   b6fbe:	f001 fc4b 	bl	b8858 <_Z16_fetch_usbserialv>
   b6fc2:	4629      	mov	r1, r5
   b6fc4:	f001 f976 	bl	b82b4 <_ZN5Print5printEPKc>
        Serial.print(" : ");
   b6fc8:	f001 fc46 	bl	b8858 <_Z16_fetch_usbserialv>
   b6fcc:	490c      	ldr	r1, [pc, #48]	; (b7000 <_ZN10GxEPD2_EPD14_waitWhileBusyEPKct+0xa4>)
   b6fce:	f001 f971 	bl	b82b4 <_ZN5Print5printEPKc>
        Serial.println(elapsed);
   b6fd2:	f001 fc41 	bl	b8858 <_Z16_fetch_usbserialv>
            val = n;
        }
#if __GNUC__ >= 9
#pragma GCC diagnostic pop
#endif // __GNUC__ >= 9
        return printNumber(val, base) + t;
   b6fd6:	4631      	mov	r1, r6
   b6fd8:	4604      	mov	r4, r0
   b6fda:	220a      	movs	r2, #10
   b6fdc:	f001 f987 	bl	b82ee <_ZN5Print11printNumberEmh>
        n += println();
   b6fe0:	4620      	mov	r0, r4
#endif
    }
    (void) start;
  }
  else delay(busy_time);
}
   b6fe2:	e8bd 4070 	ldmia.w	sp!, {r4, r5, r6, lr}
   b6fe6:	f001 b96c 	b.w	b82c2 <_ZN5Print7printlnEv>
      else delay(1);
   b6fea:	2001      	movs	r0, #1
   b6fec:	f001 fab8 	bl	b8560 <delay>
   b6ff0:	e7cd      	b.n	b6f8e <_ZN10GxEPD2_EPD14_waitWhileBusyEPKct+0x32>
}
   b6ff2:	e8bd 4070 	ldmia.w	sp!, {r4, r5, r6, lr}
  else delay(busy_time);
   b6ff6:	f001 bab3 	b.w	b8560 <delay>
}
   b6ffa:	bd70      	pop	{r4, r5, r6, pc}
   b6ffc:	000d79fc 	.word	0x000d79fc
   b7000:	000d7a0a 	.word	0x000d7a0a

000b7004 <_ZN10GxEPD2_EPD13_writeCommandEh>:

void GxEPD2_EPD::_writeCommand(uint8_t c)
{
   b7004:	b538      	push	{r3, r4, r5, lr}
   b7006:	4604      	mov	r4, r0
   b7008:	460d      	mov	r5, r1
  _pSPIx->beginTransaction(_spi_settings);
   b700a:	f100 0124 	add.w	r1, r0, #36	; 0x24
   b700e:	6a00      	ldr	r0, [r0, #32]
   b7010:	f001 f89a 	bl	b8148 <_ZN8SPIClass16beginTransactionERKN8particle11SPISettingsE>
  if (_dc >= 0) digitalWrite(_dc, LOW);
   b7014:	f9b4 000e 	ldrsh.w	r0, [r4, #14]
   b7018:	2800      	cmp	r0, #0
   b701a:	db03      	blt.n	b7024 <_ZN10GxEPD2_EPD13_writeCommandEh+0x20>
   b701c:	2100      	movs	r1, #0
   b701e:	b280      	uxth	r0, r0
   b7020:	f001 fe49 	bl	b8cb6 <digitalWrite>
  if (_cs >= 0) digitalWrite(_cs, LOW);
   b7024:	f9b4 000c 	ldrsh.w	r0, [r4, #12]
   b7028:	2800      	cmp	r0, #0
   b702a:	db03      	blt.n	b7034 <_ZN10GxEPD2_EPD13_writeCommandEh+0x30>
   b702c:	2100      	movs	r1, #0
   b702e:	b280      	uxth	r0, r0
   b7030:	f001 fe41 	bl	b8cb6 <digitalWrite>
  _pSPIx->transfer(c);
   b7034:	6a20      	ldr	r0, [r4, #32]
   b7036:	4629      	mov	r1, r5
   b7038:	f001 f8f4 	bl	b8224 <_ZN8SPIClass8transferEh>
  if (_cs >= 0) digitalWrite(_cs, HIGH);
   b703c:	f9b4 000c 	ldrsh.w	r0, [r4, #12]
   b7040:	2800      	cmp	r0, #0
   b7042:	db03      	blt.n	b704c <_ZN10GxEPD2_EPD13_writeCommandEh+0x48>
   b7044:	2101      	movs	r1, #1
   b7046:	b280      	uxth	r0, r0
   b7048:	f001 fe35 	bl	b8cb6 <digitalWrite>
  if (_dc >= 0) digitalWrite(_dc, HIGH);
   b704c:	f9b4 000e 	ldrsh.w	r0, [r4, #14]
   b7050:	2800      	cmp	r0, #0
   b7052:	db03      	blt.n	b705c <_ZN10GxEPD2_EPD13_writeCommandEh+0x58>
   b7054:	2101      	movs	r1, #1
   b7056:	b280      	uxth	r0, r0
   b7058:	f001 fe2d 	bl	b8cb6 <digitalWrite>
  _pSPIx->endTransaction();
   b705c:	6a20      	ldr	r0, [r4, #32]
}
   b705e:	e8bd 4038 	ldmia.w	sp!, {r3, r4, r5, lr}
  _pSPIx->endTransaction();
   b7062:	f001 b857 	b.w	b8114 <_ZN8SPIClass14endTransactionEv>

000b7066 <_ZN10GxEPD2_EPD10_writeDataEh>:

void GxEPD2_EPD::_writeData(uint8_t d)
{
   b7066:	b538      	push	{r3, r4, r5, lr}
   b7068:	4604      	mov	r4, r0
   b706a:	460d      	mov	r5, r1
  _pSPIx->beginTransaction(_spi_settings);
   b706c:	f100 0124 	add.w	r1, r0, #36	; 0x24
   b7070:	6a00      	ldr	r0, [r0, #32]
   b7072:	f001 f869 	bl	b8148 <_ZN8SPIClass16beginTransactionERKN8particle11SPISettingsE>
  if (_cs >= 0) digitalWrite(_cs, LOW);
   b7076:	f9b4 000c 	ldrsh.w	r0, [r4, #12]
   b707a:	2800      	cmp	r0, #0
   b707c:	db03      	blt.n	b7086 <_ZN10GxEPD2_EPD10_writeDataEh+0x20>
   b707e:	2100      	movs	r1, #0
   b7080:	b280      	uxth	r0, r0
   b7082:	f001 fe18 	bl	b8cb6 <digitalWrite>
  _pSPIx->transfer(d);
   b7086:	6a20      	ldr	r0, [r4, #32]
   b7088:	4629      	mov	r1, r5
   b708a:	f001 f8cb 	bl	b8224 <_ZN8SPIClass8transferEh>
  if (_cs >= 0) digitalWrite(_cs, HIGH);
   b708e:	f9b4 000c 	ldrsh.w	r0, [r4, #12]
   b7092:	2800      	cmp	r0, #0
   b7094:	db03      	blt.n	b709e <_ZN10GxEPD2_EPD10_writeDataEh+0x38>
   b7096:	2101      	movs	r1, #1
   b7098:	b280      	uxth	r0, r0
   b709a:	f001 fe0c 	bl	b8cb6 <digitalWrite>
  _pSPIx->endTransaction();
   b709e:	6a20      	ldr	r0, [r4, #32]
}
   b70a0:	e8bd 4038 	ldmia.w	sp!, {r3, r4, r5, lr}
  _pSPIx->endTransaction();
   b70a4:	f001 b836 	b.w	b8114 <_ZN8SPIClass14endTransactionEv>

000b70a8 <_ZN10GxEPD2_EPD14_startTransferEv>:
  if (_cs >= 0) digitalWrite(_cs, HIGH);
  _pSPIx->endTransaction();
}

void GxEPD2_EPD::_startTransfer()
{
   b70a8:	b510      	push	{r4, lr}
   b70aa:	4604      	mov	r4, r0
  _pSPIx->beginTransaction(_spi_settings);
   b70ac:	f100 0124 	add.w	r1, r0, #36	; 0x24
   b70b0:	6a00      	ldr	r0, [r0, #32]
   b70b2:	f001 f849 	bl	b8148 <_ZN8SPIClass16beginTransactionERKN8particle11SPISettingsE>
  if (_cs >= 0) digitalWrite(_cs, LOW);
   b70b6:	f9b4 000c 	ldrsh.w	r0, [r4, #12]
   b70ba:	2800      	cmp	r0, #0
   b70bc:	db05      	blt.n	b70ca <_ZN10GxEPD2_EPD14_startTransferEv+0x22>
}
   b70be:	e8bd 4010 	ldmia.w	sp!, {r4, lr}
  if (_cs >= 0) digitalWrite(_cs, LOW);
   b70c2:	2100      	movs	r1, #0
   b70c4:	b280      	uxth	r0, r0
   b70c6:	f001 bdf6 	b.w	b8cb6 <digitalWrite>
}
   b70ca:	bd10      	pop	{r4, pc}

000b70cc <_ZN10GxEPD2_EPD9_transferEh>:

void GxEPD2_EPD::_transfer(uint8_t value)
{
  _pSPIx->transfer(value);
   b70cc:	6a00      	ldr	r0, [r0, #32]
   b70ce:	f001 b8a9 	b.w	b8224 <_ZN8SPIClass8transferEh>

000b70d2 <_ZN10GxEPD2_EPD12_endTransferEv>:
}

void GxEPD2_EPD::_endTransfer()
{
   b70d2:	b510      	push	{r4, lr}
   b70d4:	4604      	mov	r4, r0
  if (_cs >= 0) digitalWrite(_cs, HIGH);
   b70d6:	f9b0 000c 	ldrsh.w	r0, [r0, #12]
   b70da:	2800      	cmp	r0, #0
   b70dc:	db03      	blt.n	b70e6 <_ZN10GxEPD2_EPD12_endTransferEv+0x14>
   b70de:	2101      	movs	r1, #1
   b70e0:	b280      	uxth	r0, r0
   b70e2:	f001 fde8 	bl	b8cb6 <digitalWrite>
  _pSPIx->endTransaction();
   b70e6:	6a20      	ldr	r0, [r4, #32]
}
   b70e8:	e8bd 4010 	ldmia.w	sp!, {r4, lr}
  _pSPIx->endTransaction();
   b70ec:	f001 b812 	b.w	b8114 <_ZN8SPIClass14endTransactionEv>

000b70f0 <_ZN11GxEPD2_420cC1Essss>:
//
// Library: https://github.com/ZinggJM/GxEPD2

#include "GxEPD2_420c.h"

GxEPD2_420c::GxEPD2_420c(int16_t cs, int16_t dc, int16_t rst, int16_t busy) :
   b70f0:	b570      	push	{r4, r5, r6, lr}
   b70f2:	b08a      	sub	sp, #40	; 0x28
  GxEPD2_EPD(cs, dc, rst, busy, LOW, 20000000, WIDTH, HEIGHT, panel, hasColor, hasPartialUpdate, hasFastPartialUpdate)
   b70f4:	2601      	movs	r6, #1
   b70f6:	2500      	movs	r5, #0
   b70f8:	e9cd 6507 	strd	r6, r5, [sp, #28]
   b70fc:	9606      	str	r6, [sp, #24]
   b70fe:	f04f 0c3c 	mov.w	ip, #60	; 0x3c
   b7102:	f44f 7696 	mov.w	r6, #300	; 0x12c
   b7106:	e9cd 6c04 	strd	r6, ip, [sp, #16]
   b710a:	4e08      	ldr	r6, [pc, #32]	; (b712c <_ZN11GxEPD2_420cC1Essss+0x3c>)
   b710c:	9501      	str	r5, [sp, #4]
   b710e:	f44f 7ec8 	mov.w	lr, #400	; 0x190
   b7112:	f9bd 5038 	ldrsh.w	r5, [sp, #56]	; 0x38
   b7116:	9500      	str	r5, [sp, #0]
   b7118:	e9cd 6e02 	strd	r6, lr, [sp, #8]
GxEPD2_420c::GxEPD2_420c(int16_t cs, int16_t dc, int16_t rst, int16_t busy) :
   b711c:	4604      	mov	r4, r0
  GxEPD2_EPD(cs, dc, rst, busy, LOW, 20000000, WIDTH, HEIGHT, panel, hasColor, hasPartialUpdate, hasFastPartialUpdate)
   b711e:	f7ff fe21 	bl	b6d64 <_ZN10GxEPD2_EPDC1EsssssmttN6GxEPD25PanelEbbb>
   b7122:	4b03      	ldr	r3, [pc, #12]	; (b7130 <_ZN11GxEPD2_420cC1Essss+0x40>)
   b7124:	6023      	str	r3, [r4, #0]
{
}
   b7126:	4620      	mov	r0, r4
   b7128:	b00a      	add	sp, #40	; 0x28
   b712a:	bd70      	pop	{r4, r5, r6, pc}
   b712c:	01312d00 	.word	0x01312d00
   b7130:	000d7a98 	.word	0x000d7a98

000b7134 <_ZN11GxEPD2_420c11writeNativeEPKhS1_ssssbbb>:
  _writeCommand(0x92); // partial out
  delay(1); // yield() to avoid WDT on ESP8266 and ESP32
}

void GxEPD2_420c::writeNative(const uint8_t* data1, const uint8_t* data2, int16_t x, int16_t y, int16_t w, int16_t h, bool invert, bool mirror_y, bool pgm)
{
   b7134:	b5f0      	push	{r4, r5, r6, r7, lr}
   b7136:	461a      	mov	r2, r3
   b7138:	f9bd 5018 	ldrsh.w	r5, [sp, #24]
   b713c:	f9bd 3014 	ldrsh.w	r3, [sp, #20]
   b7140:	f9bd 601c 	ldrsh.w	r6, [sp, #28]
   b7144:	f89d 7020 	ldrb.w	r7, [sp, #32]
   b7148:	f89d c024 	ldrb.w	ip, [sp, #36]	; 0x24
   b714c:	f89d e028 	ldrb.w	lr, [sp, #40]	; 0x28
  if (data1)
   b7150:	b151      	cbz	r1, b7168 <_ZN11GxEPD2_420c11writeNativeEPKhS1_ssssbbb+0x34>
  {
    writeImage(data1, x, y, w, h, invert, mirror_y, pgm);
   b7152:	e9cd ce08 	strd	ip, lr, [sp, #32]
   b7156:	e9cd 6706 	strd	r6, r7, [sp, #24]
   b715a:	6804      	ldr	r4, [r0, #0]
   b715c:	9505      	str	r5, [sp, #20]
   b715e:	6964      	ldr	r4, [r4, #20]
   b7160:	46a4      	mov	ip, r4
  }
}
   b7162:	e8bd 40f0 	ldmia.w	sp!, {r4, r5, r6, r7, lr}
    writeImage(data1, x, y, w, h, invert, mirror_y, pgm);
   b7166:	4760      	bx	ip
}
   b7168:	bdf0      	pop	{r4, r5, r6, r7, pc}

000b716a <_ZN11GxEPD2_420c9drawImageEPKhssssbbb>:

void GxEPD2_420c::drawImage(const uint8_t bitmap[], int16_t x, int16_t y, int16_t w, int16_t h, bool invert, bool mirror_y, bool pgm)
{
   b716a:	e92d 47f0 	stmdb	sp!, {r4, r5, r6, r7, r8, r9, sl, lr}
   b716e:	b086      	sub	sp, #24
   b7170:	4604      	mov	r4, r0
   b7172:	f9bd 903c 	ldrsh.w	r9, [sp, #60]	; 0x3c
   b7176:	f89d 7040 	ldrb.w	r7, [sp, #64]	; 0x40
   b717a:	f89d e044 	ldrb.w	lr, [sp, #68]	; 0x44
   b717e:	f89d a048 	ldrb.w	sl, [sp, #72]	; 0x48
   b7182:	f9bd 8038 	ldrsh.w	r8, [sp, #56]	; 0x38
  writeImage(bitmap, x, y, w, h, invert, mirror_y, pgm);
   b7186:	f8cd 8000 	str.w	r8, [sp]
   b718a:	e9cd ea03 	strd	lr, sl, [sp, #12]
   b718e:	e9cd 9701 	strd	r9, r7, [sp, #4]
   b7192:	6807      	ldr	r7, [r0, #0]
   b7194:	697f      	ldr	r7, [r7, #20]
{
   b7196:	4615      	mov	r5, r2
   b7198:	461e      	mov	r6, r3
  writeImage(bitmap, x, y, w, h, invert, mirror_y, pgm);
   b719a:	47b8      	blx	r7
  refresh(x, y, w, h);
   b719c:	6823      	ldr	r3, [r4, #0]
   b719e:	f8cd 9038 	str.w	r9, [sp, #56]	; 0x38
   b71a2:	6b9f      	ldr	r7, [r3, #56]	; 0x38
   b71a4:	4632      	mov	r2, r6
   b71a6:	4643      	mov	r3, r8
   b71a8:	4629      	mov	r1, r5
   b71aa:	4620      	mov	r0, r4
   b71ac:	46bc      	mov	ip, r7
}
   b71ae:	b006      	add	sp, #24
   b71b0:	e8bd 47f0 	ldmia.w	sp!, {r4, r5, r6, r7, r8, r9, sl, lr}
  refresh(x, y, w, h);
   b71b4:	4760      	bx	ip

000b71b6 <_ZN11GxEPD2_420c13drawImagePartEPKhssssssssbbb>:

void GxEPD2_420c::drawImagePart(const uint8_t bitmap[], int16_t x_part, int16_t y_part, int16_t w_bitmap, int16_t h_bitmap,
                                int16_t x, int16_t y, int16_t w, int16_t h, bool invert, bool mirror_y, bool pgm)
{
   b71b6:	e92d 4ff0 	stmdb	sp!, {r4, r5, r6, r7, r8, r9, sl, fp, lr}
   b71ba:	b08d      	sub	sp, #52	; 0x34
   b71bc:	4604      	mov	r4, r0
   b71be:	f9bd 5060 	ldrsh.w	r5, [sp, #96]	; 0x60
   b71c2:	f9bd 706c 	ldrsh.w	r7, [sp, #108]	; 0x6c
   b71c6:	f9bd 6064 	ldrsh.w	r6, [sp, #100]	; 0x64
   b71ca:	f9bd 8068 	ldrsh.w	r8, [sp, #104]	; 0x68
   b71ce:	f89d 9070 	ldrb.w	r9, [sp, #112]	; 0x70
   b71d2:	f9bd e05c 	ldrsh.w	lr, [sp, #92]	; 0x5c
   b71d6:	f89d a074 	ldrb.w	sl, [sp, #116]	; 0x74
   b71da:	f89d b078 	ldrb.w	fp, [sp, #120]	; 0x78
   b71de:	f9bd c058 	ldrsh.w	ip, [sp, #88]	; 0x58
  writeImagePart(bitmap, x_part, y_part, w_bitmap, h_bitmap, x, y, w, h, invert, mirror_y, pgm);
   b71e2:	f8cd c000 	str.w	ip, [sp]
   b71e6:	e9cd 7905 	strd	r7, r9, [sp, #20]
   b71ea:	e9cd ab07 	strd	sl, fp, [sp, #28]
   b71ee:	e9cd 6803 	strd	r6, r8, [sp, #12]
   b71f2:	e9cd e501 	strd	lr, r5, [sp, #4]
{
   b71f6:	950b      	str	r5, [sp, #44]	; 0x2c
  writeImagePart(bitmap, x_part, y_part, w_bitmap, h_bitmap, x, y, w, h, invert, mirror_y, pgm);
   b71f8:	6805      	ldr	r5, [r0, #0]
   b71fa:	f8d5 901c 	ldr.w	r9, [r5, #28]
   b71fe:	47c8      	blx	r9
  refresh(x, y, w, h);
   b7200:	6823      	ldr	r3, [r4, #0]
   b7202:	9716      	str	r7, [sp, #88]	; 0x58
   b7204:	6b9f      	ldr	r7, [r3, #56]	; 0x38
   b7206:	990b      	ldr	r1, [sp, #44]	; 0x2c
   b7208:	4643      	mov	r3, r8
   b720a:	4632      	mov	r2, r6
   b720c:	4620      	mov	r0, r4
   b720e:	46bc      	mov	ip, r7
}
   b7210:	b00d      	add	sp, #52	; 0x34
   b7212:	e8bd 4ff0 	ldmia.w	sp!, {r4, r5, r6, r7, r8, r9, sl, fp, lr}
  refresh(x, y, w, h);
   b7216:	4760      	bx	ip

000b7218 <_ZN11GxEPD2_420c10drawNativeEPKhS1_ssssbbb>:
  writeImagePart(black, color, x_part, y_part, w_bitmap, h_bitmap, x, y, w, h, invert, mirror_y, pgm);
  refresh(x, y, w, h);
}

void GxEPD2_420c::drawNative(const uint8_t* data1, const uint8_t* data2, int16_t x, int16_t y, int16_t w, int16_t h, bool invert, bool mirror_y, bool pgm)
{
   b7218:	e92d 43f0 	stmdb	sp!, {r4, r5, r6, r7, r8, r9, lr}
   b721c:	b087      	sub	sp, #28
   b721e:	4604      	mov	r4, r0
   b7220:	f9bd 6038 	ldrsh.w	r6, [sp, #56]	; 0x38
   b7224:	f9bd 703c 	ldrsh.w	r7, [sp, #60]	; 0x3c
   b7228:	f9bd 8040 	ldrsh.w	r8, [sp, #64]	; 0x40
   b722c:	f89d c044 	ldrb.w	ip, [sp, #68]	; 0x44
   b7230:	f89d e048 	ldrb.w	lr, [sp, #72]	; 0x48
   b7234:	f89d 904c 	ldrb.w	r9, [sp, #76]	; 0x4c
  writeNative(data1, data2, x, y, w, h, invert, mirror_y, pgm);
   b7238:	e9cd 8c02 	strd	r8, ip, [sp, #8]
   b723c:	e9cd e904 	strd	lr, r9, [sp, #16]
   b7240:	e9cd 6700 	strd	r6, r7, [sp]
{
   b7244:	461d      	mov	r5, r3
  writeNative(data1, data2, x, y, w, h, invert, mirror_y, pgm);
   b7246:	f7ff ff75 	bl	b7134 <_ZN11GxEPD2_420c11writeNativeEPKhS1_ssssbbb>
  refresh(x, y, w, h);
   b724a:	6823      	ldr	r3, [r4, #0]
   b724c:	f8cd 8038 	str.w	r8, [sp, #56]	; 0x38
   b7250:	f8d3 e038 	ldr.w	lr, [r3, #56]	; 0x38
   b7254:	4632      	mov	r2, r6
   b7256:	463b      	mov	r3, r7
   b7258:	4629      	mov	r1, r5
   b725a:	4620      	mov	r0, r4
   b725c:	46f4      	mov	ip, lr
}
   b725e:	b007      	add	sp, #28
   b7260:	e8bd 43f0 	ldmia.w	sp!, {r4, r5, r6, r7, r8, r9, lr}
  refresh(x, y, w, h);
   b7264:	4760      	bx	ip

000b7266 <_ZN11GxEPD2_420c18_setPartialRamAreaEtttt>:
    _hibernating = true;
  }
}

void GxEPD2_420c::_setPartialRamArea(uint16_t x, uint16_t y, uint16_t w, uint16_t h)
{
   b7266:	e92d 41f0 	stmdb	sp!, {r4, r5, r6, r7, r8, lr}
  uint16_t xe = (x + w - 1) | 0x0007; // byte boundary inclusive (last byte)
   b726a:	1e5d      	subs	r5, r3, #1
{
   b726c:	f8bd 6018 	ldrh.w	r6, [sp, #24]
  uint16_t xe = (x + w - 1) | 0x0007; // byte boundary inclusive (last byte)
   b7270:	440d      	add	r5, r1
  uint16_t ye = y + h - 1;
  x &= 0xFFF8; // byte boundary
   b7272:	f021 0107 	bic.w	r1, r1, #7
{
   b7276:	4604      	mov	r4, r0
  x &= 0xFFF8; // byte boundary
   b7278:	b28f      	uxth	r7, r1
  uint16_t ye = y + h - 1;
   b727a:	3e01      	subs	r6, #1
  xe |= 0x0007; // byte boundary
  _writeCommand(0x90); // partial window
   b727c:	2190      	movs	r1, #144	; 0x90
{
   b727e:	4690      	mov	r8, r2
  uint16_t ye = y + h - 1;
   b7280:	4416      	add	r6, r2
  uint16_t xe = (x + w - 1) | 0x0007; // byte boundary inclusive (last byte)
   b7282:	f045 0507 	orr.w	r5, r5, #7
  _writeCommand(0x90); // partial window
   b7286:	f7ff febd 	bl	b7004 <_ZN10GxEPD2_EPD13_writeCommandEh>
  _writeData(x / 256);
   b728a:	0a39      	lsrs	r1, r7, #8
   b728c:	4620      	mov	r0, r4
   b728e:	f7ff feea 	bl	b7066 <_ZN10GxEPD2_EPD10_writeDataEh>
  uint16_t xe = (x + w - 1) | 0x0007; // byte boundary inclusive (last byte)
   b7292:	b22d      	sxth	r5, r5
  _writeData(x % 256);
   b7294:	f007 01f8 	and.w	r1, r7, #248	; 0xf8
   b7298:	4620      	mov	r0, r4
   b729a:	f7ff fee4 	bl	b7066 <_ZN10GxEPD2_EPD10_writeDataEh>
  _writeData(xe / 256);
   b729e:	f3c5 2107 	ubfx	r1, r5, #8, #8
   b72a2:	4620      	mov	r0, r4
   b72a4:	f7ff fedf 	bl	b7066 <_ZN10GxEPD2_EPD10_writeDataEh>
  _writeData(xe % 256);
   b72a8:	b2e9      	uxtb	r1, r5
   b72aa:	4620      	mov	r0, r4
   b72ac:	f7ff fedb 	bl	b7066 <_ZN10GxEPD2_EPD10_writeDataEh>
  _writeData(y / 256);
   b72b0:	ea4f 2118 	mov.w	r1, r8, lsr #8
   b72b4:	4620      	mov	r0, r4
   b72b6:	f7ff fed6 	bl	b7066 <_ZN10GxEPD2_EPD10_writeDataEh>
  uint16_t ye = y + h - 1;
   b72ba:	b2b6      	uxth	r6, r6
  _writeData(y % 256);
   b72bc:	fa5f f188 	uxtb.w	r1, r8
   b72c0:	4620      	mov	r0, r4
   b72c2:	f7ff fed0 	bl	b7066 <_ZN10GxEPD2_EPD10_writeDataEh>
  _writeData(ye / 256);
   b72c6:	0a31      	lsrs	r1, r6, #8
   b72c8:	4620      	mov	r0, r4
   b72ca:	f7ff fecc 	bl	b7066 <_ZN10GxEPD2_EPD10_writeDataEh>
  _writeData(ye % 256);
   b72ce:	b2f1      	uxtb	r1, r6
   b72d0:	4620      	mov	r0, r4
   b72d2:	f7ff fec8 	bl	b7066 <_ZN10GxEPD2_EPD10_writeDataEh>
  //_writeData(0x01); // distortion on full right half
  _writeData(0x00); // distortion on right half
   b72d6:	4620      	mov	r0, r4
   b72d8:	2100      	movs	r1, #0
}
   b72da:	e8bd 41f0 	ldmia.w	sp!, {r4, r5, r6, r7, r8, lr}
  _writeData(0x00); // distortion on right half
   b72de:	f7ff bec2 	b.w	b7066 <_ZN10GxEPD2_EPD10_writeDataEh>
	...

000b72e4 <_ZN11GxEPD2_420c8_PowerOnEv>:

void GxEPD2_420c::_PowerOn()
{
   b72e4:	b510      	push	{r4, lr}
  if (!_power_is_on)
   b72e6:	f890 3036 	ldrb.w	r3, [r0, #54]	; 0x36
{
   b72ea:	4604      	mov	r4, r0
  if (!_power_is_on)
   b72ec:	b93b      	cbnz	r3, b72fe <_ZN11GxEPD2_420c8_PowerOnEv+0x1a>
  {
    _writeCommand(0x04);
   b72ee:	2104      	movs	r1, #4
   b72f0:	f7ff fe88 	bl	b7004 <_ZN10GxEPD2_EPD13_writeCommandEh>
    _waitWhileBusy("_PowerOn", power_on_time);
   b72f4:	4904      	ldr	r1, [pc, #16]	; (b7308 <_ZN11GxEPD2_420c8_PowerOnEv+0x24>)
   b72f6:	2228      	movs	r2, #40	; 0x28
   b72f8:	4620      	mov	r0, r4
   b72fa:	f7ff fe2f 	bl	b6f5c <_ZN10GxEPD2_EPD14_waitWhileBusyEPKct>
  }
  _power_is_on = true;
   b72fe:	2301      	movs	r3, #1
   b7300:	f884 3036 	strb.w	r3, [r4, #54]	; 0x36
}
   b7304:	bd10      	pop	{r4, pc}
   b7306:	bf00      	nop
   b7308:	000d7a60 	.word	0x000d7a60

000b730c <_ZN11GxEPD2_420c9_PowerOffEv>:

void GxEPD2_420c::_PowerOff()
{
   b730c:	b510      	push	{r4, lr}
  _writeCommand(0x02); // power off
   b730e:	2102      	movs	r1, #2
{
   b7310:	4604      	mov	r4, r0
  _writeCommand(0x02); // power off
   b7312:	f7ff fe77 	bl	b7004 <_ZN10GxEPD2_EPD13_writeCommandEh>
  _waitWhileBusy("_PowerOff", power_off_time);
   b7316:	4904      	ldr	r1, [pc, #16]	; (b7328 <_ZN11GxEPD2_420c9_PowerOffEv+0x1c>)
   b7318:	221e      	movs	r2, #30
   b731a:	4620      	mov	r0, r4
   b731c:	f7ff fe1e 	bl	b6f5c <_ZN10GxEPD2_EPD14_waitWhileBusyEPKct>
  _power_is_on = false;
   b7320:	2300      	movs	r3, #0
   b7322:	f884 3036 	strb.w	r3, [r4, #54]	; 0x36
}
   b7326:	bd10      	pop	{r4, pc}
   b7328:	000d7a69 	.word	0x000d7a69

000b732c <_ZN11GxEPD2_420c8powerOffEv>:
  _PowerOff();
   b732c:	f7ff bfee 	b.w	b730c <_ZN11GxEPD2_420c9_PowerOffEv>

000b7330 <_ZN11GxEPD2_420c9hibernateEv>:
{
   b7330:	b510      	push	{r4, lr}
   b7332:	4604      	mov	r4, r0
  _PowerOff();
   b7334:	f7ff ffea 	bl	b730c <_ZN11GxEPD2_420c9_PowerOffEv>
  if (_rst >= 0)
   b7338:	f9b4 3010 	ldrsh.w	r3, [r4, #16]
   b733c:	2b00      	cmp	r3, #0
   b733e:	db0a      	blt.n	b7356 <_ZN11GxEPD2_420c9hibernateEv+0x26>
    _writeCommand(0x07); // deep sleep
   b7340:	2107      	movs	r1, #7
   b7342:	4620      	mov	r0, r4
   b7344:	f7ff fe5e 	bl	b7004 <_ZN10GxEPD2_EPD13_writeCommandEh>
    _writeData(0xA5);    // check code
   b7348:	21a5      	movs	r1, #165	; 0xa5
   b734a:	4620      	mov	r0, r4
   b734c:	f7ff fe8b 	bl	b7066 <_ZN10GxEPD2_EPD10_writeDataEh>
    _hibernating = true;
   b7350:	2301      	movs	r3, #1
   b7352:	f884 3038 	strb.w	r3, [r4, #56]	; 0x38
}
   b7356:	bd10      	pop	{r4, pc}

000b7358 <_ZN11GxEPD2_420c12_InitDisplayEv>:

void GxEPD2_420c::_InitDisplay()
{
   b7358:	b510      	push	{r4, lr}
  if (_hibernating) _reset();
   b735a:	f890 3038 	ldrb.w	r3, [r0, #56]	; 0x38
{
   b735e:	4604      	mov	r4, r0
  if (_hibernating) _reset();
   b7360:	b10b      	cbz	r3, b7366 <_ZN11GxEPD2_420c12_InitDisplayEv+0xe>
   b7362:	f7ff fd55 	bl	b6e10 <_ZN10GxEPD2_EPD6_resetEv>
  _writeCommand(0x06); //boost
   b7366:	4620      	mov	r0, r4
   b7368:	2106      	movs	r1, #6
   b736a:	f7ff fe4b 	bl	b7004 <_ZN10GxEPD2_EPD13_writeCommandEh>
  _writeData(0x17);
   b736e:	4620      	mov	r0, r4
   b7370:	2117      	movs	r1, #23
   b7372:	f7ff fe78 	bl	b7066 <_ZN10GxEPD2_EPD10_writeDataEh>
  _writeData(0x17);
   b7376:	4620      	mov	r0, r4
   b7378:	2117      	movs	r1, #23
   b737a:	f7ff fe74 	bl	b7066 <_ZN10GxEPD2_EPD10_writeDataEh>
  _writeData(0x17);
   b737e:	4620      	mov	r0, r4
   b7380:	2117      	movs	r1, #23
   b7382:	f7ff fe70 	bl	b7066 <_ZN10GxEPD2_EPD10_writeDataEh>
  _writeCommand(0x00);
   b7386:	4620      	mov	r0, r4
   b7388:	2100      	movs	r1, #0
   b738a:	f7ff fe3b 	bl	b7004 <_ZN10GxEPD2_EPD13_writeCommandEh>
  _writeData(0x0f); // LUT from OTP Pixel with B/W/R.
   b738e:	4620      	mov	r0, r4
   b7390:	210f      	movs	r1, #15
   b7392:	f7ff fe68 	bl	b7066 <_ZN10GxEPD2_EPD10_writeDataEh>
  _writeCommand(0x61); // resolution setting
   b7396:	4620      	mov	r0, r4
   b7398:	2161      	movs	r1, #97	; 0x61
   b739a:	f7ff fe33 	bl	b7004 <_ZN10GxEPD2_EPD13_writeCommandEh>
  _writeData (WIDTH / 256);
   b739e:	4620      	mov	r0, r4
   b73a0:	2101      	movs	r1, #1
   b73a2:	f7ff fe60 	bl	b7066 <_ZN10GxEPD2_EPD10_writeDataEh>
  _writeData (WIDTH % 256);
   b73a6:	4620      	mov	r0, r4
   b73a8:	2190      	movs	r1, #144	; 0x90
   b73aa:	f7ff fe5c 	bl	b7066 <_ZN10GxEPD2_EPD10_writeDataEh>
  _writeData (HEIGHT / 256);
   b73ae:	4620      	mov	r0, r4
   b73b0:	2101      	movs	r1, #1
   b73b2:	f7ff fe58 	bl	b7066 <_ZN10GxEPD2_EPD10_writeDataEh>
  _writeData (HEIGHT % 256);
   b73b6:	4620      	mov	r0, r4
   b73b8:	212c      	movs	r1, #44	; 0x2c
   b73ba:	f7ff fe54 	bl	b7066 <_ZN10GxEPD2_EPD10_writeDataEh>
  _writeCommand(0x50); // VCOM AND DATA INTERVAL SETTING
   b73be:	4620      	mov	r0, r4
   b73c0:	2150      	movs	r1, #80	; 0x50
   b73c2:	f7ff fe1f 	bl	b7004 <_ZN10GxEPD2_EPD13_writeCommandEh>
  _writeData(0xf7);    // WBmode:VBDF 17|D7 VBDW 97 VBDB 57   WBRmode:VBDF F7 VBDW 77 VBDB 37  VBDR B7
   b73c6:	4620      	mov	r0, r4
   b73c8:	21f7      	movs	r1, #247	; 0xf7
}
   b73ca:	e8bd 4010 	ldmia.w	sp!, {r4, lr}
  _writeData(0xf7);    // WBmode:VBDF 17|D7 VBDW 97 VBDB 57   WBRmode:VBDF F7 VBDW 77 VBDB 37  VBDR B7
   b73ce:	f7ff be4a 	b.w	b7066 <_ZN10GxEPD2_EPD10_writeDataEh>

000b73d2 <_ZN11GxEPD2_420c10_Init_FullEv>:

void GxEPD2_420c::_Init_Full()
{
   b73d2:	b510      	push	{r4, lr}
   b73d4:	4604      	mov	r4, r0
  _InitDisplay();
   b73d6:	f7ff ffbf 	bl	b7358 <_ZN11GxEPD2_420c12_InitDisplayEv>
  _PowerOn();
   b73da:	4620      	mov	r0, r4
}
   b73dc:	e8bd 4010 	ldmia.w	sp!, {r4, lr}
  _PowerOn();
   b73e0:	f7ff bf80 	b.w	b72e4 <_ZN11GxEPD2_420c8_PowerOnEv>

000b73e4 <_ZN11GxEPD2_420c14writeImagePartEPKhS1_ssssssssbbb>:
{
   b73e4:	e92d 4ff0 	stmdb	sp!, {r4, r5, r6, r7, r8, r9, sl, fp, lr}
   b73e8:	ed2d 8b02 	vpush	{d8}
   b73ec:	b08b      	sub	sp, #44	; 0x2c
   b73ee:	469a      	mov	sl, r3
   b73f0:	f9bd 3058 	ldrsh.w	r3, [sp, #88]	; 0x58
   b73f4:	9302      	str	r3, [sp, #8]
   b73f6:	f9bd 3060 	ldrsh.w	r3, [sp, #96]	; 0x60
   b73fa:	9303      	str	r3, [sp, #12]
   b73fc:	f89d 3074 	ldrb.w	r3, [sp, #116]	; 0x74
   b7400:	9305      	str	r3, [sp, #20]
   b7402:	f89d 3078 	ldrb.w	r3, [sp, #120]	; 0x78
   b7406:	9306      	str	r3, [sp, #24]
  if (_initial_write) writeScreenBuffer(); // initial full screen buffer clean
   b7408:	f890 3034 	ldrb.w	r3, [r0, #52]	; 0x34
{
   b740c:	f9bd b05c 	ldrsh.w	fp, [sp, #92]	; 0x5c
   b7410:	f9bd 9064 	ldrsh.w	r9, [sp, #100]	; 0x64
   b7414:	f9bd 5068 	ldrsh.w	r5, [sp, #104]	; 0x68
   b7418:	f9bd 606c 	ldrsh.w	r6, [sp, #108]	; 0x6c
   b741c:	f9bd 7070 	ldrsh.w	r7, [sp, #112]	; 0x70
   b7420:	9108      	str	r1, [sp, #32]
   b7422:	4604      	mov	r4, r0
   b7424:	9204      	str	r2, [sp, #16]
  if (_initial_write) writeScreenBuffer(); // initial full screen buffer clean
   b7426:	b11b      	cbz	r3, b7430 <_ZN11GxEPD2_420c14writeImagePartEPKhS1_ssssssssbbb+0x4c>
   b7428:	6803      	ldr	r3, [r0, #0]
   b742a:	21ff      	movs	r1, #255	; 0xff
   b742c:	691b      	ldr	r3, [r3, #16]
   b742e:	4798      	blx	r3
  delay(1); // yield() to avoid WDT on ESP8266 and ESP32
   b7430:	2001      	movs	r0, #1
   b7432:	f001 f895 	bl	b8560 <delay>
  if ((w_bitmap < 0) || (h_bitmap < 0) || (w < 0) || (h < 0)) return;
   b7436:	f1bb 0f00 	cmp.w	fp, #0
   b743a:	f2c0 811b 	blt.w	b7674 <_ZN11GxEPD2_420c14writeImagePartEPKhS1_ssssssssbbb+0x290>
   b743e:	9b03      	ldr	r3, [sp, #12]
   b7440:	2b00      	cmp	r3, #0
   b7442:	f2c0 8117 	blt.w	b7674 <_ZN11GxEPD2_420c14writeImagePartEPKhS1_ssssssssbbb+0x290>
   b7446:	2e00      	cmp	r6, #0
   b7448:	f2c0 8114 	blt.w	b7674 <_ZN11GxEPD2_420c14writeImagePartEPKhS1_ssssssssbbb+0x290>
   b744c:	2f00      	cmp	r7, #0
   b744e:	f2c0 8111 	blt.w	b7674 <_ZN11GxEPD2_420c14writeImagePartEPKhS1_ssssssssbbb+0x290>
  if ((x_part < 0) || (x_part >= w_bitmap)) return;
   b7452:	f1ba 0f00 	cmp.w	sl, #0
   b7456:	f2c0 810d 	blt.w	b7674 <_ZN11GxEPD2_420c14writeImagePartEPKhS1_ssssssssbbb+0x290>
   b745a:	45d3      	cmp	fp, sl
   b745c:	f340 810a 	ble.w	b7674 <_ZN11GxEPD2_420c14writeImagePartEPKhS1_ssssssssbbb+0x290>
  if ((y_part < 0) || (y_part >= h_bitmap)) return;
   b7460:	9b02      	ldr	r3, [sp, #8]
   b7462:	2b00      	cmp	r3, #0
   b7464:	f2c0 8106 	blt.w	b7674 <_ZN11GxEPD2_420c14writeImagePartEPKhS1_ssssssssbbb+0x290>
   b7468:	e9dd 2302 	ldrd	r2, r3, [sp, #8]
   b746c:	4293      	cmp	r3, r2
   b746e:	f340 8101 	ble.w	b7674 <_ZN11GxEPD2_420c14writeImagePartEPKhS1_ssssssssbbb+0x290>
  h = h_bitmap - y_part < h ? h_bitmap - y_part : h; // limit
   b7472:	eba3 0802 	sub.w	r8, r3, r2
   b7476:	4547      	cmp	r7, r8
   b7478:	bfa8      	it	ge
   b747a:	4647      	movge	r7, r8
  x -= x % 8; // byte boundary
   b747c:	f1d9 0300 	rsbs	r3, r9, #0
   b7480:	f003 0307 	and.w	r3, r3, #7
   b7484:	fa1f f089 	uxth.w	r0, r9
   b7488:	f009 0907 	and.w	r9, r9, #7
   b748c:	bf58      	it	pl
   b748e:	f1c3 0900 	rsbpl	r9, r3, #0
  w = w_bitmap - x_part < w ? w_bitmap - x_part : w; // limit
   b7492:	f02a 0307 	bic.w	r3, sl, #7
   b7496:	ebab 0303 	sub.w	r3, fp, r3
   b749a:	429e      	cmp	r6, r3
   b749c:	bfa8      	it	ge
   b749e:	461e      	movge	r6, r3
  w = 8 * ((w + 7) / 8); // byte boundary, bitmaps are padded
   b74a0:	f116 0c07 	adds.w	ip, r6, #7
  x -= x % 8; // byte boundary
   b74a4:	fa1f f989 	uxth.w	r9, r9
  w = 8 * ((w + 7) / 8); // byte boundary, bitmaps are padded
   b74a8:	bf48      	it	mi
   b74aa:	f106 0c0e 	addmi.w	ip, r6, #14
  x -= x % 8; // byte boundary
   b74ae:	eba0 0109 	sub.w	r1, r0, r9
   b74b2:	b209      	sxth	r1, r1
  w = 8 * ((w + 7) / 8); // byte boundary, bitmaps are padded
   b74b4:	f02c 0c07 	bic.w	ip, ip, #7
  int16_t x1 = x < 0 ? 0 : x; // limit
   b74b8:	ea21 72e1 	bic.w	r2, r1, r1, asr #31
   b74bc:	eba9 0300 	sub.w	r3, r9, r0
  int16_t w1 = x + w < int16_t(WIDTH) ? w : int16_t(WIDTH) - x; // limit
   b74c0:	fa01 f18c 	sxtah	r1, r1, ip
   b74c4:	f5b1 7fc8 	cmp.w	r1, #400	; 0x190
   b74c8:	b29b      	uxth	r3, r3
  int16_t h1 = y + h < int16_t(HEIGHT) ? h : int16_t(HEIGHT) - y; // limit
   b74ca:	eb05 0107 	add.w	r1, r5, r7
  w = 8 * ((w + 7) / 8); // byte boundary, bitmaps are padded
   b74ce:	fa0f f68c 	sxth.w	r6, ip
  int16_t w1 = x + w < int16_t(WIDTH) ? w : int16_t(WIDTH) - x; // limit
   b74d2:	bfa4      	itt	ge
   b74d4:	f503 76c8 	addge.w	r6, r3, #400	; 0x190
   b74d8:	b236      	sxthge	r6, r6
  int16_t h1 = y + h < int16_t(HEIGHT) ? h : int16_t(HEIGHT) - y; // limit
   b74da:	fa1f f985 	uxth.w	r9, r5
   b74de:	f5b1 7f96 	cmp.w	r1, #300	; 0x12c
   b74e2:	bfa8      	it	ge
   b74e4:	f5c9 7796 	rsbge	r7, r9, #300	; 0x12c
   b74e8:	fa0f f887 	sxth.w	r8, r7
  int16_t dx = x1 - x;
   b74ec:	fa13 f782 	uxtah	r7, r3, r2
   b74f0:	b2bf      	uxth	r7, r7
  w1 -= dx;
   b74f2:	1bf6      	subs	r6, r6, r7
   b74f4:	b2b3      	uxth	r3, r6
   b74f6:	b236      	sxth	r6, r6
  int16_t dx = x1 - x;
   b74f8:	b291      	uxth	r1, r2
  if ((w1 <= 0) || (h1 <= 0)) return;
   b74fa:	2e00      	cmp	r6, #0
  int16_t dx = x1 - x;
   b74fc:	ee08 1a10 	vmov	s16, r1
  if ((w1 <= 0) || (h1 <= 0)) return;
   b7500:	f340 80b8 	ble.w	b7674 <_ZN11GxEPD2_420c14writeImagePartEPKhS1_ssssssssbbb+0x290>
  int16_t y1 = y < 0 ? 0 : y; // limit
   b7504:	ea25 75e5 	bic.w	r5, r5, r5, asr #31
  int16_t dy = y1 - y;
   b7508:	b2ad      	uxth	r5, r5
  h1 -= dy;
   b750a:	eba9 0205 	sub.w	r2, r9, r5
   b750e:	4490      	add	r8, r2
   b7510:	fa1f f288 	uxth.w	r2, r8
   b7514:	fa0f f888 	sxth.w	r8, r8
  if ((w1 <= 0) || (h1 <= 0)) return;
   b7518:	f1b8 0f00 	cmp.w	r8, #0
  h1 -= dy;
   b751c:	9207      	str	r2, [sp, #28]
  if ((w1 <= 0) || (h1 <= 0)) return;
   b751e:	f340 80a9 	ble.w	b7674 <_ZN11GxEPD2_420c14writeImagePartEPKhS1_ssssssssbbb+0x290>
  if (!_using_partial_mode) _Init_Part();
   b7522:	f894 2037 	ldrb.w	r2, [r4, #55]	; 0x37
   b7526:	b922      	cbnz	r2, b7532 <_ZN11GxEPD2_420c14writeImagePartEPKhS1_ssssssssbbb+0x14e>
   b7528:	4620      	mov	r0, r4
   b752a:	9309      	str	r3, [sp, #36]	; 0x24
   b752c:	f7ff ff51 	bl	b73d2 <_ZN11GxEPD2_420c10_Init_FullEv>
   b7530:	9b09      	ldr	r3, [sp, #36]	; 0x24
   b7532:	9309      	str	r3, [sp, #36]	; 0x24
  _writeCommand(0x91); // partial in
   b7534:	2191      	movs	r1, #145	; 0x91
   b7536:	4620      	mov	r0, r4
   b7538:	f7ff fd64 	bl	b7004 <_ZN10GxEPD2_EPD13_writeCommandEh>
  _setPartialRamArea(x1, y1, w1, h1);
   b753c:	9b07      	ldr	r3, [sp, #28]
   b753e:	9300      	str	r3, [sp, #0]
   b7540:	462a      	mov	r2, r5
   b7542:	9b09      	ldr	r3, [sp, #36]	; 0x24
   b7544:	ee18 1a10 	vmov	r1, s16
   b7548:	4620      	mov	r0, r4
   b754a:	f7ff fe8c 	bl	b7266 <_ZN11GxEPD2_420c18_setPartialRamAreaEtttt>
  _writeCommand(0x10);
   b754e:	2110      	movs	r1, #16
   b7550:	4620      	mov	r0, r4
   b7552:	f7ff fd57 	bl	b7004 <_ZN10GxEPD2_EPD13_writeCommandEh>
      int16_t idx = mirror_y ? x_part / 8 + j + dx / 8 + ((h_bitmap - 1 - (y_part + i + dy))) * wb_bitmap : x_part / 8 + j + dx / 8 + (y_part + i + dy) * wb_bitmap;
   b7556:	b23f      	sxth	r7, r7
  _startTransfer();
   b7558:	4620      	mov	r0, r4
   b755a:	f7ff fda5 	bl	b70a8 <_ZN10GxEPD2_EPD14_startTransferEv>
      int16_t idx = mirror_y ? x_part / 8 + j + dx / 8 + ((h_bitmap - 1 - (y_part + i + dy))) * wb_bitmap : x_part / 8 + j + dx / 8 + (y_part + i + dy) * wb_bitmap;
   b755e:	2f00      	cmp	r7, #0
   b7560:	ea4f 03ea 	mov.w	r3, sl, asr #3
   b7564:	bfb8      	it	lt
   b7566:	3707      	addlt	r7, #7
   b7568:	eb03 07e7 	add.w	r7, r3, r7, asr #3
   b756c:	9b02      	ldr	r3, [sp, #8]
  int16_t dy = y1 - y;
   b756e:	eba5 0509 	sub.w	r5, r5, r9
   b7572:	b22d      	sxth	r5, r5
   b7574:	ea6f 0a03 	mvn.w	sl, r3
   b7578:	9b03      	ldr	r3, [sp, #12]
   b757a:	ebaa 0a05 	sub.w	sl, sl, r5
   b757e:	449a      	add	sl, r3
   b7580:	9b02      	ldr	r3, [sp, #8]
  int16_t wb_bitmap = (w_bitmap + 7) / 8; // width bytes, bitmaps are padded
   b7582:	f10b 0b07 	add.w	fp, fp, #7
   b7586:	f3cb 0bcf 	ubfx	fp, fp, #3, #16
   b758a:	441d      	add	r5, r3
   b758c:	fb15 f50b 	smulbb	r5, r5, fp
   b7590:	fb1a fa0b 	smulbb	sl, sl, fp
   b7594:	fa1a fa87 	uxtah	sl, sl, r7
   b7598:	fa15 f787 	uxtah	r7, r5, r7
   b759c:	fa1f fa8a 	uxth.w	sl, sl
   b75a0:	b2bf      	uxth	r7, r7
    for (int16_t j = 0; j < w1 / 8; j++)
   b75a2:	10f6      	asrs	r6, r6, #3
      int16_t idx = mirror_y ? x_part / 8 + j + dx / 8 + ((h_bitmap - 1 - (y_part + i + dy))) * wb_bitmap : x_part / 8 + j + dx / 8 + (y_part + i + dy) * wb_bitmap;
   b75a4:	463d      	mov	r5, r7
   b75a6:	46d1      	mov	r9, sl
   b75a8:	2200      	movs	r2, #0
   b75aa:	2300      	movs	r3, #0
    for (int16_t j = 0; j < w1 / 8; j++)
   b75ac:	b219      	sxth	r1, r3
   b75ae:	428e      	cmp	r6, r1
   b75b0:	dd15      	ble.n	b75de <_ZN11GxEPD2_420c14writeImagePartEPKhS1_ssssssssbbb+0x1fa>
      int16_t idx = mirror_y ? x_part / 8 + j + dx / 8 + ((h_bitmap - 1 - (y_part + i + dy))) * wb_bitmap : x_part / 8 + j + dx / 8 + (y_part + i + dy) * wb_bitmap;
   b75b2:	9906      	ldr	r1, [sp, #24]
   b75b4:	b189      	cbz	r1, b75da <_ZN11GxEPD2_420c14writeImagePartEPKhS1_ssssssssbbb+0x1f6>
   b75b6:	eb09 0103 	add.w	r1, r9, r3
        data = black[idx];
   b75ba:	9808      	ldr	r0, [sp, #32]
   b75bc:	b209      	sxth	r1, r1
   b75be:	5c41      	ldrb	r1, [r0, r1]
      if (invert) data = ~data;
   b75c0:	9805      	ldr	r0, [sp, #20]
   b75c2:	b108      	cbz	r0, b75c8 <_ZN11GxEPD2_420c14writeImagePartEPKhS1_ssssssssbbb+0x1e4>
   b75c4:	43c9      	mvns	r1, r1
   b75c6:	b2c9      	uxtb	r1, r1
      _transfer(data);
   b75c8:	4620      	mov	r0, r4
   b75ca:	e9cd 2302 	strd	r2, r3, [sp, #8]
   b75ce:	f7ff fd7d 	bl	b70cc <_ZN10GxEPD2_EPD9_transferEh>
    for (int16_t j = 0; j < w1 / 8; j++)
   b75d2:	9b03      	ldr	r3, [sp, #12]
   b75d4:	9a02      	ldr	r2, [sp, #8]
   b75d6:	3301      	adds	r3, #1
   b75d8:	e7e8      	b.n	b75ac <_ZN11GxEPD2_420c14writeImagePartEPKhS1_ssssssssbbb+0x1c8>
   b75da:	18e9      	adds	r1, r5, r3
   b75dc:	e7ed      	b.n	b75ba <_ZN11GxEPD2_420c14writeImagePartEPKhS1_ssssssssbbb+0x1d6>
  for (int16_t i = 0; i < h1; i++)
   b75de:	3201      	adds	r2, #1
   b75e0:	b213      	sxth	r3, r2
   b75e2:	eba9 090b 	sub.w	r9, r9, fp
   b75e6:	445d      	add	r5, fp
   b75e8:	4598      	cmp	r8, r3
   b75ea:	fa1f f989 	uxth.w	r9, r9
   b75ee:	b2ad      	uxth	r5, r5
   b75f0:	dcdb      	bgt.n	b75aa <_ZN11GxEPD2_420c14writeImagePartEPKhS1_ssssssssbbb+0x1c6>
  _endTransfer();
   b75f2:	4620      	mov	r0, r4
   b75f4:	f7ff fd6d 	bl	b70d2 <_ZN10GxEPD2_EPD12_endTransferEv>
  _writeCommand(0x13);
   b75f8:	2113      	movs	r1, #19
   b75fa:	4620      	mov	r0, r4
   b75fc:	f7ff fd02 	bl	b7004 <_ZN10GxEPD2_EPD13_writeCommandEh>
  _startTransfer();
   b7600:	4620      	mov	r0, r4
   b7602:	f7ff fd51 	bl	b70a8 <_ZN10GxEPD2_EPD14_startTransferEv>
   b7606:	f04f 0900 	mov.w	r9, #0
   b760a:	2500      	movs	r5, #0
    for (int16_t j = 0; j < w1 / 8; j++)
   b760c:	b22b      	sxth	r3, r5
   b760e:	429e      	cmp	r6, r3
   b7610:	dd15      	ble.n	b763e <_ZN11GxEPD2_420c14writeImagePartEPKhS1_ssssssssbbb+0x25a>
      if (color)
   b7612:	9b04      	ldr	r3, [sp, #16]
   b7614:	b18b      	cbz	r3, b763a <_ZN11GxEPD2_420c14writeImagePartEPKhS1_ssssssssbbb+0x256>
        int16_t idx = mirror_y ? x_part / 8 + j + dx / 8 + ((h_bitmap - 1 - (y_part + i + dy))) * wb_bitmap : x_part / 8 + j + dx / 8 + (y_part + i + dy) * wb_bitmap;
   b7616:	9b06      	ldr	r3, [sp, #24]
   b7618:	b16b      	cbz	r3, b7636 <_ZN11GxEPD2_420c14writeImagePartEPKhS1_ssssssssbbb+0x252>
   b761a:	eb0a 0305 	add.w	r3, sl, r5
   b761e:	b21b      	sxth	r3, r3
          data = color[idx];
   b7620:	9a04      	ldr	r2, [sp, #16]
   b7622:	5cd1      	ldrb	r1, [r2, r3]
        if (invert) data = ~data;
   b7624:	9b05      	ldr	r3, [sp, #20]
   b7626:	b10b      	cbz	r3, b762c <_ZN11GxEPD2_420c14writeImagePartEPKhS1_ssssssssbbb+0x248>
   b7628:	43c9      	mvns	r1, r1
   b762a:	b2c9      	uxtb	r1, r1
      _transfer(data);
   b762c:	4620      	mov	r0, r4
   b762e:	f7ff fd4d 	bl	b70cc <_ZN10GxEPD2_EPD9_transferEh>
    for (int16_t j = 0; j < w1 / 8; j++)
   b7632:	3501      	adds	r5, #1
   b7634:	e7ea      	b.n	b760c <_ZN11GxEPD2_420c14writeImagePartEPKhS1_ssssssssbbb+0x228>
   b7636:	197b      	adds	r3, r7, r5
   b7638:	e7f1      	b.n	b761e <_ZN11GxEPD2_420c14writeImagePartEPKhS1_ssssssssbbb+0x23a>
      uint8_t data = 0xFF;
   b763a:	21ff      	movs	r1, #255	; 0xff
   b763c:	e7f6      	b.n	b762c <_ZN11GxEPD2_420c14writeImagePartEPKhS1_ssssssssbbb+0x248>
  for (int16_t i = 0; i < h1; i++)
   b763e:	f109 0901 	add.w	r9, r9, #1
   b7642:	fa0f f389 	sxth.w	r3, r9
   b7646:	ebaa 0a0b 	sub.w	sl, sl, fp
   b764a:	445f      	add	r7, fp
   b764c:	4598      	cmp	r8, r3
   b764e:	fa1f fa8a 	uxth.w	sl, sl
   b7652:	b2bf      	uxth	r7, r7
   b7654:	dcd9      	bgt.n	b760a <_ZN11GxEPD2_420c14writeImagePartEPKhS1_ssssssssbbb+0x226>
  _endTransfer();
   b7656:	4620      	mov	r0, r4
   b7658:	f7ff fd3b 	bl	b70d2 <_ZN10GxEPD2_EPD12_endTransferEv>
  _writeCommand(0x92); // partial out
   b765c:	4620      	mov	r0, r4
   b765e:	2192      	movs	r1, #146	; 0x92
   b7660:	f7ff fcd0 	bl	b7004 <_ZN10GxEPD2_EPD13_writeCommandEh>
  delay(1); // yield() to avoid WDT on ESP8266 and ESP32
   b7664:	2001      	movs	r0, #1
}
   b7666:	b00b      	add	sp, #44	; 0x2c
   b7668:	ecbd 8b02 	vpop	{d8}
   b766c:	e8bd 4ff0 	ldmia.w	sp!, {r4, r5, r6, r7, r8, r9, sl, fp, lr}
  delay(1); // yield() to avoid WDT on ESP8266 and ESP32
   b7670:	f000 bf76 	b.w	b8560 <delay>
}
   b7674:	b00b      	add	sp, #44	; 0x2c
   b7676:	ecbd 8b02 	vpop	{d8}
   b767a:	e8bd 8ff0 	ldmia.w	sp!, {r4, r5, r6, r7, r8, r9, sl, fp, pc}

000b767e <_ZN11GxEPD2_420c14writeImagePartEPKhssssssssbbb>:
{
   b767e:	b510      	push	{r4, lr}
   b7680:	b08a      	sub	sp, #40	; 0x28
  writeImagePart(bitmap, NULL, x_part, y_part, w_bitmap, h_bitmap, x, y, w, h, invert, mirror_y, pgm);
   b7682:	f89d 4050 	ldrb.w	r4, [sp, #80]	; 0x50
   b7686:	9409      	str	r4, [sp, #36]	; 0x24
   b7688:	f89d 404c 	ldrb.w	r4, [sp, #76]	; 0x4c
   b768c:	9408      	str	r4, [sp, #32]
   b768e:	f89d 4048 	ldrb.w	r4, [sp, #72]	; 0x48
   b7692:	9407      	str	r4, [sp, #28]
   b7694:	f9bd 4044 	ldrsh.w	r4, [sp, #68]	; 0x44
   b7698:	9406      	str	r4, [sp, #24]
   b769a:	f9bd 4040 	ldrsh.w	r4, [sp, #64]	; 0x40
   b769e:	9405      	str	r4, [sp, #20]
   b76a0:	f9bd 403c 	ldrsh.w	r4, [sp, #60]	; 0x3c
   b76a4:	9404      	str	r4, [sp, #16]
   b76a6:	f9bd 4038 	ldrsh.w	r4, [sp, #56]	; 0x38
   b76aa:	9403      	str	r4, [sp, #12]
   b76ac:	f9bd 4034 	ldrsh.w	r4, [sp, #52]	; 0x34
   b76b0:	9402      	str	r4, [sp, #8]
   b76b2:	f9bd 4030 	ldrsh.w	r4, [sp, #48]	; 0x30
   b76b6:	e9cd 3400 	strd	r3, r4, [sp]
   b76ba:	4613      	mov	r3, r2
   b76bc:	2200      	movs	r2, #0
   b76be:	f7ff fe91 	bl	b73e4 <_ZN11GxEPD2_420c14writeImagePartEPKhS1_ssssssssbbb>
}
   b76c2:	b00a      	add	sp, #40	; 0x28
   b76c4:	bd10      	pop	{r4, pc}

000b76c6 <_ZN11GxEPD2_420c13drawImagePartEPKhS1_ssssssssbbb>:
{
   b76c6:	e92d 4ff0 	stmdb	sp!, {r4, r5, r6, r7, r8, r9, sl, fp, lr}
   b76ca:	b08d      	sub	sp, #52	; 0x34
   b76cc:	f9bd 5060 	ldrsh.w	r5, [sp, #96]	; 0x60
   b76d0:	f9bd 7070 	ldrsh.w	r7, [sp, #112]	; 0x70
   b76d4:	f9bd c058 	ldrsh.w	ip, [sp, #88]	; 0x58
   b76d8:	f9bd 8064 	ldrsh.w	r8, [sp, #100]	; 0x64
   b76dc:	f9bd 606c 	ldrsh.w	r6, [sp, #108]	; 0x6c
   b76e0:	f9bd e05c 	ldrsh.w	lr, [sp, #92]	; 0x5c
   b76e4:	f89d 9074 	ldrb.w	r9, [sp, #116]	; 0x74
   b76e8:	f89d a078 	ldrb.w	sl, [sp, #120]	; 0x78
   b76ec:	f89d b07c 	ldrb.w	fp, [sp, #124]	; 0x7c
   b76f0:	900b      	str	r0, [sp, #44]	; 0x2c
   b76f2:	462c      	mov	r4, r5
   b76f4:	f9bd 5068 	ldrsh.w	r5, [sp, #104]	; 0x68
  writeImagePart(black, color, x_part, y_part, w_bitmap, h_bitmap, x, y, w, h, invert, mirror_y, pgm);
   b76f8:	e9cd 7906 	strd	r7, r9, [sp, #24]
   b76fc:	e9cd ce00 	strd	ip, lr, [sp]
   b7700:	e9cd ab08 	strd	sl, fp, [sp, #32]
   b7704:	e9cd 5604 	strd	r5, r6, [sp, #16]
   b7708:	e9cd 4802 	strd	r4, r8, [sp, #8]
   b770c:	f7ff fe6a 	bl	b73e4 <_ZN11GxEPD2_420c14writeImagePartEPKhS1_ssssssssbbb>
  refresh(x, y, w, h);
   b7710:	9b0b      	ldr	r3, [sp, #44]	; 0x2c
   b7712:	980b      	ldr	r0, [sp, #44]	; 0x2c
   b7714:	681b      	ldr	r3, [r3, #0]
   b7716:	9716      	str	r7, [sp, #88]	; 0x58
   b7718:	6b9f      	ldr	r7, [r3, #56]	; 0x38
   b771a:	462a      	mov	r2, r5
   b771c:	4633      	mov	r3, r6
   b771e:	4641      	mov	r1, r8
   b7720:	46bc      	mov	ip, r7
}
   b7722:	b00d      	add	sp, #52	; 0x34
   b7724:	e8bd 4ff0 	ldmia.w	sp!, {r4, r5, r6, r7, r8, r9, sl, fp, lr}
  refresh(x, y, w, h);
   b7728:	4760      	bx	ip

000b772a <_ZN11GxEPD2_420c10writeImageEPKhS1_ssssbbb>:
{
   b772a:	e92d 4ff0 	stmdb	sp!, {r4, r5, r6, r7, r8, r9, sl, fp, lr}
   b772e:	b08b      	sub	sp, #44	; 0x2c
   b7730:	461c      	mov	r4, r3
   b7732:	f89d 305c 	ldrb.w	r3, [sp, #92]	; 0x5c
   b7736:	9306      	str	r3, [sp, #24]
   b7738:	f89d 3060 	ldrb.w	r3, [sp, #96]	; 0x60
   b773c:	9307      	str	r3, [sp, #28]
  if (_initial_write) writeScreenBuffer(); // initial full screen buffer clean
   b773e:	f890 3034 	ldrb.w	r3, [r0, #52]	; 0x34
{
   b7742:	f9bd 7050 	ldrsh.w	r7, [sp, #80]	; 0x50
   b7746:	f9bd 8054 	ldrsh.w	r8, [sp, #84]	; 0x54
   b774a:	f9bd 6058 	ldrsh.w	r6, [sp, #88]	; 0x58
   b774e:	e9cd 1204 	strd	r1, r2, [sp, #16]
   b7752:	4605      	mov	r5, r0
  if (_initial_write) writeScreenBuffer(); // initial full screen buffer clean
   b7754:	b11b      	cbz	r3, b775e <_ZN11GxEPD2_420c10writeImageEPKhS1_ssssbbb+0x34>
   b7756:	6803      	ldr	r3, [r0, #0]
   b7758:	21ff      	movs	r1, #255	; 0xff
   b775a:	691b      	ldr	r3, [r3, #16]
   b775c:	4798      	blx	r3
  delay(1); // yield() to avoid WDT on ESP8266 and ESP32
   b775e:	2001      	movs	r0, #1
   b7760:	f000 fefe 	bl	b8560 <delay>
  x -= x % 8; // byte boundary
   b7764:	4262      	negs	r2, r4
   b7766:	f002 0207 	and.w	r2, r2, #7
   b776a:	b2a3      	uxth	r3, r4
   b776c:	f004 0407 	and.w	r4, r4, #7
   b7770:	bf58      	it	pl
   b7772:	4254      	negpl	r4, r2
  int16_t wb = (w + 7) / 8; // width bytes, bitmaps are padded
   b7774:	f118 0907 	adds.w	r9, r8, #7
   b7778:	bf48      	it	mi
   b777a:	f108 090e 	addmi.w	r9, r8, #14
  x -= x % 8; // byte boundary
   b777e:	b2a4      	uxth	r4, r4
   b7780:	1b19      	subs	r1, r3, r4
  w = wb * 8; // byte boundary
   b7782:	f3c9 09cf 	ubfx	r9, r9, #3, #16
  x -= x % 8; // byte boundary
   b7786:	b209      	sxth	r1, r1
  w = wb * 8; // byte boundary
   b7788:	ea4f 00c9 	mov.w	r0, r9, lsl #3
  int16_t x1 = x < 0 ? 0 : x; // limit
   b778c:	ea21 72e1 	bic.w	r2, r1, r1, asr #31
   b7790:	1ae4      	subs	r4, r4, r3
  int16_t w1 = x + w < int16_t(WIDTH) ? w : int16_t(WIDTH) - x; // limit
   b7792:	fa01 f180 	sxtah	r1, r1, r0
   b7796:	f5b1 7fc8 	cmp.w	r1, #400	; 0x190
   b779a:	b2a4      	uxth	r4, r4
  w = wb * 8; // byte boundary
   b779c:	fa0f f880 	sxth.w	r8, r0
  int16_t w1 = x + w < int16_t(WIDTH) ? w : int16_t(WIDTH) - x; // limit
   b77a0:	bfa8      	it	ge
   b77a2:	f504 78c8 	addge.w	r8, r4, #400	; 0x190
  int16_t dx = x1 - x;
   b77a6:	fa14 f482 	uxtah	r4, r4, r2
  int16_t w1 = x + w < int16_t(WIDTH) ? w : int16_t(WIDTH) - x; // limit
   b77aa:	bfa8      	it	ge
   b77ac:	fa0f f888 	sxthge.w	r8, r8
  int16_t h1 = y + h < int16_t(HEIGHT) ? h : int16_t(HEIGHT) - y; // limit
   b77b0:	19bb      	adds	r3, r7, r6
  int16_t dx = x1 - x;
   b77b2:	b2a4      	uxth	r4, r4
  int16_t h1 = y + h < int16_t(HEIGHT) ? h : int16_t(HEIGHT) - y; // limit
   b77b4:	f5b3 7f96 	cmp.w	r3, #300	; 0x12c
  w1 -= dx;
   b77b8:	eba8 0804 	sub.w	r8, r8, r4
  int16_t h1 = y + h < int16_t(HEIGHT) ? h : int16_t(HEIGHT) - y; // limit
   b77bc:	fa1f fa87 	uxth.w	sl, r7
   b77c0:	bfa8      	it	ge
   b77c2:	f5ca 7196 	rsbge	r1, sl, #300	; 0x12c
  w1 -= dx;
   b77c6:	fa1f f388 	uxth.w	r3, r8
   b77ca:	fa0f f888 	sxth.w	r8, r8
  int16_t h1 = y + h < int16_t(HEIGHT) ? h : int16_t(HEIGHT) - y; // limit
   b77ce:	bfac      	ite	ge
   b77d0:	b209      	sxthge	r1, r1
   b77d2:	4631      	movlt	r1, r6
  if ((w1 <= 0) || (h1 <= 0)) return;
   b77d4:	f1b8 0f00 	cmp.w	r8, #0
  int16_t dx = x1 - x;
   b77d8:	fa1f fb82 	uxth.w	fp, r2
  w1 -= dx;
   b77dc:	9309      	str	r3, [sp, #36]	; 0x24
  if ((w1 <= 0) || (h1 <= 0)) return;
   b77de:	f340 80a3 	ble.w	b7928 <_ZN11GxEPD2_420c10writeImageEPKhS1_ssssbbb+0x1fe>
  int16_t y1 = y < 0 ? 0 : y; // limit
   b77e2:	ea27 77e7 	bic.w	r7, r7, r7, asr #31
  int16_t dy = y1 - y;
   b77e6:	b2bf      	uxth	r7, r7
  h1 -= dy;
   b77e8:	ebaa 0207 	sub.w	r2, sl, r7
   b77ec:	4411      	add	r1, r2
   b77ee:	b20b      	sxth	r3, r1
   b77f0:	b28a      	uxth	r2, r1
  if ((w1 <= 0) || (h1 <= 0)) return;
   b77f2:	2b00      	cmp	r3, #0
  h1 -= dy;
   b77f4:	9208      	str	r2, [sp, #32]
   b77f6:	9303      	str	r3, [sp, #12]
  if ((w1 <= 0) || (h1 <= 0)) return;
   b77f8:	f340 8096 	ble.w	b7928 <_ZN11GxEPD2_420c10writeImageEPKhS1_ssssbbb+0x1fe>
  _Init_Part();
   b77fc:	4628      	mov	r0, r5
   b77fe:	f7ff fde8 	bl	b73d2 <_ZN11GxEPD2_420c10_Init_FullEv>
  _writeCommand(0x91); // partial in
   b7802:	2191      	movs	r1, #145	; 0x91
   b7804:	4628      	mov	r0, r5
   b7806:	f7ff fbfd 	bl	b7004 <_ZN10GxEPD2_EPD13_writeCommandEh>
  _setPartialRamArea(x1, y1, w1, h1);
   b780a:	9a08      	ldr	r2, [sp, #32]
   b780c:	9b09      	ldr	r3, [sp, #36]	; 0x24
   b780e:	9200      	str	r2, [sp, #0]
   b7810:	4659      	mov	r1, fp
   b7812:	463a      	mov	r2, r7
   b7814:	4628      	mov	r0, r5
   b7816:	f7ff fd26 	bl	b7266 <_ZN11GxEPD2_420c18_setPartialRamAreaEtttt>
  _writeCommand(0x10);
   b781a:	2110      	movs	r1, #16
   b781c:	4628      	mov	r0, r5
   b781e:	f7ff fbf1 	bl	b7004 <_ZN10GxEPD2_EPD13_writeCommandEh>
        int16_t idx = mirror_y ? j + dx / 8 + ((h - 1 - (i + dy))) * wb : j + dx / 8 + (i + dy) * wb;
   b7822:	b224      	sxth	r4, r4
  _startTransfer();
   b7824:	4628      	mov	r0, r5
   b7826:	f7ff fc3f 	bl	b70a8 <_ZN10GxEPD2_EPD14_startTransferEv>
  int16_t dy = y1 - y;
   b782a:	eba7 070a 	sub.w	r7, r7, sl
        int16_t idx = mirror_y ? j + dx / 8 + ((h - 1 - (i + dy))) * wb : j + dx / 8 + (i + dy) * wb;
   b782e:	2c00      	cmp	r4, #0
   b7830:	b23f      	sxth	r7, r7
   b7832:	bfb8      	it	lt
   b7834:	3407      	addlt	r4, #7
   b7836:	3e01      	subs	r6, #1
   b7838:	f3c4 04cf 	ubfx	r4, r4, #3, #16
   b783c:	1bf6      	subs	r6, r6, r7
   b783e:	fb17 f709 	smulbb	r7, r7, r9
   b7842:	fb16 4609 	smlabb	r6, r6, r9, r4
   b7846:	443c      	add	r4, r7
   b7848:	b2b6      	uxth	r6, r6
   b784a:	b2a4      	uxth	r4, r4
    for (int16_t j = 0; j < w1 / 8; j++)
   b784c:	ea4f 08e8 	mov.w	r8, r8, asr #3
        int16_t idx = mirror_y ? j + dx / 8 + ((h - 1 - (i + dy))) * wb : j + dx / 8 + (i + dy) * wb;
   b7850:	4627      	mov	r7, r4
   b7852:	46b2      	mov	sl, r6
   b7854:	2300      	movs	r3, #0
   b7856:	f04f 0b00 	mov.w	fp, #0
    for (int16_t j = 0; j < w1 / 8; j++)
   b785a:	fa0f f28b 	sxth.w	r2, fp
   b785e:	4590      	cmp	r8, r2
   b7860:	dd19      	ble.n	b7896 <_ZN11GxEPD2_420c10writeImageEPKhS1_ssssbbb+0x16c>
      if (black)
   b7862:	9a04      	ldr	r2, [sp, #16]
   b7864:	b1aa      	cbz	r2, b7892 <_ZN11GxEPD2_420c10writeImageEPKhS1_ssssbbb+0x168>
        int16_t idx = mirror_y ? j + dx / 8 + ((h - 1 - (i + dy))) * wb : j + dx / 8 + (i + dy) * wb;
   b7866:	9a07      	ldr	r2, [sp, #28]
   b7868:	b182      	cbz	r2, b788c <_ZN11GxEPD2_420c10writeImageEPKhS1_ssssbbb+0x162>
   b786a:	eb0a 020b 	add.w	r2, sl, fp
   b786e:	b212      	sxth	r2, r2
          data = black[idx];
   b7870:	9904      	ldr	r1, [sp, #16]
   b7872:	5c89      	ldrb	r1, [r1, r2]
        if (invert) data = ~data;
   b7874:	9a06      	ldr	r2, [sp, #24]
   b7876:	b10a      	cbz	r2, b787c <_ZN11GxEPD2_420c10writeImageEPKhS1_ssssbbb+0x152>
   b7878:	43c9      	mvns	r1, r1
   b787a:	b2c9      	uxtb	r1, r1
      _transfer(data);
   b787c:	4628      	mov	r0, r5
   b787e:	9308      	str	r3, [sp, #32]
   b7880:	f10b 0b01 	add.w	fp, fp, #1
   b7884:	f7ff fc22 	bl	b70cc <_ZN10GxEPD2_EPD9_transferEh>
    for (int16_t j = 0; j < w1 / 8; j++)
   b7888:	9b08      	ldr	r3, [sp, #32]
   b788a:	e7e6      	b.n	b785a <_ZN11GxEPD2_420c10writeImageEPKhS1_ssssbbb+0x130>
   b788c:	eb07 020b 	add.w	r2, r7, fp
   b7890:	e7ed      	b.n	b786e <_ZN11GxEPD2_420c10writeImageEPKhS1_ssssbbb+0x144>
      uint8_t data = 0xFF;
   b7892:	21ff      	movs	r1, #255	; 0xff
   b7894:	e7f2      	b.n	b787c <_ZN11GxEPD2_420c10writeImageEPKhS1_ssssbbb+0x152>
  for (int16_t i = 0; i < h1; i++)
   b7896:	9903      	ldr	r1, [sp, #12]
   b7898:	3301      	adds	r3, #1
   b789a:	b21a      	sxth	r2, r3
   b789c:	ebaa 0a09 	sub.w	sl, sl, r9
   b78a0:	444f      	add	r7, r9
   b78a2:	428a      	cmp	r2, r1
   b78a4:	fa1f fa8a 	uxth.w	sl, sl
   b78a8:	b2bf      	uxth	r7, r7
   b78aa:	dbd4      	blt.n	b7856 <_ZN11GxEPD2_420c10writeImageEPKhS1_ssssbbb+0x12c>
  _endTransfer();
   b78ac:	4628      	mov	r0, r5
   b78ae:	f7ff fc10 	bl	b70d2 <_ZN10GxEPD2_EPD12_endTransferEv>
  _writeCommand(0x13);
   b78b2:	2113      	movs	r1, #19
   b78b4:	4628      	mov	r0, r5
   b78b6:	f7ff fba5 	bl	b7004 <_ZN10GxEPD2_EPD13_writeCommandEh>
  _startTransfer();
   b78ba:	4628      	mov	r0, r5
   b78bc:	f7ff fbf4 	bl	b70a8 <_ZN10GxEPD2_EPD14_startTransferEv>
   b78c0:	f04f 0a00 	mov.w	sl, #0
   b78c4:	2700      	movs	r7, #0
    for (int16_t j = 0; j < w1 / 8; j++)
   b78c6:	b23b      	sxth	r3, r7
   b78c8:	4598      	cmp	r8, r3
   b78ca:	dd14      	ble.n	b78f6 <_ZN11GxEPD2_420c10writeImageEPKhS1_ssssbbb+0x1cc>
      if (color)
   b78cc:	9b05      	ldr	r3, [sp, #20]
   b78ce:	b183      	cbz	r3, b78f2 <_ZN11GxEPD2_420c10writeImageEPKhS1_ssssbbb+0x1c8>
        int16_t idx = mirror_y ? j + dx / 8 + ((h - 1 - (i + dy))) * wb : j + dx / 8 + (i + dy) * wb;
   b78d0:	9b07      	ldr	r3, [sp, #28]
   b78d2:	b163      	cbz	r3, b78ee <_ZN11GxEPD2_420c10writeImageEPKhS1_ssssbbb+0x1c4>
   b78d4:	19f3      	adds	r3, r6, r7
   b78d6:	b21b      	sxth	r3, r3
          data = color[idx];
   b78d8:	9a05      	ldr	r2, [sp, #20]
   b78da:	5cd1      	ldrb	r1, [r2, r3]
        if (invert) data = ~data;
   b78dc:	9b06      	ldr	r3, [sp, #24]
   b78de:	b10b      	cbz	r3, b78e4 <_ZN11GxEPD2_420c10writeImageEPKhS1_ssssbbb+0x1ba>
   b78e0:	43c9      	mvns	r1, r1
   b78e2:	b2c9      	uxtb	r1, r1
      _transfer(data);
   b78e4:	4628      	mov	r0, r5
   b78e6:	f7ff fbf1 	bl	b70cc <_ZN10GxEPD2_EPD9_transferEh>
    for (int16_t j = 0; j < w1 / 8; j++)
   b78ea:	3701      	adds	r7, #1
   b78ec:	e7eb      	b.n	b78c6 <_ZN11GxEPD2_420c10writeImageEPKhS1_ssssbbb+0x19c>
   b78ee:	19e3      	adds	r3, r4, r7
   b78f0:	e7f1      	b.n	b78d6 <_ZN11GxEPD2_420c10writeImageEPKhS1_ssssbbb+0x1ac>
      uint8_t data = 0xFF;
   b78f2:	21ff      	movs	r1, #255	; 0xff
   b78f4:	e7f6      	b.n	b78e4 <_ZN11GxEPD2_420c10writeImageEPKhS1_ssssbbb+0x1ba>
  for (int16_t i = 0; i < h1; i++)
   b78f6:	9a03      	ldr	r2, [sp, #12]
   b78f8:	f10a 0a01 	add.w	sl, sl, #1
   b78fc:	fa0f f38a 	sxth.w	r3, sl
   b7900:	eba6 0609 	sub.w	r6, r6, r9
   b7904:	444c      	add	r4, r9
   b7906:	429a      	cmp	r2, r3
   b7908:	b2b6      	uxth	r6, r6
   b790a:	b2a4      	uxth	r4, r4
   b790c:	dcda      	bgt.n	b78c4 <_ZN11GxEPD2_420c10writeImageEPKhS1_ssssbbb+0x19a>
  _endTransfer();
   b790e:	4628      	mov	r0, r5
   b7910:	f7ff fbdf 	bl	b70d2 <_ZN10GxEPD2_EPD12_endTransferEv>
  _writeCommand(0x92); // partial out
   b7914:	4628      	mov	r0, r5
   b7916:	2192      	movs	r1, #146	; 0x92
   b7918:	f7ff fb74 	bl	b7004 <_ZN10GxEPD2_EPD13_writeCommandEh>
  delay(1); // yield() to avoid WDT on ESP8266 and ESP32
   b791c:	2001      	movs	r0, #1
}
   b791e:	b00b      	add	sp, #44	; 0x2c
   b7920:	e8bd 4ff0 	ldmia.w	sp!, {r4, r5, r6, r7, r8, r9, sl, fp, lr}
  delay(1); // yield() to avoid WDT on ESP8266 and ESP32
   b7924:	f000 be1c 	b.w	b8560 <delay>
}
   b7928:	b00b      	add	sp, #44	; 0x2c
   b792a:	e8bd 8ff0 	ldmia.w	sp!, {r4, r5, r6, r7, r8, r9, sl, fp, pc}

000b792e <_ZN11GxEPD2_420c10writeImageEPKhssssbbb>:
{
   b792e:	b510      	push	{r4, lr}
   b7930:	b086      	sub	sp, #24
  writeImage(bitmap, NULL, x, y, w, h, invert, mirror_y, pgm);
   b7932:	f89d 4030 	ldrb.w	r4, [sp, #48]	; 0x30
   b7936:	9405      	str	r4, [sp, #20]
   b7938:	f89d 402c 	ldrb.w	r4, [sp, #44]	; 0x2c
   b793c:	9404      	str	r4, [sp, #16]
   b793e:	f89d 4028 	ldrb.w	r4, [sp, #40]	; 0x28
   b7942:	9403      	str	r4, [sp, #12]
   b7944:	f9bd 4024 	ldrsh.w	r4, [sp, #36]	; 0x24
   b7948:	9402      	str	r4, [sp, #8]
   b794a:	f9bd 4020 	ldrsh.w	r4, [sp, #32]
   b794e:	e9cd 3400 	strd	r3, r4, [sp]
   b7952:	4613      	mov	r3, r2
   b7954:	2200      	movs	r2, #0
   b7956:	f7ff fee8 	bl	b772a <_ZN11GxEPD2_420c10writeImageEPKhS1_ssssbbb>
}
   b795a:	b006      	add	sp, #24
   b795c:	bd10      	pop	{r4, pc}

000b795e <_ZN11GxEPD2_420c9drawImageEPKhS1_ssssbbb>:
{
   b795e:	e92d 43f0 	stmdb	sp!, {r4, r5, r6, r7, r8, r9, lr}
   b7962:	b087      	sub	sp, #28
   b7964:	4604      	mov	r4, r0
   b7966:	f9bd 6038 	ldrsh.w	r6, [sp, #56]	; 0x38
   b796a:	f9bd 703c 	ldrsh.w	r7, [sp, #60]	; 0x3c
   b796e:	f9bd 8040 	ldrsh.w	r8, [sp, #64]	; 0x40
   b7972:	f89d c044 	ldrb.w	ip, [sp, #68]	; 0x44
   b7976:	f89d e048 	ldrb.w	lr, [sp, #72]	; 0x48
   b797a:	f89d 904c 	ldrb.w	r9, [sp, #76]	; 0x4c
  writeImage(black, color, x, y, w, h, invert, mirror_y, pgm);
   b797e:	e9cd 8c02 	strd	r8, ip, [sp, #8]
   b7982:	e9cd e904 	strd	lr, r9, [sp, #16]
   b7986:	e9cd 6700 	strd	r6, r7, [sp]
{
   b798a:	461d      	mov	r5, r3
  writeImage(black, color, x, y, w, h, invert, mirror_y, pgm);
   b798c:	f7ff fecd 	bl	b772a <_ZN11GxEPD2_420c10writeImageEPKhS1_ssssbbb>
  refresh(x, y, w, h);
   b7990:	6823      	ldr	r3, [r4, #0]
   b7992:	f8cd 8038 	str.w	r8, [sp, #56]	; 0x38
   b7996:	f8d3 e038 	ldr.w	lr, [r3, #56]	; 0x38
   b799a:	4632      	mov	r2, r6
   b799c:	463b      	mov	r3, r7
   b799e:	4629      	mov	r1, r5
   b79a0:	4620      	mov	r0, r4
   b79a2:	46f4      	mov	ip, lr
}
   b79a4:	b007      	add	sp, #28
   b79a6:	e8bd 43f0 	ldmia.w	sp!, {r4, r5, r6, r7, r8, r9, lr}
  refresh(x, y, w, h);
   b79aa:	4760      	bx	ip

000b79ac <_ZN11GxEPD2_420c17writeScreenBufferEhh>:
{
   b79ac:	b5f7      	push	{r0, r1, r2, r4, r5, r6, r7, lr}
  _initial_write = false; // initial full screen buffer clean done
   b79ae:	2500      	movs	r5, #0
{
   b79b0:	4604      	mov	r4, r0
  _initial_write = false; // initial full screen buffer clean done
   b79b2:	f880 5034 	strb.w	r5, [r0, #52]	; 0x34
{
   b79b6:	4616      	mov	r6, r2
   b79b8:	460f      	mov	r7, r1
  _Init_Part();
   b79ba:	f7ff fd0a 	bl	b73d2 <_ZN11GxEPD2_420c10_Init_FullEv>
  _writeCommand(0x91); // partial in
   b79be:	2191      	movs	r1, #145	; 0x91
   b79c0:	4620      	mov	r0, r4
   b79c2:	f7ff fb1f 	bl	b7004 <_ZN10GxEPD2_EPD13_writeCommandEh>
  _setPartialRamArea(0, 0, WIDTH, HEIGHT);
   b79c6:	f44f 7396 	mov.w	r3, #300	; 0x12c
   b79ca:	462a      	mov	r2, r5
   b79cc:	4629      	mov	r1, r5
   b79ce:	9300      	str	r3, [sp, #0]
   b79d0:	4620      	mov	r0, r4
   b79d2:	f44f 73c8 	mov.w	r3, #400	; 0x190
   b79d6:	f7ff fc46 	bl	b7266 <_ZN11GxEPD2_420c18_setPartialRamAreaEtttt>
  _writeCommand(0x10);
   b79da:	2110      	movs	r1, #16
   b79dc:	4620      	mov	r0, r4
   b79de:	f7ff fb11 	bl	b7004 <_ZN10GxEPD2_EPD13_writeCommandEh>
  _startTransfer();
   b79e2:	4620      	mov	r0, r4
   b79e4:	f7ff fb60 	bl	b70a8 <_ZN10GxEPD2_EPD14_startTransferEv>
   b79e8:	f643 2598 	movw	r5, #15000	; 0x3a98
  for (uint16_t i = 0; i < uint32_t(WIDTH) * uint32_t(HEIGHT) / 8; i++)
   b79ec:	3d01      	subs	r5, #1
    _transfer(black_value);
   b79ee:	4639      	mov	r1, r7
   b79f0:	4620      	mov	r0, r4
  for (uint16_t i = 0; i < uint32_t(WIDTH) * uint32_t(HEIGHT) / 8; i++)
   b79f2:	b2ad      	uxth	r5, r5
    _transfer(black_value);
   b79f4:	f7ff fb6a 	bl	b70cc <_ZN10GxEPD2_EPD9_transferEh>
  for (uint16_t i = 0; i < uint32_t(WIDTH) * uint32_t(HEIGHT) / 8; i++)
   b79f8:	2d00      	cmp	r5, #0
   b79fa:	d1f7      	bne.n	b79ec <_ZN11GxEPD2_420c17writeScreenBufferEhh+0x40>
  _endTransfer();
   b79fc:	4620      	mov	r0, r4
   b79fe:	f7ff fb68 	bl	b70d2 <_ZN10GxEPD2_EPD12_endTransferEv>
  _writeCommand(0x13);
   b7a02:	2113      	movs	r1, #19
   b7a04:	4620      	mov	r0, r4
   b7a06:	f7ff fafd 	bl	b7004 <_ZN10GxEPD2_EPD13_writeCommandEh>
  _startTransfer();
   b7a0a:	4620      	mov	r0, r4
   b7a0c:	f7ff fb4c 	bl	b70a8 <_ZN10GxEPD2_EPD14_startTransferEv>
   b7a10:	f643 2598 	movw	r5, #15000	; 0x3a98
  for (uint16_t i = 0; i < uint32_t(WIDTH) * uint32_t(HEIGHT) / 8; i++)
   b7a14:	3d01      	subs	r5, #1
    _transfer(color_value);
   b7a16:	4631      	mov	r1, r6
   b7a18:	4620      	mov	r0, r4
  for (uint16_t i = 0; i < uint32_t(WIDTH) * uint32_t(HEIGHT) / 8; i++)
   b7a1a:	b2ad      	uxth	r5, r5
    _transfer(color_value);
   b7a1c:	f7ff fb56 	bl	b70cc <_ZN10GxEPD2_EPD9_transferEh>
  for (uint16_t i = 0; i < uint32_t(WIDTH) * uint32_t(HEIGHT) / 8; i++)
   b7a20:	2d00      	cmp	r5, #0
   b7a22:	d1f7      	bne.n	b7a14 <_ZN11GxEPD2_420c17writeScreenBufferEhh+0x68>
  _endTransfer();
   b7a24:	4620      	mov	r0, r4
   b7a26:	f7ff fb54 	bl	b70d2 <_ZN10GxEPD2_EPD12_endTransferEv>
  _writeCommand(0x92); // partial out
   b7a2a:	2192      	movs	r1, #146	; 0x92
   b7a2c:	4620      	mov	r0, r4
}
   b7a2e:	b003      	add	sp, #12
   b7a30:	e8bd 40f0 	ldmia.w	sp!, {r4, r5, r6, r7, lr}
  _writeCommand(0x92); // partial out
   b7a34:	f7ff bae6 	b.w	b7004 <_ZN10GxEPD2_EPD13_writeCommandEh>

000b7a38 <_ZN11GxEPD2_420c17writeScreenBufferEh>:
  writeScreenBuffer(value, 0xFF);
   b7a38:	22ff      	movs	r2, #255	; 0xff
   b7a3a:	f7ff bfb7 	b.w	b79ac <_ZN11GxEPD2_420c17writeScreenBufferEhh>
	...

000b7a40 <_ZN11GxEPD2_420c12_Update_FullEv>:
  _InitDisplay();
  _PowerOn();
}

void GxEPD2_420c::_Update_Full()
{
   b7a40:	b510      	push	{r4, lr}
  _writeCommand(0x12); //display refresh
   b7a42:	2112      	movs	r1, #18
{
   b7a44:	4604      	mov	r4, r0
  _writeCommand(0x12); //display refresh
   b7a46:	f7ff fadd 	bl	b7004 <_ZN10GxEPD2_EPD13_writeCommandEh>
  _waitWhileBusy("_Update_Full", full_refresh_time);
   b7a4a:	4620      	mov	r0, r4
   b7a4c:	4903      	ldr	r1, [pc, #12]	; (b7a5c <_ZN11GxEPD2_420c12_Update_FullEv+0x1c>)
}
   b7a4e:	e8bd 4010 	ldmia.w	sp!, {r4, lr}
  _waitWhileBusy("_Update_Full", full_refresh_time);
   b7a52:	f44f 527a 	mov.w	r2, #16000	; 0x3e80
   b7a56:	f7ff ba81 	b.w	b6f5c <_ZN10GxEPD2_EPD14_waitWhileBusyEPKct>
   b7a5a:	bf00      	nop
   b7a5c:	000d7a73 	.word	0x000d7a73

000b7a60 <_ZN11GxEPD2_420c7refreshEb>:
{
   b7a60:	b513      	push	{r0, r1, r4, lr}
  if (partial_update_mode) refresh(0, 0, WIDTH, HEIGHT);
   b7a62:	b159      	cbz	r1, b7a7c <_ZN11GxEPD2_420c7refreshEb+0x1c>
   b7a64:	6803      	ldr	r3, [r0, #0]
   b7a66:	f44f 7296 	mov.w	r2, #300	; 0x12c
   b7a6a:	9200      	str	r2, [sp, #0]
   b7a6c:	2200      	movs	r2, #0
   b7a6e:	6b9c      	ldr	r4, [r3, #56]	; 0x38
   b7a70:	4611      	mov	r1, r2
   b7a72:	f44f 73c8 	mov.w	r3, #400	; 0x190
   b7a76:	47a0      	blx	r4
}
   b7a78:	b002      	add	sp, #8
   b7a7a:	bd10      	pop	{r4, pc}
   b7a7c:	b002      	add	sp, #8
   b7a7e:	e8bd 4010 	ldmia.w	sp!, {r4, lr}
  else _Update_Full();
   b7a82:	f7ff bfdd 	b.w	b7a40 <_ZN11GxEPD2_420c12_Update_FullEv>
	...

000b7a88 <_ZN11GxEPD2_420c12_Update_PartEv>:

void GxEPD2_420c::_Update_Part()
{
   b7a88:	b510      	push	{r4, lr}
  _writeCommand(0x12); //display refresh
   b7a8a:	2112      	movs	r1, #18
{
   b7a8c:	4604      	mov	r4, r0
  _writeCommand(0x12); //display refresh
   b7a8e:	f7ff fab9 	bl	b7004 <_ZN10GxEPD2_EPD13_writeCommandEh>
  _waitWhileBusy("_Update_Part", partial_refresh_time);
   b7a92:	4620      	mov	r0, r4
   b7a94:	4903      	ldr	r1, [pc, #12]	; (b7aa4 <_ZN11GxEPD2_420c12_Update_PartEv+0x1c>)
}
   b7a96:	e8bd 4010 	ldmia.w	sp!, {r4, lr}
  _waitWhileBusy("_Update_Part", partial_refresh_time);
   b7a9a:	f44f 527a 	mov.w	r2, #16000	; 0x3e80
   b7a9e:	f7ff ba5d 	b.w	b6f5c <_ZN10GxEPD2_EPD14_waitWhileBusyEPKct>
   b7aa2:	bf00      	nop
   b7aa4:	000d7a80 	.word	0x000d7a80

000b7aa8 <_ZN11GxEPD2_420c11clearScreenEhh>:
{
   b7aa8:	b5f7      	push	{r0, r1, r2, r4, r5, r6, r7, lr}
  _initial_write = false; // initial full screen buffer clean done
   b7aaa:	2500      	movs	r5, #0
{
   b7aac:	4604      	mov	r4, r0
  _initial_write = false; // initial full screen buffer clean done
   b7aae:	f880 5034 	strb.w	r5, [r0, #52]	; 0x34
{
   b7ab2:	4616      	mov	r6, r2
   b7ab4:	460f      	mov	r7, r1
  _Init_Part();
   b7ab6:	f7ff fc8c 	bl	b73d2 <_ZN11GxEPD2_420c10_Init_FullEv>
  _writeCommand(0x91); // partial in
   b7aba:	2191      	movs	r1, #145	; 0x91
   b7abc:	4620      	mov	r0, r4
   b7abe:	f7ff faa1 	bl	b7004 <_ZN10GxEPD2_EPD13_writeCommandEh>
  _setPartialRamArea(0, 0, WIDTH, HEIGHT);
   b7ac2:	f44f 7396 	mov.w	r3, #300	; 0x12c
   b7ac6:	462a      	mov	r2, r5
   b7ac8:	4629      	mov	r1, r5
   b7aca:	9300      	str	r3, [sp, #0]
   b7acc:	4620      	mov	r0, r4
   b7ace:	f44f 73c8 	mov.w	r3, #400	; 0x190
   b7ad2:	f7ff fbc8 	bl	b7266 <_ZN11GxEPD2_420c18_setPartialRamAreaEtttt>
  _writeCommand(0x10);
   b7ad6:	2110      	movs	r1, #16
   b7ad8:	4620      	mov	r0, r4
   b7ada:	f7ff fa93 	bl	b7004 <_ZN10GxEPD2_EPD13_writeCommandEh>
  _startTransfer();
   b7ade:	4620      	mov	r0, r4
   b7ae0:	f7ff fae2 	bl	b70a8 <_ZN10GxEPD2_EPD14_startTransferEv>
   b7ae4:	f643 2598 	movw	r5, #15000	; 0x3a98
    _transfer(black_value);
   b7ae8:	4639      	mov	r1, r7
   b7aea:	4620      	mov	r0, r4
   b7aec:	f7ff faee 	bl	b70cc <_ZN10GxEPD2_EPD9_transferEh>
  for (uint32_t i = 0; i < uint32_t(WIDTH) * uint32_t(HEIGHT) / 8; i++)
   b7af0:	3d01      	subs	r5, #1
   b7af2:	d1f9      	bne.n	b7ae8 <_ZN11GxEPD2_420c11clearScreenEhh+0x40>
  _endTransfer();
   b7af4:	4620      	mov	r0, r4
   b7af6:	f7ff faec 	bl	b70d2 <_ZN10GxEPD2_EPD12_endTransferEv>
  _writeCommand(0x13);
   b7afa:	2113      	movs	r1, #19
   b7afc:	4620      	mov	r0, r4
   b7afe:	f7ff fa81 	bl	b7004 <_ZN10GxEPD2_EPD13_writeCommandEh>
  _startTransfer();
   b7b02:	4620      	mov	r0, r4
   b7b04:	f7ff fad0 	bl	b70a8 <_ZN10GxEPD2_EPD14_startTransferEv>
   b7b08:	f643 2598 	movw	r5, #15000	; 0x3a98
    _transfer(color_value);
   b7b0c:	4631      	mov	r1, r6
   b7b0e:	4620      	mov	r0, r4
   b7b10:	f7ff fadc 	bl	b70cc <_ZN10GxEPD2_EPD9_transferEh>
  for (uint32_t i = 0; i < uint32_t(WIDTH) * uint32_t(HEIGHT) / 8; i++)
   b7b14:	3d01      	subs	r5, #1
   b7b16:	d1f9      	bne.n	b7b0c <_ZN11GxEPD2_420c11clearScreenEhh+0x64>
  _endTransfer();
   b7b18:	4620      	mov	r0, r4
   b7b1a:	f7ff fada 	bl	b70d2 <_ZN10GxEPD2_EPD12_endTransferEv>
  _Update_Part();
   b7b1e:	4620      	mov	r0, r4
   b7b20:	f7ff ffb2 	bl	b7a88 <_ZN11GxEPD2_420c12_Update_PartEv>
  _writeCommand(0x92); // partial out
   b7b24:	2192      	movs	r1, #146	; 0x92
   b7b26:	4620      	mov	r0, r4
}
   b7b28:	b003      	add	sp, #12
   b7b2a:	e8bd 40f0 	ldmia.w	sp!, {r4, r5, r6, r7, lr}
  _writeCommand(0x92); // partial out
   b7b2e:	f7ff ba69 	b.w	b7004 <_ZN10GxEPD2_EPD13_writeCommandEh>

000b7b32 <_ZN11GxEPD2_420c11clearScreenEh>:
  clearScreen(value, 0xFF);
   b7b32:	22ff      	movs	r2, #255	; 0xff
   b7b34:	f7ff bfb8 	b.w	b7aa8 <_ZN11GxEPD2_420c11clearScreenEhh>

000b7b38 <_ZN11GxEPD2_420c7refreshEssss>:
{
   b7b38:	b5f0      	push	{r4, r5, r6, r7, lr}
   b7b3a:	b085      	sub	sp, #20
  int16_t w1 = x < 0 ? w + x : w; // reduce
   b7b3c:	2900      	cmp	r1, #0
{
   b7b3e:	f9bd 6028 	ldrsh.w	r6, [sp, #40]	; 0x28
  int16_t w1 = x < 0 ? w + x : w; // reduce
   b7b42:	bfbc      	itt	lt
   b7b44:	185b      	addlt	r3, r3, r1
   b7b46:	b21b      	sxthlt	r3, r3
  int16_t x1 = x < 0 ? 0 : x; // limit
   b7b48:	ea21 74e1 	bic.w	r4, r1, r1, asr #31
  int16_t h1 = y < 0 ? h + y : h; // reduce
   b7b4c:	2a00      	cmp	r2, #0
   b7b4e:	bfb8      	it	lt
   b7b50:	18b6      	addlt	r6, r6, r2
  int16_t y1 = y < 0 ? 0 : y; // limit
   b7b52:	ea22 77e2 	bic.w	r7, r2, r2, asr #31
  w1 = x1 + w1 < int16_t(WIDTH) ? w1 : int16_t(WIDTH) - x1; // limit
   b7b56:	eb04 0203 	add.w	r2, r4, r3
  int16_t h1 = y < 0 ? h + y : h; // reduce
   b7b5a:	bfb8      	it	lt
   b7b5c:	b236      	sxthlt	r6, r6
  w1 = x1 + w1 < int16_t(WIDTH) ? w1 : int16_t(WIDTH) - x1; // limit
   b7b5e:	f5b2 7fc8 	cmp.w	r2, #400	; 0x190
   b7b62:	bfa8      	it	ge
   b7b64:	f5c4 73c8 	rsbge	r3, r4, #400	; 0x190
  h1 = y1 + h1 < int16_t(HEIGHT) ? h1 : int16_t(HEIGHT) - y1; // limit
   b7b68:	eb07 0206 	add.w	r2, r7, r6
  w1 = x1 + w1 < int16_t(WIDTH) ? w1 : int16_t(WIDTH) - x1; // limit
   b7b6c:	bfa8      	it	ge
   b7b6e:	b21b      	sxthge	r3, r3
  h1 = y1 + h1 < int16_t(HEIGHT) ? h1 : int16_t(HEIGHT) - y1; // limit
   b7b70:	f5b2 7f96 	cmp.w	r2, #300	; 0x12c
   b7b74:	bfa4      	itt	ge
   b7b76:	f5c7 7696 	rsbge	r6, r7, #300	; 0x12c
   b7b7a:	b236      	sxthge	r6, r6
  if ((w1 <= 0) || (h1 <= 0)) return; 
   b7b7c:	2b00      	cmp	r3, #0
   b7b7e:	dd26      	ble.n	b7bce <_ZN11GxEPD2_420c7refreshEssss+0x96>
   b7b80:	2e00      	cmp	r6, #0
   b7b82:	dd24      	ble.n	b7bce <_ZN11GxEPD2_420c7refreshEssss+0x96>
  w1 += x1 % 8;
   b7b84:	f004 0507 	and.w	r5, r4, #7
   b7b88:	442b      	add	r3, r5
   b7b8a:	b21d      	sxth	r5, r3
  if (w1 % 8 > 0) w1 += 8 - w1 % 8;
   b7b8c:	4269      	negs	r1, r5
   b7b8e:	f001 0107 	and.w	r1, r1, #7
  w1 += x1 % 8;
   b7b92:	b29a      	uxth	r2, r3
  if (w1 % 8 > 0) w1 += 8 - w1 % 8;
   b7b94:	f005 0307 	and.w	r3, r5, #7
   b7b98:	bf58      	it	pl
   b7b9a:	424b      	negpl	r3, r1
   b7b9c:	2b00      	cmp	r3, #0
   b7b9e:	bfc2      	ittt	gt
   b7ba0:	f102 0508 	addgt.w	r5, r2, #8
   b7ba4:	1aed      	subgt	r5, r5, r3
   b7ba6:	b22d      	sxthgt	r5, r5
  _Init_Part();
   b7ba8:	9003      	str	r0, [sp, #12]
  _setPartialRamArea(x1, y1, w1, h1);
   b7baa:	b2b6      	uxth	r6, r6
  _Init_Part();
   b7bac:	f7ff fc11 	bl	b73d2 <_ZN11GxEPD2_420c10_Init_FullEv>
  x1 -= x1 % 8;
   b7bb0:	f024 0107 	bic.w	r1, r4, #7
  _setPartialRamArea(x1, y1, w1, h1);
   b7bb4:	9803      	ldr	r0, [sp, #12]
   b7bb6:	9600      	str	r6, [sp, #0]
   b7bb8:	b289      	uxth	r1, r1
   b7bba:	b2ab      	uxth	r3, r5
   b7bbc:	b2ba      	uxth	r2, r7
   b7bbe:	f7ff fb52 	bl	b7266 <_ZN11GxEPD2_420c18_setPartialRamAreaEtttt>
  _Update_Part();
   b7bc2:	9803      	ldr	r0, [sp, #12]
}
   b7bc4:	b005      	add	sp, #20
   b7bc6:	e8bd 40f0 	ldmia.w	sp!, {r4, r5, r6, r7, lr}
  _Update_Part();
   b7bca:	f7ff bf5d 	b.w	b7a88 <_ZN11GxEPD2_420c12_Update_PartEv>
}
   b7bce:	b005      	add	sp, #20
   b7bd0:	bdf0      	pop	{r4, r5, r6, r7, pc}
	...

000b7bd4 <netdb_freeaddrinfo>:

DYNALIB_BEGIN(hal_netdb)

DYNALIB_FN(0, hal_netdb, netdb_gethostbyname, struct hostent*(const char*))
DYNALIB_FN(1, hal_netdb, netdb_gethostbyname_r, int(const char*, struct hostent*, char*, size_t, struct hostent**, int*))
DYNALIB_FN(2, hal_netdb, netdb_freeaddrinfo, void(struct addrinfo*))
   b7bd4:	b508      	push	{r3, lr}
   b7bd6:	4b02      	ldr	r3, [pc, #8]	; (b7be0 <netdb_freeaddrinfo+0xc>)
   b7bd8:	681b      	ldr	r3, [r3, #0]
   b7bda:	689b      	ldr	r3, [r3, #8]
   b7bdc:	9301      	str	r3, [sp, #4]
   b7bde:	bd08      	pop	{r3, pc}
   b7be0:	00030268 	.word	0x00030268

000b7be4 <netdb_getaddrinfo>:
DYNALIB_FN(3, hal_netdb, netdb_getaddrinfo, int(const char*, const char*, const struct addrinfo*, struct addrinfo**))
   b7be4:	b508      	push	{r3, lr}
   b7be6:	4b02      	ldr	r3, [pc, #8]	; (b7bf0 <netdb_getaddrinfo+0xc>)
   b7be8:	681b      	ldr	r3, [r3, #0]
   b7bea:	68db      	ldr	r3, [r3, #12]
   b7bec:	9301      	str	r3, [sp, #4]
   b7bee:	bd08      	pop	{r3, pc}
   b7bf0:	00030268 	.word	0x00030268

000b7bf4 <hal_gpio_mode>:

DYNALIB_BEGIN(hal_gpio)

DYNALIB_FN(0, hal_gpio, hal_pin_map, hal_pin_info_t*(void))
DYNALIB_FN(1, hal_gpio, hal_pin_validate_function, PinFunction(hal_pin_t, PinFunction))
DYNALIB_FN(2, hal_gpio, hal_gpio_mode, void(hal_pin_t, PinMode))
   b7bf4:	b508      	push	{r3, lr}
   b7bf6:	4b02      	ldr	r3, [pc, #8]	; (b7c00 <hal_gpio_mode+0xc>)
   b7bf8:	681b      	ldr	r3, [r3, #0]
   b7bfa:	689b      	ldr	r3, [r3, #8]
   b7bfc:	9301      	str	r3, [sp, #4]
   b7bfe:	bd08      	pop	{r3, pc}
   b7c00:	0003022c 	.word	0x0003022c

000b7c04 <hal_gpio_get_mode>:
DYNALIB_FN(3, hal_gpio, hal_gpio_get_mode, PinMode(hal_pin_t))
   b7c04:	b508      	push	{r3, lr}
   b7c06:	4b02      	ldr	r3, [pc, #8]	; (b7c10 <hal_gpio_get_mode+0xc>)
   b7c08:	681b      	ldr	r3, [r3, #0]
   b7c0a:	68db      	ldr	r3, [r3, #12]
   b7c0c:	9301      	str	r3, [sp, #4]
   b7c0e:	bd08      	pop	{r3, pc}
   b7c10:	0003022c 	.word	0x0003022c

000b7c14 <hal_gpio_write>:
DYNALIB_FN(4, hal_gpio, hal_gpio_write, void(hal_pin_t, uint8_t))
   b7c14:	b508      	push	{r3, lr}
   b7c16:	4b02      	ldr	r3, [pc, #8]	; (b7c20 <hal_gpio_write+0xc>)
   b7c18:	681b      	ldr	r3, [r3, #0]
   b7c1a:	691b      	ldr	r3, [r3, #16]
   b7c1c:	9301      	str	r3, [sp, #4]
   b7c1e:	bd08      	pop	{r3, pc}
   b7c20:	0003022c 	.word	0x0003022c

000b7c24 <hal_gpio_read>:
DYNALIB_FN(5, hal_gpio, hal_gpio_read, int32_t(hal_pin_t))
   b7c24:	b508      	push	{r3, lr}
   b7c26:	4b02      	ldr	r3, [pc, #8]	; (b7c30 <hal_gpio_read+0xc>)
   b7c28:	681b      	ldr	r3, [r3, #0]
   b7c2a:	695b      	ldr	r3, [r3, #20]
   b7c2c:	9301      	str	r3, [sp, #4]
   b7c2e:	bd08      	pop	{r3, pc}
   b7c30:	0003022c 	.word	0x0003022c

000b7c34 <HAL_RNG_GetRandomNumber>:

DYNALIB_BEGIN(hal)

#if PLATFORM_ID > PLATFORM_GCC
DYNALIB_FN(0, hal, HAL_RNG_Configuration, void(void))
DYNALIB_FN(1, hal, HAL_RNG_GetRandomNumber, uint32_t(void))
   b7c34:	b508      	push	{r3, lr}
   b7c36:	4b02      	ldr	r3, [pc, #8]	; (b7c40 <HAL_RNG_GetRandomNumber+0xc>)
   b7c38:	681b      	ldr	r3, [r3, #0]
   b7c3a:	685b      	ldr	r3, [r3, #4]
   b7c3c:	9301      	str	r3, [sp, #4]
   b7c3e:	bd08      	pop	{r3, pc}
   b7c40:	00030218 	.word	0x00030218

000b7c44 <HAL_Delay_Microseconds>:
#else
#define BASE_IDX 0
#endif // PLATFORM_ID > PLATFORM_GCC

DYNALIB_FN(BASE_IDX + 0, hal, HAL_Delay_Milliseconds, void(uint32_t))
DYNALIB_FN(BASE_IDX + 1, hal, HAL_Delay_Microseconds, void(uint32_t))
   b7c44:	b508      	push	{r3, lr}
   b7c46:	4b02      	ldr	r3, [pc, #8]	; (b7c50 <HAL_Delay_Microseconds+0xc>)
   b7c48:	681b      	ldr	r3, [r3, #0]
   b7c4a:	68db      	ldr	r3, [r3, #12]
   b7c4c:	9301      	str	r3, [sp, #4]
   b7c4e:	bd08      	pop	{r3, pc}
   b7c50:	00030218 	.word	0x00030218

000b7c54 <HAL_Timer_Get_Micro_Seconds>:
DYNALIB_FN(BASE_IDX + 2, hal, HAL_Timer_Get_Micro_Seconds, system_tick_t(void))
   b7c54:	b508      	push	{r3, lr}
   b7c56:	4b02      	ldr	r3, [pc, #8]	; (b7c60 <HAL_Timer_Get_Micro_Seconds+0xc>)
   b7c58:	681b      	ldr	r3, [r3, #0]
   b7c5a:	691b      	ldr	r3, [r3, #16]
   b7c5c:	9301      	str	r3, [sp, #4]
   b7c5e:	bd08      	pop	{r3, pc}
   b7c60:	00030218 	.word	0x00030218

000b7c64 <HAL_Timer_Get_Milli_Seconds>:
DYNALIB_FN(BASE_IDX + 3, hal, HAL_Timer_Get_Milli_Seconds, system_tick_t(void))
   b7c64:	b508      	push	{r3, lr}
   b7c66:	4b02      	ldr	r3, [pc, #8]	; (b7c70 <HAL_Timer_Get_Milli_Seconds+0xc>)
   b7c68:	681b      	ldr	r3, [r3, #0]
   b7c6a:	695b      	ldr	r3, [r3, #20]
   b7c6c:	9301      	str	r3, [sp, #4]
   b7c6e:	bd08      	pop	{r3, pc}
   b7c70:	00030218 	.word	0x00030218

000b7c74 <os_mutex_recursive_create>:
DYNALIB_FN(13, hal_concurrent, os_mutex_destroy, int(os_mutex_t))
DYNALIB_FN(14, hal_concurrent, os_mutex_lock, int(os_mutex_t))
DYNALIB_FN(15, hal_concurrent, os_mutex_trylock, int(os_mutex_t))
DYNALIB_FN(16, hal_concurrent, os_mutex_unlock, int(os_mutex_t))

DYNALIB_FN(17, hal_concurrent, os_mutex_recursive_create, int(os_mutex_recursive_t*))
   b7c74:	b508      	push	{r3, lr}
   b7c76:	4b02      	ldr	r3, [pc, #8]	; (b7c80 <os_mutex_recursive_create+0xc>)
   b7c78:	681b      	ldr	r3, [r3, #0]
   b7c7a:	6c5b      	ldr	r3, [r3, #68]	; 0x44
   b7c7c:	9301      	str	r3, [sp, #4]
   b7c7e:	bd08      	pop	{r3, pc}
   b7c80:	00030248 	.word	0x00030248

000b7c84 <inet_inet_ntop>:
DYNALIB_FN(0, hal_inet, inet_inet_addr, in_addr_t(const char*))
DYNALIB_FN(1, hal_inet, inet_inet_aton, int(const char*, struct in_addr*))
DYNALIB_FN(2, hal_inet, inet_inet_network, in_addr_t(const char*))
DYNALIB_FN(3, hal_inet, inet_inet_ntoa, char*(struct in_addr))
DYNALIB_FN(4, hal_inet, inet_inet_ntoa_r, char*(struct in_addr, char*, socklen_t))
DYNALIB_FN(5, hal_inet, inet_inet_ntop, const char*(int, const void*, char*, socklen_t))
   b7c84:	b508      	push	{r3, lr}
   b7c86:	4b02      	ldr	r3, [pc, #8]	; (b7c90 <inet_inet_ntop+0xc>)
   b7c88:	681b      	ldr	r3, [r3, #0]
   b7c8a:	695b      	ldr	r3, [r3, #20]
   b7c8c:	9301      	str	r3, [sp, #4]
   b7c8e:	bd08      	pop	{r3, pc}
   b7c90:	00030264 	.word	0x00030264

000b7c94 <hal_usart_write>:
#endif

DYNALIB_FN(BASE_IDX + 0, hal_usart, hal_usart_init, void(hal_usart_interface_t, hal_usart_ring_buffer_t*, hal_usart_ring_buffer_t*))
DYNALIB_FN(BASE_IDX + 1, hal_usart, hal_usart_begin, void(hal_usart_interface_t, uint32_t))
DYNALIB_FN(BASE_IDX + 2, hal_usart, hal_usart_end, void(hal_usart_interface_t))
DYNALIB_FN(BASE_IDX + 3, hal_usart, hal_usart_write, uint32_t(hal_usart_interface_t, uint8_t))
   b7c94:	b508      	push	{r3, lr}
   b7c96:	4b02      	ldr	r3, [pc, #8]	; (b7ca0 <hal_usart_write+0xc>)
   b7c98:	681b      	ldr	r3, [r3, #0]
   b7c9a:	68db      	ldr	r3, [r3, #12]
   b7c9c:	9301      	str	r3, [sp, #4]
   b7c9e:	bd08      	pop	{r3, pc}
   b7ca0:	0003023c 	.word	0x0003023c

000b7ca4 <hal_usart_available>:
DYNALIB_FN(BASE_IDX + 4, hal_usart, hal_usart_available, int32_t(hal_usart_interface_t))
   b7ca4:	b508      	push	{r3, lr}
   b7ca6:	4b02      	ldr	r3, [pc, #8]	; (b7cb0 <hal_usart_available+0xc>)
   b7ca8:	681b      	ldr	r3, [r3, #0]
   b7caa:	691b      	ldr	r3, [r3, #16]
   b7cac:	9301      	str	r3, [sp, #4]
   b7cae:	bd08      	pop	{r3, pc}
   b7cb0:	0003023c 	.word	0x0003023c

000b7cb4 <hal_usart_read>:
DYNALIB_FN(BASE_IDX + 5, hal_usart, hal_usart_read, int32_t(hal_usart_interface_t))
   b7cb4:	b508      	push	{r3, lr}
   b7cb6:	4b02      	ldr	r3, [pc, #8]	; (b7cc0 <hal_usart_read+0xc>)
   b7cb8:	681b      	ldr	r3, [r3, #0]
   b7cba:	695b      	ldr	r3, [r3, #20]
   b7cbc:	9301      	str	r3, [sp, #4]
   b7cbe:	bd08      	pop	{r3, pc}
   b7cc0:	0003023c 	.word	0x0003023c

000b7cc4 <hal_usart_peek>:
DYNALIB_FN(BASE_IDX + 6, hal_usart, hal_usart_peek, int32_t(hal_usart_interface_t))
   b7cc4:	b508      	push	{r3, lr}
   b7cc6:	4b02      	ldr	r3, [pc, #8]	; (b7cd0 <hal_usart_peek+0xc>)
   b7cc8:	681b      	ldr	r3, [r3, #0]
   b7cca:	699b      	ldr	r3, [r3, #24]
   b7ccc:	9301      	str	r3, [sp, #4]
   b7cce:	bd08      	pop	{r3, pc}
   b7cd0:	0003023c 	.word	0x0003023c

000b7cd4 <hal_usart_flush>:
DYNALIB_FN(BASE_IDX + 7, hal_usart, hal_usart_flush, void(hal_usart_interface_t))
   b7cd4:	b508      	push	{r3, lr}
   b7cd6:	4b02      	ldr	r3, [pc, #8]	; (b7ce0 <hal_usart_flush+0xc>)
   b7cd8:	681b      	ldr	r3, [r3, #0]
   b7cda:	69db      	ldr	r3, [r3, #28]
   b7cdc:	9301      	str	r3, [sp, #4]
   b7cde:	bd08      	pop	{r3, pc}
   b7ce0:	0003023c 	.word	0x0003023c

000b7ce4 <hal_usart_is_enabled>:
DYNALIB_FN(BASE_IDX + 8, hal_usart, hal_usart_is_enabled, bool(hal_usart_interface_t))
   b7ce4:	b508      	push	{r3, lr}
   b7ce6:	4b02      	ldr	r3, [pc, #8]	; (b7cf0 <hal_usart_is_enabled+0xc>)
   b7ce8:	681b      	ldr	r3, [r3, #0]
   b7cea:	6a1b      	ldr	r3, [r3, #32]
   b7cec:	9301      	str	r3, [sp, #4]
   b7cee:	bd08      	pop	{r3, pc}
   b7cf0:	0003023c 	.word	0x0003023c

000b7cf4 <hal_usart_available_data_for_write>:
DYNALIB_FN(BASE_IDX + 9, hal_usart, hal_usart_half_duplex, void(hal_usart_interface_t, bool))
DYNALIB_FN(BASE_IDX + 10, hal_usart, hal_usart_available_data_for_write, int32_t(hal_usart_interface_t))
   b7cf4:	b508      	push	{r3, lr}
   b7cf6:	4b02      	ldr	r3, [pc, #8]	; (b7d00 <hal_usart_available_data_for_write+0xc>)
   b7cf8:	681b      	ldr	r3, [r3, #0]
   b7cfa:	6a9b      	ldr	r3, [r3, #40]	; 0x28
   b7cfc:	9301      	str	r3, [sp, #4]
   b7cfe:	bd08      	pop	{r3, pc}
   b7d00:	0003023c 	.word	0x0003023c

000b7d04 <hal_usart_init_ex>:
DYNALIB_FN(BASE_IDX2 + 0, hal_usart, hal_usart_begin_config, void(hal_usart_interface_t serial, uint32_t baud, uint32_t config, void *ptr))
DYNALIB_FN(BASE_IDX2 + 1, hal_usart, hal_usart_write_nine_bits, uint32_t(hal_usart_interface_t serial, uint16_t data))
DYNALIB_FN(BASE_IDX2 + 2, hal_usart, hal_usart_send_break, void(hal_usart_interface_t, void*))
DYNALIB_FN(BASE_IDX2 + 3, hal_usart, hal_usart_break_detected, uint8_t(hal_usart_interface_t))
DYNALIB_FN(BASE_IDX2 + 4, hal_usart, hal_usart_sleep, int(hal_usart_interface_t serial, bool, void*))
DYNALIB_FN(BASE_IDX2 + 5, hal_usart, hal_usart_init_ex, int(hal_usart_interface_t, const hal_usart_buffer_config_t*, void*))
   b7d04:	b508      	push	{r3, lr}
   b7d06:	4b02      	ldr	r3, [pc, #8]	; (b7d10 <hal_usart_init_ex+0xc>)
   b7d08:	681b      	ldr	r3, [r3, #0]
   b7d0a:	6c1b      	ldr	r3, [r3, #64]	; 0x40
   b7d0c:	9301      	str	r3, [sp, #4]
   b7d0e:	bd08      	pop	{r3, pc}
   b7d10:	0003023c 	.word	0x0003023c

000b7d14 <hal_i2c_write>:
DYNALIB_FN(3, hal_i2c, hal_i2c_begin, void(hal_i2c_interface_t, hal_i2c_mode_t, uint8_t, void*))
DYNALIB_FN(4, hal_i2c, hal_i2c_end, void(hal_i2c_interface_t, void*))
DYNALIB_FN(5, hal_i2c, hal_i2c_request, uint32_t(hal_i2c_interface_t, uint8_t, uint8_t, uint8_t, void*))
DYNALIB_FN(6, hal_i2c, hal_i2c_begin_transmission, void(hal_i2c_interface_t, uint8_t, const hal_i2c_transmission_config_t*))
DYNALIB_FN(7, hal_i2c, hal_i2c_end_transmission, uint8_t(hal_i2c_interface_t, uint8_t, void*))
DYNALIB_FN(8, hal_i2c, hal_i2c_write, uint32_t(hal_i2c_interface_t, uint8_t, void*))
   b7d14:	b508      	push	{r3, lr}
   b7d16:	4b02      	ldr	r3, [pc, #8]	; (b7d20 <hal_i2c_write+0xc>)
   b7d18:	681b      	ldr	r3, [r3, #0]
   b7d1a:	6a1b      	ldr	r3, [r3, #32]
   b7d1c:	9301      	str	r3, [sp, #4]
   b7d1e:	bd08      	pop	{r3, pc}
   b7d20:	00030228 	.word	0x00030228

000b7d24 <hal_i2c_available>:
DYNALIB_FN(9, hal_i2c, hal_i2c_available, int32_t(hal_i2c_interface_t, void*))
   b7d24:	b508      	push	{r3, lr}
   b7d26:	4b02      	ldr	r3, [pc, #8]	; (b7d30 <hal_i2c_available+0xc>)
   b7d28:	681b      	ldr	r3, [r3, #0]
   b7d2a:	6a5b      	ldr	r3, [r3, #36]	; 0x24
   b7d2c:	9301      	str	r3, [sp, #4]
   b7d2e:	bd08      	pop	{r3, pc}
   b7d30:	00030228 	.word	0x00030228

000b7d34 <hal_i2c_read>:
DYNALIB_FN(10, hal_i2c, hal_i2c_read, int32_t(hal_i2c_interface_t, void*))
   b7d34:	b508      	push	{r3, lr}
   b7d36:	4b02      	ldr	r3, [pc, #8]	; (b7d40 <hal_i2c_read+0xc>)
   b7d38:	681b      	ldr	r3, [r3, #0]
   b7d3a:	6a9b      	ldr	r3, [r3, #40]	; 0x28
   b7d3c:	9301      	str	r3, [sp, #4]
   b7d3e:	bd08      	pop	{r3, pc}
   b7d40:	00030228 	.word	0x00030228

000b7d44 <hal_i2c_peek>:
DYNALIB_FN(11, hal_i2c, hal_i2c_peek, int32_t(hal_i2c_interface_t, void*))
   b7d44:	b508      	push	{r3, lr}
   b7d46:	4b02      	ldr	r3, [pc, #8]	; (b7d50 <hal_i2c_peek+0xc>)
   b7d48:	681b      	ldr	r3, [r3, #0]
   b7d4a:	6adb      	ldr	r3, [r3, #44]	; 0x2c
   b7d4c:	9301      	str	r3, [sp, #4]
   b7d4e:	bd08      	pop	{r3, pc}
   b7d50:	00030228 	.word	0x00030228

000b7d54 <hal_i2c_flush>:
DYNALIB_FN(12, hal_i2c, hal_i2c_flush, void(hal_i2c_interface_t, void*))
   b7d54:	b508      	push	{r3, lr}
   b7d56:	4b02      	ldr	r3, [pc, #8]	; (b7d60 <hal_i2c_flush+0xc>)
   b7d58:	681b      	ldr	r3, [r3, #0]
   b7d5a:	6b1b      	ldr	r3, [r3, #48]	; 0x30
   b7d5c:	9301      	str	r3, [sp, #4]
   b7d5e:	bd08      	pop	{r3, pc}
   b7d60:	00030228 	.word	0x00030228

000b7d64 <hal_i2c_is_enabled>:
DYNALIB_FN(13, hal_i2c, hal_i2c_is_enabled, bool(hal_i2c_interface_t, void*))
   b7d64:	b508      	push	{r3, lr}
   b7d66:	4b02      	ldr	r3, [pc, #8]	; (b7d70 <hal_i2c_is_enabled+0xc>)
   b7d68:	681b      	ldr	r3, [r3, #0]
   b7d6a:	6b5b      	ldr	r3, [r3, #52]	; 0x34
   b7d6c:	9301      	str	r3, [sp, #4]
   b7d6e:	bd08      	pop	{r3, pc}
   b7d70:	00030228 	.word	0x00030228

000b7d74 <hal_i2c_init>:
DYNALIB_FN(14, hal_i2c, hal_i2c_set_callback_on_received, void(hal_i2c_interface_t, void(*)(int), void*))
DYNALIB_FN(15, hal_i2c, hal_i2c_set_callback_on_requested, void(hal_i2c_interface_t, void(*)(void), void*))
DYNALIB_FN(16, hal_i2c, hal_i2c_init, int(hal_i2c_interface_t, const hal_i2c_config_t*))
   b7d74:	b508      	push	{r3, lr}
   b7d76:	4b02      	ldr	r3, [pc, #8]	; (b7d80 <hal_i2c_init+0xc>)
   b7d78:	681b      	ldr	r3, [r3, #0]
   b7d7a:	6c1b      	ldr	r3, [r3, #64]	; 0x40
   b7d7c:	9301      	str	r3, [sp, #4]
   b7d7e:	bd08      	pop	{r3, pc}
   b7d80:	00030228 	.word	0x00030228

000b7d84 <hal_spi_begin>:
// New HAL functions must be added to the end of this list.
// GNINRAW

DYNALIB_BEGIN(hal_spi)

DYNALIB_FN(0, hal_spi, hal_spi_begin, void(hal_spi_interface_t, uint16_t))
   b7d84:	b508      	push	{r3, lr}
   b7d86:	4b02      	ldr	r3, [pc, #8]	; (b7d90 <hal_spi_begin+0xc>)
   b7d88:	681b      	ldr	r3, [r3, #0]
   b7d8a:	681b      	ldr	r3, [r3, #0]
   b7d8c:	9301      	str	r3, [sp, #4]
   b7d8e:	bd08      	pop	{r3, pc}
   b7d90:	00030230 	.word	0x00030230

000b7d94 <hal_spi_end>:
DYNALIB_FN(1, hal_spi, hal_spi_end, void(hal_spi_interface_t))
   b7d94:	b508      	push	{r3, lr}
   b7d96:	4b02      	ldr	r3, [pc, #8]	; (b7da0 <hal_spi_end+0xc>)
   b7d98:	681b      	ldr	r3, [r3, #0]
   b7d9a:	685b      	ldr	r3, [r3, #4]
   b7d9c:	9301      	str	r3, [sp, #4]
   b7d9e:	bd08      	pop	{r3, pc}
   b7da0:	00030230 	.word	0x00030230

000b7da4 <hal_spi_transfer>:
DYNALIB_FN(2, hal_spi, hal_spi_set_bit_order, void(hal_spi_interface_t, uint8_t))
DYNALIB_FN(3, hal_spi, hal_spi_set_data_mode, void(hal_spi_interface_t, uint8_t))
DYNALIB_FN(4, hal_spi, hal_spi_set_clock_divider, void(hal_spi_interface_t, uint8_t))
DYNALIB_FN(5, hal_spi, hal_spi_transfer, uint16_t(hal_spi_interface_t, uint16_t))
   b7da4:	b508      	push	{r3, lr}
   b7da6:	4b02      	ldr	r3, [pc, #8]	; (b7db0 <hal_spi_transfer+0xc>)
   b7da8:	681b      	ldr	r3, [r3, #0]
   b7daa:	695b      	ldr	r3, [r3, #20]
   b7dac:	9301      	str	r3, [sp, #4]
   b7dae:	bd08      	pop	{r3, pc}
   b7db0:	00030230 	.word	0x00030230

000b7db4 <hal_spi_init>:
DYNALIB_FN(6, hal_spi, hal_spi_is_enabled_deprecated, bool(void))
DYNALIB_FN(7, hal_spi, hal_spi_init, void(hal_spi_interface_t))
   b7db4:	b508      	push	{r3, lr}
   b7db6:	4b02      	ldr	r3, [pc, #8]	; (b7dc0 <hal_spi_init+0xc>)
   b7db8:	681b      	ldr	r3, [r3, #0]
   b7dba:	69db      	ldr	r3, [r3, #28]
   b7dbc:	9301      	str	r3, [sp, #4]
   b7dbe:	bd08      	pop	{r3, pc}
   b7dc0:	00030230 	.word	0x00030230

000b7dc4 <hal_spi_is_enabled>:
DYNALIB_FN(8, hal_spi, hal_spi_is_enabled, bool(hal_spi_interface_t))
   b7dc4:	b508      	push	{r3, lr}
   b7dc6:	4b02      	ldr	r3, [pc, #8]	; (b7dd0 <hal_spi_is_enabled+0xc>)
   b7dc8:	681b      	ldr	r3, [r3, #0]
   b7dca:	6a1b      	ldr	r3, [r3, #32]
   b7dcc:	9301      	str	r3, [sp, #4]
   b7dce:	bd08      	pop	{r3, pc}
   b7dd0:	00030230 	.word	0x00030230

000b7dd4 <hal_spi_info>:
DYNALIB_FN(9, hal_spi, hal_spi_info, void(hal_spi_interface_t, hal_spi_info_t*, void*))
   b7dd4:	b508      	push	{r3, lr}
   b7dd6:	4b02      	ldr	r3, [pc, #8]	; (b7de0 <hal_spi_info+0xc>)
   b7dd8:	681b      	ldr	r3, [r3, #0]
   b7dda:	6a5b      	ldr	r3, [r3, #36]	; 0x24
   b7ddc:	9301      	str	r3, [sp, #4]
   b7dde:	bd08      	pop	{r3, pc}
   b7de0:	00030230 	.word	0x00030230

000b7de4 <hal_spi_set_settings>:
DYNALIB_FN(10, hal_spi, hal_spi_transfer_dma, void(hal_spi_interface_t, const void*, void*, uint32_t, hal_spi_dma_user_callback))
DYNALIB_FN(11, hal_spi, hal_spi_begin_ext, void(hal_spi_interface_t, hal_spi_mode_t, uint16_t, const hal_spi_config_t*))
DYNALIB_FN(12, hal_spi, hal_spi_set_callback_on_selected, void(hal_spi_interface_t, hal_spi_select_user_callback, void*))
DYNALIB_FN(13, hal_spi, hal_spi_transfer_dma_cancel, void(hal_spi_interface_t))
DYNALIB_FN(14, hal_spi, hal_spi_transfer_dma_status, int32_t(hal_spi_interface_t, hal_spi_transfer_status_t*))
DYNALIB_FN(15, hal_spi, hal_spi_set_settings, int32_t(hal_spi_interface_t, uint8_t, uint8_t, uint8_t, uint8_t, void*))
   b7de4:	b508      	push	{r3, lr}
   b7de6:	4b02      	ldr	r3, [pc, #8]	; (b7df0 <hal_spi_set_settings+0xc>)
   b7de8:	681b      	ldr	r3, [r3, #0]
   b7dea:	6bdb      	ldr	r3, [r3, #60]	; 0x3c
   b7dec:	9301      	str	r3, [sp, #4]
   b7dee:	bd08      	pop	{r3, pc}
   b7df0:	00030230 	.word	0x00030230

000b7df4 <hal_spi_acquire>:
#if HAL_PLATFORM_SPI_HAL_THREAD_SAFETY
DYNALIB_FN(16, hal_spi, hal_spi_acquire, int32_t(hal_spi_interface_t, const hal_spi_acquire_config_t*))
   b7df4:	b508      	push	{r3, lr}
   b7df6:	4b02      	ldr	r3, [pc, #8]	; (b7e00 <hal_spi_acquire+0xc>)
   b7df8:	681b      	ldr	r3, [r3, #0]
   b7dfa:	6c1b      	ldr	r3, [r3, #64]	; 0x40
   b7dfc:	9301      	str	r3, [sp, #4]
   b7dfe:	bd08      	pop	{r3, pc}
   b7e00:	00030230 	.word	0x00030230

000b7e04 <hal_spi_release>:
DYNALIB_FN(17, hal_spi, hal_spi_release, int32_t(hal_spi_interface_t, void*))
   b7e04:	b508      	push	{r3, lr}
   b7e06:	4b02      	ldr	r3, [pc, #8]	; (b7e10 <hal_spi_release+0xc>)
   b7e08:	681b      	ldr	r3, [r3, #0]
   b7e0a:	6c5b      	ldr	r3, [r3, #68]	; 0x44
   b7e0c:	9301      	str	r3, [sp, #4]
   b7e0e:	bd08      	pop	{r3, pc}
   b7e10:	00030230 	.word	0x00030230

000b7e14 <HAL_USB_USART_Init>:
// GNINRAW

DYNALIB_BEGIN(hal_usb)

#ifdef USB_CDC_ENABLE
DYNALIB_FN(0, hal_usb, HAL_USB_USART_Init, void(HAL_USB_USART_Serial, const HAL_USB_USART_Config*))
   b7e14:	b508      	push	{r3, lr}
   b7e16:	4b02      	ldr	r3, [pc, #8]	; (b7e20 <HAL_USB_USART_Init+0xc>)
   b7e18:	681b      	ldr	r3, [r3, #0]
   b7e1a:	681b      	ldr	r3, [r3, #0]
   b7e1c:	9301      	str	r3, [sp, #4]
   b7e1e:	bd08      	pop	{r3, pc}
   b7e20:	0003024c 	.word	0x0003024c

000b7e24 <HAL_USB_USART_Begin>:
DYNALIB_FN(1, hal_usb, HAL_USB_USART_Begin, void(HAL_USB_USART_Serial, uint32_t, void *))
   b7e24:	b508      	push	{r3, lr}
   b7e26:	4b02      	ldr	r3, [pc, #8]	; (b7e30 <HAL_USB_USART_Begin+0xc>)
   b7e28:	681b      	ldr	r3, [r3, #0]
   b7e2a:	685b      	ldr	r3, [r3, #4]
   b7e2c:	9301      	str	r3, [sp, #4]
   b7e2e:	bd08      	pop	{r3, pc}
   b7e30:	0003024c 	.word	0x0003024c

000b7e34 <HAL_USB_USART_Available_Data>:
DYNALIB_FN(2, hal_usb, HAL_USB_USART_End, void(HAL_USB_USART_Serial))
DYNALIB_FN(3, hal_usb, HAL_USB_USART_Baud_Rate, unsigned int(HAL_USB_USART_Serial))
DYNALIB_FN(4, hal_usb, HAL_USB_USART_Available_Data, int32_t(HAL_USB_USART_Serial))
   b7e34:	b508      	push	{r3, lr}
   b7e36:	4b02      	ldr	r3, [pc, #8]	; (b7e40 <HAL_USB_USART_Available_Data+0xc>)
   b7e38:	681b      	ldr	r3, [r3, #0]
   b7e3a:	691b      	ldr	r3, [r3, #16]
   b7e3c:	9301      	str	r3, [sp, #4]
   b7e3e:	bd08      	pop	{r3, pc}
   b7e40:	0003024c 	.word	0x0003024c

000b7e44 <HAL_USB_USART_Available_Data_For_Write>:
DYNALIB_FN(5, hal_usb, HAL_USB_USART_Available_Data_For_Write, int32_t(HAL_USB_USART_Serial))
   b7e44:	b508      	push	{r3, lr}
   b7e46:	4b02      	ldr	r3, [pc, #8]	; (b7e50 <HAL_USB_USART_Available_Data_For_Write+0xc>)
   b7e48:	681b      	ldr	r3, [r3, #0]
   b7e4a:	695b      	ldr	r3, [r3, #20]
   b7e4c:	9301      	str	r3, [sp, #4]
   b7e4e:	bd08      	pop	{r3, pc}
   b7e50:	0003024c 	.word	0x0003024c

000b7e54 <HAL_USB_USART_Receive_Data>:
DYNALIB_FN(6, hal_usb, HAL_USB_USART_Receive_Data, int32_t(HAL_USB_USART_Serial, uint8_t))
   b7e54:	b508      	push	{r3, lr}
   b7e56:	4b02      	ldr	r3, [pc, #8]	; (b7e60 <HAL_USB_USART_Receive_Data+0xc>)
   b7e58:	681b      	ldr	r3, [r3, #0]
   b7e5a:	699b      	ldr	r3, [r3, #24]
   b7e5c:	9301      	str	r3, [sp, #4]
   b7e5e:	bd08      	pop	{r3, pc}
   b7e60:	0003024c 	.word	0x0003024c

000b7e64 <HAL_USB_USART_Send_Data>:
DYNALIB_FN(7, hal_usb, HAL_USB_USART_Send_Data, int32_t(HAL_USB_USART_Serial, uint8_t))
   b7e64:	b508      	push	{r3, lr}
   b7e66:	4b02      	ldr	r3, [pc, #8]	; (b7e70 <HAL_USB_USART_Send_Data+0xc>)
   b7e68:	681b      	ldr	r3, [r3, #0]
   b7e6a:	69db      	ldr	r3, [r3, #28]
   b7e6c:	9301      	str	r3, [sp, #4]
   b7e6e:	bd08      	pop	{r3, pc}
   b7e70:	0003024c 	.word	0x0003024c

000b7e74 <HAL_USB_USART_Flush_Data>:
DYNALIB_FN(8, hal_usb, HAL_USB_USART_Flush_Data, void(HAL_USB_USART_Serial))
   b7e74:	b508      	push	{r3, lr}
   b7e76:	4b02      	ldr	r3, [pc, #8]	; (b7e80 <HAL_USB_USART_Flush_Data+0xc>)
   b7e78:	681b      	ldr	r3, [r3, #0]
   b7e7a:	6a1b      	ldr	r3, [r3, #32]
   b7e7c:	9301      	str	r3, [sp, #4]
   b7e7e:	bd08      	pop	{r3, pc}
   b7e80:	0003024c 	.word	0x0003024c

000b7e84 <panic_>:
DYNALIB_FN(9, services, LED_Toggle, void(Led_TypeDef))
DYNALIB_FN(10, services, LED_Fade, void(Led_TypeDef))
DYNALIB_FN(11, services, Get_LED_Brightness, uint8_t(void))

DYNALIB_FN(12, services, set_logger_output, void(debug_output_fn, LoggerOutputLevel)) // Deprecated
DYNALIB_FN(13, services, panic_, void(ePanicCode, void*, void(*)(uint32_t)))
   b7e84:	b508      	push	{r3, lr}
   b7e86:	4b02      	ldr	r3, [pc, #8]	; (b7e90 <panic_+0xc>)
   b7e88:	681b      	ldr	r3, [r3, #0]
   b7e8a:	6b5b      	ldr	r3, [r3, #52]	; 0x34
   b7e8c:	9301      	str	r3, [sp, #4]
   b7e8e:	bd08      	pop	{r3, pc}
   b7e90:	00030260 	.word	0x00030260

000b7e94 <set_system_mode>:
#endif

DYNALIB_BEGIN(system)

DYNALIB_FN(0, system, system_mode, System_Mode_TypeDef(void))
DYNALIB_FN(1, system, set_system_mode, void(System_Mode_TypeDef))
   b7e94:	b508      	push	{r3, lr}
   b7e96:	4b02      	ldr	r3, [pc, #8]	; (b7ea0 <set_system_mode+0xc>)
   b7e98:	681b      	ldr	r3, [r3, #0]
   b7e9a:	685b      	ldr	r3, [r3, #4]
   b7e9c:	9301      	str	r3, [sp, #4]
   b7e9e:	bd08      	pop	{r3, pc}
   b7ea0:	00030220 	.word	0x00030220

000b7ea4 <system_delay_ms>:

DYNALIB_FN(2, system, set_ymodem_serial_flash_update_handler, void(ymodem_serial_flash_update_handler))
DYNALIB_FN(3, system, system_firmwareUpdate, bool(Stream*, void*))
DYNALIB_FN(4, system, system_fileTransfer, bool(system_file_transfer_t*, void*))

DYNALIB_FN(5, system, system_delay_ms, void(unsigned long, bool))
   b7ea4:	b508      	push	{r3, lr}
   b7ea6:	4b02      	ldr	r3, [pc, #8]	; (b7eb0 <system_delay_ms+0xc>)
   b7ea8:	681b      	ldr	r3, [r3, #0]
   b7eaa:	695b      	ldr	r3, [r3, #20]
   b7eac:	9301      	str	r3, [sp, #4]
   b7eae:	bd08      	pop	{r3, pc}
   b7eb0:	00030220 	.word	0x00030220

000b7eb4 <system_thread_set_state>:
DYNALIB_FN(6, system, system_sleep, int(Spark_Sleep_TypeDef, long, uint32_t, void*))
DYNALIB_FN(7, system, system_sleep_pin, int(uint16_t, uint16_t, long, uint32_t, void*))
DYNALIB_FN(8, system, system_subscribe_event, int(system_event_t, system_event_handler_t*, SystemEventContext*))
DYNALIB_FN(9, system, system_unsubscribe_event, void(system_event_t, system_event_handler_t*, const SystemEventContext*))
DYNALIB_FN(10, system, system_button_pushed_duration, uint16_t(uint8_t, void*))
DYNALIB_FN(11, system, system_thread_set_state, void(spark::feature::State, void*))
   b7eb4:	b508      	push	{r3, lr}
   b7eb6:	4b02      	ldr	r3, [pc, #8]	; (b7ec0 <system_thread_set_state+0xc>)
   b7eb8:	681b      	ldr	r3, [r3, #0]
   b7eba:	6adb      	ldr	r3, [r3, #44]	; 0x2c
   b7ebc:	9301      	str	r3, [sp, #4]
   b7ebe:	bd08      	pop	{r3, pc}
   b7ec0:	00030220 	.word	0x00030220

000b7ec4 <system_ctrl_set_app_request_handler>:
DYNALIB_FN(BASE_IDX + 6, system, led_pattern_period, uint16_t(int, int, void*))
DYNALIB_FN(BASE_IDX + 7, system, system_set_tester_handlers, int(system_tester_handlers_t*, void*))
DYNALIB_FN(BASE_IDX + 8, system, system_format_diag_data, int(const uint16_t*, size_t, unsigned, appender_fn, void*, void*))

// Control requests
DYNALIB_FN(BASE_IDX + 9, system, system_ctrl_set_app_request_handler, int(ctrl_request_handler_fn, void*))
   b7ec4:	b508      	push	{r3, lr}
   b7ec6:	4b03      	ldr	r3, [pc, #12]	; (b7ed4 <system_ctrl_set_app_request_handler+0x10>)
   b7ec8:	681b      	ldr	r3, [r3, #0]
   b7eca:	f8d3 3088 	ldr.w	r3, [r3, #136]	; 0x88
   b7ece:	9301      	str	r3, [sp, #4]
   b7ed0:	bd08      	pop	{r3, pc}
   b7ed2:	0000      	.short	0x0000
   b7ed4:	00030220 	.word	0x00030220

000b7ed8 <system_ctrl_set_result>:
DYNALIB_FN(BASE_IDX + 10, system, system_ctrl_alloc_reply_data, int(ctrl_request*, size_t, void*))
DYNALIB_FN(BASE_IDX + 11, system, system_ctrl_free_request_data, void(ctrl_request*, void*))
DYNALIB_FN(BASE_IDX + 12, system, system_ctrl_set_result, void(ctrl_request*, int, ctrl_completion_handler_fn, void*, void*))
   b7ed8:	b508      	push	{r3, lr}
   b7eda:	4b03      	ldr	r3, [pc, #12]	; (b7ee8 <system_ctrl_set_result+0x10>)
   b7edc:	681b      	ldr	r3, [r3, #0]
   b7ede:	f8d3 3094 	ldr.w	r3, [r3, #148]	; 0x94
   b7ee2:	9301      	str	r3, [sp, #4]
   b7ee4:	bd08      	pop	{r3, pc}
   b7ee6:	0000      	.short	0x0000
   b7ee8:	00030220 	.word	0x00030220

000b7eec <network_connect>:
#endif

DYNALIB_BEGIN(system_net)

DYNALIB_FN(0, system_net, network_config, const void*(network_handle_t, uint32_t, void*))
DYNALIB_FN(1, system_net, network_connect, void(network_handle_t, uint32_t, uint32_t, void*))
   b7eec:	b508      	push	{r3, lr}
   b7eee:	4b02      	ldr	r3, [pc, #8]	; (b7ef8 <network_connect+0xc>)
   b7ef0:	681b      	ldr	r3, [r3, #0]
   b7ef2:	685b      	ldr	r3, [r3, #4]
   b7ef4:	9301      	str	r3, [sp, #4]
   b7ef6:	bd08      	pop	{r3, pc}
   b7ef8:	00030240 	.word	0x00030240

000b7efc <network_connecting>:
DYNALIB_FN(2, system_net, network_connecting, bool(network_handle_t, uint32_t, void*))
   b7efc:	b508      	push	{r3, lr}
   b7efe:	4b02      	ldr	r3, [pc, #8]	; (b7f08 <network_connecting+0xc>)
   b7f00:	681b      	ldr	r3, [r3, #0]
   b7f02:	689b      	ldr	r3, [r3, #8]
   b7f04:	9301      	str	r3, [sp, #4]
   b7f06:	bd08      	pop	{r3, pc}
   b7f08:	00030240 	.word	0x00030240

000b7f0c <network_disconnect>:
DYNALIB_FN(3, system_net, network_disconnect, void(network_handle_t, uint32_t, void*))
   b7f0c:	b508      	push	{r3, lr}
   b7f0e:	4b02      	ldr	r3, [pc, #8]	; (b7f18 <network_disconnect+0xc>)
   b7f10:	681b      	ldr	r3, [r3, #0]
   b7f12:	68db      	ldr	r3, [r3, #12]
   b7f14:	9301      	str	r3, [sp, #4]
   b7f16:	bd08      	pop	{r3, pc}
   b7f18:	00030240 	.word	0x00030240

000b7f1c <network_ready>:
DYNALIB_FN(4, system_net, network_ready, bool(network_handle_t, uint32_t, void*))
   b7f1c:	b508      	push	{r3, lr}
   b7f1e:	4b02      	ldr	r3, [pc, #8]	; (b7f28 <network_ready+0xc>)
   b7f20:	681b      	ldr	r3, [r3, #0]
   b7f22:	691b      	ldr	r3, [r3, #16]
   b7f24:	9301      	str	r3, [sp, #4]
   b7f26:	bd08      	pop	{r3, pc}
   b7f28:	00030240 	.word	0x00030240

000b7f2c <network_on>:
DYNALIB_FN(5, system_net, network_on, void(network_handle_t, uint32_t, uint32_t, void*))
   b7f2c:	b508      	push	{r3, lr}
   b7f2e:	4b02      	ldr	r3, [pc, #8]	; (b7f38 <network_on+0xc>)
   b7f30:	681b      	ldr	r3, [r3, #0]
   b7f32:	695b      	ldr	r3, [r3, #20]
   b7f34:	9301      	str	r3, [sp, #4]
   b7f36:	bd08      	pop	{r3, pc}
   b7f38:	00030240 	.word	0x00030240

000b7f3c <network_off>:
DYNALIB_FN(6, system_net, network_off, void(network_handle_t, uint32_t, uint32_t, void*))
   b7f3c:	b508      	push	{r3, lr}
   b7f3e:	4b02      	ldr	r3, [pc, #8]	; (b7f48 <network_off+0xc>)
   b7f40:	681b      	ldr	r3, [r3, #0]
   b7f42:	699b      	ldr	r3, [r3, #24]
   b7f44:	9301      	str	r3, [sp, #4]
   b7f46:	bd08      	pop	{r3, pc}
   b7f48:	00030240 	.word	0x00030240

000b7f4c <network_listen>:
DYNALIB_FN(7, system_net, network_listen, void(network_handle_t, uint32_t, void*))
   b7f4c:	b508      	push	{r3, lr}
   b7f4e:	4b02      	ldr	r3, [pc, #8]	; (b7f58 <network_listen+0xc>)
   b7f50:	681b      	ldr	r3, [r3, #0]
   b7f52:	69db      	ldr	r3, [r3, #28]
   b7f54:	9301      	str	r3, [sp, #4]
   b7f56:	bd08      	pop	{r3, pc}
   b7f58:	00030240 	.word	0x00030240

000b7f5c <network_listening>:
DYNALIB_FN(8, system_net, network_listening, bool(network_handle_t, uint32_t, void*))
   b7f5c:	b508      	push	{r3, lr}
   b7f5e:	4b02      	ldr	r3, [pc, #8]	; (b7f68 <network_listening+0xc>)
   b7f60:	681b      	ldr	r3, [r3, #0]
   b7f62:	6a1b      	ldr	r3, [r3, #32]
   b7f64:	9301      	str	r3, [sp, #4]
   b7f66:	bd08      	pop	{r3, pc}
   b7f68:	00030240 	.word	0x00030240

000b7f6c <network_set_listen_timeout>:
DYNALIB_FN(9, system_net, network_has_credentials, bool(network_handle_t, uint32_t, void*))
DYNALIB_FN(10, system_net, network_set_credentials, int(network_handle_t, uint32_t, NetworkCredentials*, void*))
DYNALIB_FN(11, system_net, network_clear_credentials, bool(network_handle_t, uint32_t, NetworkCredentials*, void*))
DYNALIB_FN(12, system_net, network_set_listen_timeout, void(network_handle_t, uint16_t, void*))
   b7f6c:	b508      	push	{r3, lr}
   b7f6e:	4b02      	ldr	r3, [pc, #8]	; (b7f78 <network_set_listen_timeout+0xc>)
   b7f70:	681b      	ldr	r3, [r3, #0]
   b7f72:	6b1b      	ldr	r3, [r3, #48]	; 0x30
   b7f74:	9301      	str	r3, [sp, #4]
   b7f76:	bd08      	pop	{r3, pc}
   b7f78:	00030240 	.word	0x00030240

000b7f7c <network_get_listen_timeout>:
DYNALIB_FN(13, system_net, network_get_listen_timeout, uint16_t(network_handle_t, uint32_t, void*))
   b7f7c:	b508      	push	{r3, lr}
   b7f7e:	4b02      	ldr	r3, [pc, #8]	; (b7f88 <network_get_listen_timeout+0xc>)
   b7f80:	681b      	ldr	r3, [r3, #0]
   b7f82:	6b5b      	ldr	r3, [r3, #52]	; 0x34
   b7f84:	9301      	str	r3, [sp, #4]
   b7f86:	bd08      	pop	{r3, pc}
   b7f88:	00030240 	.word	0x00030240

000b7f8c <network_is_on>:
DYNALIB_FN(14, system_net, network_set_hostname, int(network_handle_t, uint32_t, const char*, void*))
DYNALIB_FN(15, system_net, network_get_hostname, int(network_handle_t, uint32_t, char*, size_t, void*))
DYNALIB_FN(16, system_net, network_is_on, bool(network_handle_t, void*))
   b7f8c:	b508      	push	{r3, lr}
   b7f8e:	4b02      	ldr	r3, [pc, #8]	; (b7f98 <network_is_on+0xc>)
   b7f90:	681b      	ldr	r3, [r3, #0]
   b7f92:	6c1b      	ldr	r3, [r3, #64]	; 0x40
   b7f94:	9301      	str	r3, [sp, #4]
   b7f96:	bd08      	pop	{r3, pc}
   b7f98:	00030240 	.word	0x00030240

000b7f9c <network_is_off>:
DYNALIB_FN(17, system_net, network_is_off, bool(network_handle_t, void*))
   b7f9c:	b508      	push	{r3, lr}
   b7f9e:	4b02      	ldr	r3, [pc, #8]	; (b7fa8 <network_is_off+0xc>)
   b7fa0:	681b      	ldr	r3, [r3, #0]
   b7fa2:	6c5b      	ldr	r3, [r3, #68]	; 0x44
   b7fa4:	9301      	str	r3, [sp, #4]
   b7fa6:	bd08      	pop	{r3, pc}
   b7fa8:	00030240 	.word	0x00030240

000b7fac <network_prefer>:
DYNALIB_FN(18, system_net, network_set_configuration, int(network_handle_t, const network_configuration_t*, void*))
DYNALIB_FN(19, system_net, network_get_configuration, int(network_handle_t, network_configuration_t**, size_t*, const char*, size_t, void*))
DYNALIB_FN(20, system_net, network_free_configuration, int(network_configuration_t*, size_t, void*))
DYNALIB_FN(21, system_net, network_prefer, network_handle_t(network_handle_t, bool, void*))
   b7fac:	b508      	push	{r3, lr}
   b7fae:	4b02      	ldr	r3, [pc, #8]	; (b7fb8 <network_prefer+0xc>)
   b7fb0:	681b      	ldr	r3, [r3, #0]
   b7fb2:	6d5b      	ldr	r3, [r3, #84]	; 0x54
   b7fb4:	9301      	str	r3, [sp, #4]
   b7fb6:	bd08      	pop	{r3, pc}
   b7fb8:	00030240 	.word	0x00030240

000b7fbc <network_is_preferred>:
DYNALIB_FN(22, system_net, network_is_preferred, bool(network_handle_t, void*))
   b7fbc:	b508      	push	{r3, lr}
   b7fbe:	4b02      	ldr	r3, [pc, #8]	; (b7fc8 <network_is_preferred+0xc>)
   b7fc0:	681b      	ldr	r3, [r3, #0]
   b7fc2:	6d9b      	ldr	r3, [r3, #88]	; 0x58
   b7fc4:	9301      	str	r3, [sp, #4]
   b7fc6:	bd08      	pop	{r3, pc}
   b7fc8:	00030240 	.word	0x00030240

000b7fcc <spark_set_random_seed_from_cloud_handler>:
DYNALIB_FN(10, system_cloud, spark_unsubscribe, void(void*))
DYNALIB_FN(11, system_cloud, spark_sync_time, bool(void*))
DYNALIB_FN(12, system_cloud, spark_sync_time_pending, bool(void*))
DYNALIB_FN(13, system_cloud, spark_sync_time_last, system_tick_t(time32_t*, time_t*))
DYNALIB_FN(14, system_cloud, spark_set_connection_property, int(unsigned, unsigned, const void*, void*))
DYNALIB_FN(15, system_cloud, spark_set_random_seed_from_cloud_handler, int(void (*handler)(unsigned int), void*))
   b7fcc:	b508      	push	{r3, lr}
   b7fce:	4b02      	ldr	r3, [pc, #8]	; (b7fd8 <spark_set_random_seed_from_cloud_handler+0xc>)
   b7fd0:	681b      	ldr	r3, [r3, #0]
   b7fd2:	6bdb      	ldr	r3, [r3, #60]	; 0x3c
   b7fd4:	9301      	str	r3, [sp, #4]
   b7fd6:	bd08      	pop	{r3, pc}
   b7fd8:	00030244 	.word	0x00030244

000b7fdc <malloc>:
#include "hal_platform.h"
#endif // defined(DYNALIB_EXPORT) || (defined(DYNALIB_IMPORT) && !defined(RT_DYNALIB_NO_DEPENDENCY_BREAKING_IMPORTS))

DYNALIB_BEGIN(rt)

DYNALIB_FN(0, rt, malloc, void*(size_t))
   b7fdc:	b508      	push	{r3, lr}
   b7fde:	4b02      	ldr	r3, [pc, #8]	; (b7fe8 <malloc+0xc>)
   b7fe0:	681b      	ldr	r3, [r3, #0]
   b7fe2:	681b      	ldr	r3, [r3, #0]
   b7fe4:	9301      	str	r3, [sp, #4]
   b7fe6:	bd08      	pop	{r3, pc}
   b7fe8:	0003021c 	.word	0x0003021c

000b7fec <free>:
DYNALIB_FN(1, rt, free, void(void*))
   b7fec:	b508      	push	{r3, lr}
   b7fee:	4b02      	ldr	r3, [pc, #8]	; (b7ff8 <free+0xc>)
   b7ff0:	681b      	ldr	r3, [r3, #0]
   b7ff2:	685b      	ldr	r3, [r3, #4]
   b7ff4:	9301      	str	r3, [sp, #4]
   b7ff6:	bd08      	pop	{r3, pc}
   b7ff8:	0003021c 	.word	0x0003021c

000b7ffc <vsnprintf>:
DYNALIB_FN(4, rt, siprintf, int(char*, const char*, ...))
DYNALIB_FN(5, rt, sscanf, int(const char*, const char*, ...))
DYNALIB_FN(6, rt, siscanf, int(const char*, const char*, ...))
DYNALIB_FN(7, rt, snprintf, int(char*, size_t, const char*, ...))
DYNALIB_FN(8, rt, sniprintf, int(char*, size_t, const char*, ...))
DYNALIB_FN(9, rt, vsnprintf, int(char*, size_t, const char*, va_list))
   b7ffc:	b508      	push	{r3, lr}
   b7ffe:	4b02      	ldr	r3, [pc, #8]	; (b8008 <vsnprintf+0xc>)
   b8000:	681b      	ldr	r3, [r3, #0]
   b8002:	6a5b      	ldr	r3, [r3, #36]	; 0x24
   b8004:	9301      	str	r3, [sp, #4]
   b8006:	bd08      	pop	{r3, pc}
   b8008:	0003021c 	.word	0x0003021c

000b800c <__assert_func>:
DYNALIB_FN(13, rt, _free_r, void(struct _reent*, void*))
DYNALIB_FN(14, rt, _realloc_r, void*(struct _reent*, void*, size_t))
DYNALIB_FN(15, rt, __errno, int*())

#if defined(DYNALIB_EXPORT) || (defined(DYNALIB_IMPORT) && !defined(RT_DYNALIB_NO_DEPENDENCY_BREAKING_IMPORTS))
DYNALIB_FN(16, rt, __assert_func, void(const char*, int, const char*, const char*))
   b800c:	b508      	push	{r3, lr}
   b800e:	4b02      	ldr	r3, [pc, #8]	; (b8018 <__assert_func+0xc>)
   b8010:	681b      	ldr	r3, [r3, #0]
   b8012:	6c1b      	ldr	r3, [r3, #64]	; 0x40
   b8014:	9301      	str	r3, [sp, #4]
   b8016:	bd08      	pop	{r3, pc}
   b8018:	0003021c 	.word	0x0003021c

000b801c <newlib_impure_ptr_callback>:
DYNALIB_FN(17, rt, newlib_impure_ptr_callback, void(void (*)(struct _reent*, size_t, uint32_t, void*), void*))
   b801c:	b508      	push	{r3, lr}
   b801e:	4b02      	ldr	r3, [pc, #8]	; (b8028 <newlib_impure_ptr_callback+0xc>)
   b8020:	681b      	ldr	r3, [r3, #0]
   b8022:	6c5b      	ldr	r3, [r3, #68]	; 0x44
   b8024:	9301      	str	r3, [sp, #4]
   b8026:	bd08      	pop	{r3, pc}
   b8028:	0003021c 	.word	0x0003021c

000b802c <_ZN5spark13EthernetClass9listeningEv>:
    uint16_t getListenTimeout(void) {
        return network_get_listen_timeout(*this, 0, NULL);
    }

    bool listening(void) {
        return network_listening(*this, 0, NULL);
   b802c:	2200      	movs	r2, #0
   b802e:	6840      	ldr	r0, [r0, #4]
   b8030:	4611      	mov	r1, r2
   b8032:	f7ff bf93 	b.w	b7f5c <network_listening>

000b8036 <_ZN5spark13EthernetClass16getListenTimeoutEv>:
        return network_get_listen_timeout(*this, 0, NULL);
   b8036:	2200      	movs	r2, #0
   b8038:	6840      	ldr	r0, [r0, #4]
   b803a:	4611      	mov	r1, r2
   b803c:	f7ff bf9e 	b.w	b7f7c <network_get_listen_timeout>

000b8040 <_ZN5spark13EthernetClass16setListenTimeoutEt>:
        network_set_listen_timeout(*this, timeout, NULL);
   b8040:	6840      	ldr	r0, [r0, #4]
   b8042:	2200      	movs	r2, #0
   b8044:	f7ff bf92 	b.w	b7f6c <network_set_listen_timeout>

000b8048 <_ZN5spark13EthernetClass6listenEb>:
        network_listen(*this, begin ? 0 : 1, NULL);
   b8048:	6840      	ldr	r0, [r0, #4]
   b804a:	2200      	movs	r2, #0
   b804c:	f081 0101 	eor.w	r1, r1, #1
   b8050:	f7ff bf7c 	b.w	b7f4c <network_listen>

000b8054 <_ZN5spark13EthernetClass3offEv>:
        network_off(*this, 0, 0, NULL);
   b8054:	2300      	movs	r3, #0
   b8056:	6840      	ldr	r0, [r0, #4]
   b8058:	461a      	mov	r2, r3
   b805a:	4619      	mov	r1, r3
   b805c:	f7ff bf6e 	b.w	b7f3c <network_off>

000b8060 <_ZN5spark13EthernetClass2onEv>:
        network_on(*this, 0, 0, NULL);
   b8060:	2300      	movs	r3, #0
   b8062:	6840      	ldr	r0, [r0, #4]
   b8064:	461a      	mov	r2, r3
   b8066:	4619      	mov	r1, r3
   b8068:	f7ff bf60 	b.w	b7f2c <network_on>

000b806c <_ZN5spark13EthernetClass5readyEv>:
    }

    bool ready() {
        return network_ready(*this, 0,  NULL);
   b806c:	2200      	movs	r2, #0
   b806e:	6840      	ldr	r0, [r0, #4]
   b8070:	4611      	mov	r1, r2
   b8072:	f7ff bf53 	b.w	b7f1c <network_ready>

000b8076 <_ZN5spark13EthernetClass10connectingEv>:
        return network_connecting(*this, 0, NULL);
   b8076:	2200      	movs	r2, #0
   b8078:	6840      	ldr	r0, [r0, #4]
   b807a:	4611      	mov	r1, r2
   b807c:	f7ff bf3e 	b.w	b7efc <network_connecting>

000b8080 <_ZN5spark13EthernetClass10disconnectEv>:
        network_disconnect(*this, NETWORK_DISCONNECT_REASON_USER, NULL);
   b8080:	6840      	ldr	r0, [r0, #4]
   b8082:	2200      	movs	r2, #0
   b8084:	2102      	movs	r1, #2
   b8086:	f7ff bf41 	b.w	b7f0c <network_disconnect>

000b808a <_ZN5spark13EthernetClass7connectEj>:
        network_connect(*this, flags, 0, NULL);
   b808a:	2300      	movs	r3, #0
   b808c:	6840      	ldr	r0, [r0, #4]
   b808e:	461a      	mov	r2, r3
   b8090:	f7ff bf2c 	b.w	b7eec <network_connect>

000b8094 <_GLOBAL__sub_I__ZN5spark8EthernetE>:
    static NetworkClass& from(network_interface_t nif);

    virtual IPAddress resolve(const char* name);

    explicit NetworkClass(network_interface_t iface)
            : iface_(iface) {
   b8094:	4b02      	ldr	r3, [pc, #8]	; (b80a0 <_GLOBAL__sub_I__ZN5spark8EthernetE+0xc>)
   b8096:	2203      	movs	r2, #3
   b8098:	605a      	str	r2, [r3, #4]
            NetworkClass(NETWORK_INTERFACE_ETHERNET) {
   b809a:	4a02      	ldr	r2, [pc, #8]	; (b80a4 <_GLOBAL__sub_I__ZN5spark8EthernetE+0x10>)
   b809c:	601a      	str	r2, [r3, #0]

namespace spark {

EthernetClass Ethernet;

} // spark
   b809e:	4770      	bx	lr
   b80a0:	2003e6a8 	.word	0x2003e6a8
   b80a4:	000d7ae8 	.word	0x000d7ae8

000b80a8 <_ZN8SPIClass6unlockEv.isra.0>:
  }

  void unlock()
  {
#if HAL_PLATFORM_SPI_HAL_THREAD_SAFETY
    hal_spi_release(_spi, nullptr);
   b80a8:	2100      	movs	r1, #0
   b80aa:	f7ff beab 	b.w	b7e04 <hal_spi_release>

000b80ae <_ZN8SPIClass4lockEv.isra.0>:
    return hal_spi_acquire(_spi, nullptr);
   b80ae:	2100      	movs	r1, #0
   b80b0:	f7ff bea0 	b.w	b7df4 <hal_spi_acquire>

000b80b4 <_ZN8SPIClassC1E19hal_spi_interface_t>:
    }
    return particle::SPISettings(info->clock, info->bit_order, info->data_mode);
}
} // namespace

SPIClass::SPIClass(hal_spi_interface_t spi)
   b80b4:	b510      	push	{r4, lr}
   b80b6:	4604      	mov	r4, r0
   b80b8:	4608      	mov	r0, r1
{
    _spi = spi;
   b80ba:	7021      	strb	r1, [r4, #0]
    hal_spi_init(_spi);
   b80bc:	f7ff fe7a 	bl	b7db4 <hal_spi_init>
    _dividerReference = SPI_CLK_SYSTEM; // 0 indicates the system clock
   b80c0:	2300      	movs	r3, #0
   b80c2:	6063      	str	r3, [r4, #4]
}
   b80c4:	4620      	mov	r0, r4
   b80c6:	bd10      	pop	{r4, pc}

000b80c8 <_ZN8SPIClass5beginEv>:

void SPIClass::begin()
{
   b80c8:	b513      	push	{r0, r1, r4, lr}
   b80ca:	4604      	mov	r4, r0
    // TODO: Fetch default pin from HAL
    if (!lock())
   b80cc:	7800      	ldrb	r0, [r0, #0]
   b80ce:	f7ff ffee 	bl	b80ae <_ZN8SPIClass4lockEv.isra.0>
   b80d2:	b958      	cbnz	r0, b80ec <_ZN8SPIClass5beginEv+0x24>
   b80d4:	7820      	ldrb	r0, [r4, #0]
    {
        hal_spi_begin(_spi, SPI_DEFAULT_SS);
   b80d6:	9001      	str	r0, [sp, #4]
   b80d8:	f64f 71ff 	movw	r1, #65535	; 0xffff
   b80dc:	f7ff fe52 	bl	b7d84 <hal_spi_begin>
        unlock();
   b80e0:	9801      	ldr	r0, [sp, #4]
    }
}
   b80e2:	b002      	add	sp, #8
   b80e4:	e8bd 4010 	ldmia.w	sp!, {r4, lr}
   b80e8:	f7ff bfde 	b.w	b80a8 <_ZN8SPIClass6unlockEv.isra.0>
   b80ec:	b002      	add	sp, #8
   b80ee:	bd10      	pop	{r4, pc}

000b80f0 <_ZN8SPIClass3endEv>:
        unlock();
    }
}

void SPIClass::end()
{
   b80f0:	b513      	push	{r0, r1, r4, lr}
   b80f2:	4604      	mov	r4, r0
    if (!lock())
   b80f4:	7800      	ldrb	r0, [r0, #0]
   b80f6:	f7ff ffda 	bl	b80ae <_ZN8SPIClass4lockEv.isra.0>
   b80fa:	b948      	cbnz	r0, b8110 <_ZN8SPIClass3endEv+0x20>
   b80fc:	7820      	ldrb	r0, [r4, #0]
    {
        hal_spi_end(_spi);
   b80fe:	9001      	str	r0, [sp, #4]
   b8100:	f7ff fe48 	bl	b7d94 <hal_spi_end>
        unlock();
   b8104:	9801      	ldr	r0, [sp, #4]
    }
}
   b8106:	b002      	add	sp, #8
   b8108:	e8bd 4010 	ldmia.w	sp!, {r4, lr}
   b810c:	f7ff bfcc 	b.w	b80a8 <_ZN8SPIClass6unlockEv.isra.0>
   b8110:	b002      	add	sp, #8
   b8112:	bd10      	pop	{r4, pc}

000b8114 <_ZN8SPIClass14endTransactionEv>:
}

void SPIClass::endTransaction()
{
    // Release peripheral
    unlock();
   b8114:	7800      	ldrb	r0, [r0, #0]
   b8116:	f7ff bfc7 	b.w	b80a8 <_ZN8SPIClass6unlockEv.isra.0>
	...

000b811c <_ZN8SPIClass19computeClockDividerEjjRhRj>:
void SPIClass::computeClockDivider(unsigned reference, unsigned targetSpeed, uint8_t& divider,
                                   unsigned& clock)
{
    clock = reference;
    uint8_t scale = 0;
    clock >>= 1; // div2 is the first
   b811c:	0840      	lsrs	r0, r0, #1
{
   b811e:	b530      	push	{r4, r5, lr}
    clock >>= 1; // div2 is the first
   b8120:	6018      	str	r0, [r3, #0]
   b8122:	2400      	movs	r4, #0
    while (clock > targetSpeed && scale < 7)
   b8124:	6818      	ldr	r0, [r3, #0]
   b8126:	4288      	cmp	r0, r1
   b8128:	b2e5      	uxtb	r5, r4
   b812a:	d906      	bls.n	b813a <_ZN8SPIClass19computeClockDividerEjjRhRj+0x1e>
   b812c:	3401      	adds	r4, #1
   b812e:	2c08      	cmp	r4, #8
   b8130:	d002      	beq.n	b8138 <_ZN8SPIClass19computeClockDividerEjjRhRj+0x1c>
    {
        clock >>= 1;
   b8132:	0840      	lsrs	r0, r0, #1
   b8134:	6018      	str	r0, [r3, #0]
    while (clock > targetSpeed && scale < 7)
   b8136:	e7f5      	b.n	b8124 <_ZN8SPIClass19computeClockDividerEjjRhRj+0x8>
   b8138:	2507      	movs	r5, #7
        scale++;
    }
    divider = clock_divisors[scale];
   b813a:	4b02      	ldr	r3, [pc, #8]	; (b8144 <_ZN8SPIClass19computeClockDividerEjjRhRj+0x28>)
   b813c:	5d5b      	ldrb	r3, [r3, r5]
   b813e:	7013      	strb	r3, [r2, #0]
}
   b8140:	bd30      	pop	{r4, r5, pc}
   b8142:	bf00      	nop
   b8144:	000d7b24 	.word	0x000d7b24

000b8148 <_ZN8SPIClass16beginTransactionERKN8particle11SPISettingsE>:
{
   b8148:	e92d 43f0 	stmdb	sp!, {r4, r5, r6, r7, r8, r9, lr}
   b814c:	4606      	mov	r6, r0
   b814e:	b08f      	sub	sp, #60	; 0x3c
    CHECK(lock());
   b8150:	7800      	ldrb	r0, [r0, #0]
{
   b8152:	460c      	mov	r4, r1
    CHECK(lock());
   b8154:	f7ff ffab 	bl	b80ae <_ZN8SPIClass4lockEv.isra.0>
   b8158:	2800      	cmp	r0, #0
   b815a:	db1b      	blt.n	b8194 <_ZN8SPIClass16beginTransactionERKN8particle11SPISettingsE+0x4c>
    querySpiInfo(_spi, &spi_info);
   b815c:	7835      	ldrb	r5, [r6, #0]
    memset(info, 0, sizeof(hal_spi_info_t));
   b815e:	2214      	movs	r2, #20
   b8160:	2100      	movs	r1, #0
   b8162:	a809      	add	r0, sp, #36	; 0x24
   b8164:	f000 fe68 	bl	b8e38 <memset>
    info->version = HAL_SPI_INFO_VERSION_1;
   b8168:	230b      	movs	r3, #11
    hal_spi_info(spi, info, nullptr);
   b816a:	2200      	movs	r2, #0
   b816c:	a909      	add	r1, sp, #36	; 0x24
   b816e:	4628      	mov	r0, r5
    info->version = HAL_SPI_INFO_VERSION_1;
   b8170:	f8ad 3024 	strh.w	r3, [sp, #36]	; 0x24
    hal_spi_info(spi, info, nullptr);
   b8174:	f7ff fe2e 	bl	b7dd4 <hal_spi_info>
    if (!info || !info->enabled || info->default_settings)
   b8178:	f89d 302d 	ldrb.w	r3, [sp, #45]	; 0x2d
   b817c:	b113      	cbz	r3, b8184 <_ZN8SPIClass16beginTransactionERKN8particle11SPISettingsE+0x3c>
   b817e:	f89d 502c 	ldrb.w	r5, [sp, #44]	; 0x2c
   b8182:	b155      	cbz	r5, b819a <_ZN8SPIClass16beginTransactionERKN8particle11SPISettingsE+0x52>
  {
   b8184:	2700      	movs	r7, #0
   b8186:	46b9      	mov	r9, r7
   b8188:	46b8      	mov	r8, r7
   b818a:	2501      	movs	r5, #1
    if (default_ && other.default_)
   b818c:	7923      	ldrb	r3, [r4, #4]
   b818e:	b15d      	cbz	r5, b81a8 <_ZN8SPIClass16beginTransactionERKN8particle11SPISettingsE+0x60>
   b8190:	b1c3      	cbz	r3, b81c4 <_ZN8SPIClass16beginTransactionERKN8particle11SPISettingsE+0x7c>
    return 0;
   b8192:	2000      	movs	r0, #0
}
   b8194:	b00f      	add	sp, #60	; 0x3c
   b8196:	e8bd 83f0 	ldmia.w	sp!, {r4, r5, r6, r7, r8, r9, pc}
    return particle::SPISettings(info->clock, info->bit_order, info->data_mode);
   b819a:	f8dd 8030 	ldr.w	r8, [sp, #48]	; 0x30
   b819e:	f89d 9034 	ldrb.w	r9, [sp, #52]	; 0x34
   b81a2:	f89d 7035 	ldrb.w	r7, [sp, #53]	; 0x35
  }
   b81a6:	e7f1      	b.n	b818c <_ZN8SPIClass16beginTransactionERKN8particle11SPISettingsE+0x44>
    if (default_ == other.default_ &&
   b81a8:	2b00      	cmp	r3, #0
   b81aa:	d135      	bne.n	b8218 <_ZN8SPIClass16beginTransactionERKN8particle11SPISettingsE+0xd0>
   b81ac:	68a3      	ldr	r3, [r4, #8]
   b81ae:	4543      	cmp	r3, r8
   b81b0:	d108      	bne.n	b81c4 <_ZN8SPIClass16beginTransactionERKN8particle11SPISettingsE+0x7c>
        bitOrder_ == other.bitOrder_ &&
   b81b2:	f88d 9020 	strb.w	r9, [sp, #32]
   b81b6:	f88d 7021 	strb.w	r7, [sp, #33]	; 0x21
   b81ba:	f8bd 2020 	ldrh.w	r2, [sp, #32]
   b81be:	89a3      	ldrh	r3, [r4, #12]
   b81c0:	429a      	cmp	r2, r3
   b81c2:	d0e6      	beq.n	b8192 <_ZN8SPIClass16beginTransactionERKN8particle11SPISettingsE+0x4a>
            uint8_t divisor = 0;
   b81c4:	2300      	movs	r3, #0
            computeClockDivider((unsigned int)spi_info.system_clock, settings.clock_, divisor,
   b81c6:	68a1      	ldr	r1, [r4, #8]
            uint8_t divisor = 0;
   b81c8:	f88d 300f 	strb.w	r3, [sp, #15]
            computeClockDivider((unsigned int)spi_info.system_clock, settings.clock_, divisor,
   b81cc:	980a      	ldr	r0, [sp, #40]	; 0x28
   b81ce:	ab04      	add	r3, sp, #16
   b81d0:	f10d 020f 	add.w	r2, sp, #15
   b81d4:	f7ff ffa2 	bl	b811c <_ZN8SPIClass19computeClockDividerEjjRhRj>
    if (default_ && other.default_)
   b81d8:	7921      	ldrb	r1, [r4, #4]
   b81da:	b985      	cbnz	r5, b81fe <_ZN8SPIClass16beginTransactionERKN8particle11SPISettingsE+0xb6>
    if (default_ == other.default_ &&
   b81dc:	b989      	cbnz	r1, b8202 <_ZN8SPIClass16beginTransactionERKN8particle11SPISettingsE+0xba>
   b81de:	68a3      	ldr	r3, [r4, #8]
   b81e0:	4543      	cmp	r3, r8
   b81e2:	d30e      	bcc.n	b8202 <_ZN8SPIClass16beginTransactionERKN8particle11SPISettingsE+0xba>
        bitOrder_ == other.bitOrder_ &&
   b81e4:	f88d 9020 	strb.w	r9, [sp, #32]
   b81e8:	f88d 7021 	strb.w	r7, [sp, #33]	; 0x21
   b81ec:	f8bd 2020 	ldrh.w	r2, [sp, #32]
   b81f0:	89a3      	ldrh	r3, [r4, #12]
   b81f2:	429a      	cmp	r2, r3
   b81f4:	d105      	bne.n	b8202 <_ZN8SPIClass16beginTransactionERKN8particle11SPISettingsE+0xba>
            if (!(spi_settings <= settings && clock == spi_settings.clock_))
   b81f6:	9b04      	ldr	r3, [sp, #16]
   b81f8:	4543      	cmp	r3, r8
   b81fa:	d102      	bne.n	b8202 <_ZN8SPIClass16beginTransactionERKN8particle11SPISettingsE+0xba>
   b81fc:	e7c9      	b.n	b8192 <_ZN8SPIClass16beginTransactionERKN8particle11SPISettingsE+0x4a>
    if (default_ && other.default_)
   b81fe:	2900      	cmp	r1, #0
   b8200:	d1f9      	bne.n	b81f6 <_ZN8SPIClass16beginTransactionERKN8particle11SPISettingsE+0xae>
                hal_spi_set_settings(_spi, settings.default_, divisor, settings.bitOrder_,
   b8202:	2300      	movs	r3, #0
   b8204:	9301      	str	r3, [sp, #4]
   b8206:	7b63      	ldrb	r3, [r4, #13]
   b8208:	9300      	str	r3, [sp, #0]
   b820a:	f89d 200f 	ldrb.w	r2, [sp, #15]
   b820e:	7b23      	ldrb	r3, [r4, #12]
            hal_spi_set_settings(_spi, settings.default_, 0, 0, 0, nullptr);
   b8210:	7830      	ldrb	r0, [r6, #0]
   b8212:	f7ff fde7 	bl	b7de4 <hal_spi_set_settings>
   b8216:	e7bc      	b.n	b8192 <_ZN8SPIClass16beginTransactionERKN8particle11SPISettingsE+0x4a>
   b8218:	e9cd 5500 	strd	r5, r5, [sp]
   b821c:	462b      	mov	r3, r5
   b821e:	462a      	mov	r2, r5
   b8220:	2101      	movs	r1, #1
   b8222:	e7f5      	b.n	b8210 <_ZN8SPIClass16beginTransactionERKN8particle11SPISettingsE+0xc8>

000b8224 <_ZN8SPIClass8transferEh>:

    return clock;
}

byte SPIClass::transfer(byte _data)
{
   b8224:	b508      	push	{r3, lr}
    return static_cast<byte>(hal_spi_transfer(_spi, _data));
   b8226:	7800      	ldrb	r0, [r0, #0]
   b8228:	f7ff fdbc 	bl	b7da4 <hal_spi_transfer>
}
   b822c:	b2c0      	uxtb	r0, r0
   b822e:	bd08      	pop	{r3, pc}

000b8230 <_GLOBAL__sub_I_System>:
} // namespace particle

// particle::Flag<TagT, ValueT>
template<typename TagT, typename ValueT>
inline particle::Flag<TagT, ValueT>::Flag(ValueT val) :
        val_(val) {
   b8230:	4b05      	ldr	r3, [pc, #20]	; (b8248 <_GLOBAL__sub_I_System+0x18>)
   b8232:	2202      	movs	r2, #2
   b8234:	601a      	str	r2, [r3, #0]

class SystemSleepResult {
public:
    SystemSleepResult()
            : wakeupSource_(nullptr),
              error_(SYSTEM_ERROR_NONE) {
   b8236:	4b05      	ldr	r3, [pc, #20]	; (b824c <_GLOBAL__sub_I_System+0x1c>)
    SleepResult() {}
   b8238:	4a05      	ldr	r2, [pc, #20]	; (b8250 <_GLOBAL__sub_I_System+0x20>)
   b823a:	609a      	str	r2, [r3, #8]
              error_(SYSTEM_ERROR_NONE) {
   b823c:	2000      	movs	r0, #0
   b823e:	e9c3 0000 	strd	r0, r0, [r3]

class SystemClass {
public:

    SystemClass(System_Mode_TypeDef mode = DEFAULT) {
        set_system_mode(mode);
   b8242:	f7ff be27 	b.w	b7e94 <set_system_mode>
   b8246:	bf00      	nop
   b8248:	2003e6bc 	.word	0x2003e6bc
   b824c:	2003e6b0 	.word	0x2003e6b0
   b8250:	ffff0000 	.word	0xffff0000

000b8254 <_GLOBAL__sub_I__ZN8particle3ble13WiringBleLock6mutex_E>:
    /**
     * Creates a shared mutex.
     */
    RecursiveMutex(os_mutex_recursive_t handle) : handle_(handle) {}

    RecursiveMutex() : handle_(nullptr)
   b8254:	4802      	ldr	r0, [pc, #8]	; (b8260 <_GLOBAL__sub_I__ZN8particle3ble13WiringBleLock6mutex_E+0xc>)
   b8256:	2300      	movs	r3, #0
   b8258:	6003      	str	r3, [r0, #0]
    {
        os_mutex_recursive_create(&handle_);
   b825a:	f7ff bd0b 	b.w	b7c74 <os_mutex_recursive_create>
   b825e:	bf00      	nop
   b8260:	2003e6c0 	.word	0x2003e6c0

000b8264 <_ZN5Print5writeEPKhj>:

// Public Methods //////////////////////////////////////////////////////////////

/* default implementation: may be overridden */
size_t Print::write(const uint8_t *buffer, size_t size)
{
   b8264:	b5f8      	push	{r3, r4, r5, r6, r7, lr}
   b8266:	4606      	mov	r6, r0
   b8268:	460d      	mov	r5, r1
  size_t n = 0;
   b826a:	188f      	adds	r7, r1, r2
   b826c:	2400      	movs	r4, #0
  while (size--) {
   b826e:	42bd      	cmp	r5, r7
   b8270:	d00c      	beq.n	b828c <_ZN5Print5writeEPKhj+0x28>
     int chunk = write(*buffer++);
   b8272:	6833      	ldr	r3, [r6, #0]
   b8274:	f815 1b01 	ldrb.w	r1, [r5], #1
   b8278:	689b      	ldr	r3, [r3, #8]
   b827a:	4630      	mov	r0, r6
   b827c:	4798      	blx	r3
     if (chunk>=0)
   b827e:	1e03      	subs	r3, r0, #0
   b8280:	db01      	blt.n	b8286 <_ZN5Print5writeEPKhj+0x22>
         n += chunk;
   b8282:	441c      	add	r4, r3
  while (size--) {
   b8284:	e7f3      	b.n	b826e <_ZN5Print5writeEPKhj+0xa>
     int chunk = write(*buffer++);
   b8286:	2c00      	cmp	r4, #0
   b8288:	bf08      	it	eq
   b828a:	461c      	moveq	r4, r3
             n = chunk;
         break;
     }
  }
  return n;
}
   b828c:	4620      	mov	r0, r4
   b828e:	bdf8      	pop	{r3, r4, r5, r6, r7, pc}

000b8290 <_ZN5Print5writeEPKc>:

    int getWriteError() { return write_error; }
    void clearWriteError() { setWriteError(0); }

    virtual size_t write(uint8_t) = 0;
    size_t write(const char *str) {
   b8290:	b513      	push	{r0, r1, r4, lr}
   b8292:	4604      	mov	r4, r0
      if (str == NULL) return 0;
      return write((const uint8_t *)str, strlen(str));
    }
   b8294:	4608      	mov	r0, r1
      if (str == NULL) return 0;
   b8296:	b159      	cbz	r1, b82b0 <_ZN5Print5writeEPKc+0x20>
      return write((const uint8_t *)str, strlen(str));
   b8298:	9101      	str	r1, [sp, #4]
   b829a:	f7fc fb73 	bl	b4984 <strlen>
   b829e:	6823      	ldr	r3, [r4, #0]
   b82a0:	9901      	ldr	r1, [sp, #4]
   b82a2:	68db      	ldr	r3, [r3, #12]
   b82a4:	4602      	mov	r2, r0
   b82a6:	4620      	mov	r0, r4
    }
   b82a8:	b002      	add	sp, #8
   b82aa:	e8bd 4010 	ldmia.w	sp!, {r4, lr}
      return write((const uint8_t *)str, strlen(str));
   b82ae:	4718      	bx	r3
    }
   b82b0:	b002      	add	sp, #8
   b82b2:	bd10      	pop	{r4, pc}

000b82b4 <_ZN5Print5printEPKc>:

size_t Print::print(const char str[])
{
   b82b4:	b508      	push	{r3, lr}
  return write(str);
   b82b6:	f7ff ffeb 	bl	b8290 <_ZN5Print5writeEPKc>
}
   b82ba:	bd08      	pop	{r3, pc}

000b82bc <_ZN5Print5printEc>:

size_t Print::print(char c)
{
  return write(c);
   b82bc:	6803      	ldr	r3, [r0, #0]
   b82be:	689b      	ldr	r3, [r3, #8]
   b82c0:	4718      	bx	r3

000b82c2 <_ZN5Print7printlnEv>:
{
  return print(reinterpret_cast<const char*>(str));
}

size_t Print::println(void)
{
   b82c2:	b538      	push	{r3, r4, r5, lr}
  size_t n = print('\r');
   b82c4:	210d      	movs	r1, #13
{
   b82c6:	4605      	mov	r5, r0
  size_t n = print('\r');
   b82c8:	f7ff fff8 	bl	b82bc <_ZN5Print5printEc>
  n += print('\n');
   b82cc:	210a      	movs	r1, #10
  size_t n = print('\r');
   b82ce:	4604      	mov	r4, r0
  n += print('\n');
   b82d0:	4628      	mov	r0, r5
   b82d2:	f7ff fff3 	bl	b82bc <_ZN5Print5printEc>
  return n;
}
   b82d6:	4420      	add	r0, r4
   b82d8:	bd38      	pop	{r3, r4, r5, pc}

000b82da <_ZN5Print7printlnEPKc>:

size_t Print::println(const char c[])
{
   b82da:	b538      	push	{r3, r4, r5, lr}
   b82dc:	4605      	mov	r5, r0
  return write(str);
   b82de:	f7ff ffd7 	bl	b8290 <_ZN5Print5writeEPKc>
   b82e2:	4604      	mov	r4, r0
  size_t n = print(c);
  n += println();
   b82e4:	4628      	mov	r0, r5
   b82e6:	f7ff ffec 	bl	b82c2 <_ZN5Print7printlnEv>
  return n;
}
   b82ea:	4420      	add	r0, r4
   b82ec:	bd38      	pop	{r3, r4, r5, pc}

000b82ee <_ZN5Print11printNumberEmh>:
  return println(reinterpret_cast<const char*>(str));
}

// Private Methods /////////////////////////////////////////////////////////////

size_t Print::printNumber(unsigned long n, uint8_t base) {
   b82ee:	b530      	push	{r4, r5, lr}
   b82f0:	b08b      	sub	sp, #44	; 0x2c
  char buf[8 * sizeof(n) + 1]; // Assumes 8-bit chars plus zero byte.
  char *str = &buf[sizeof(buf) - 1];

  *str = '\0';
   b82f2:	2300      	movs	r3, #0

  // prevent crash if called with base == 1
  if (base < 2) base = 10;
   b82f4:	2a01      	cmp	r2, #1
  *str = '\0';
   b82f6:	f88d 3024 	strb.w	r3, [sp, #36]	; 0x24
  if (base < 2) base = 10;
   b82fa:	bf98      	it	ls
   b82fc:	220a      	movls	r2, #10
   b82fe:	ac09      	add	r4, sp, #36	; 0x24

  do {
   decltype(n) m = n;
   n /= base;
   b8300:	460d      	mov	r5, r1
   b8302:	fbb1 f1f2 	udiv	r1, r1, r2
   char c = m - base * n;
   b8306:	fb01 5312 	mls	r3, r1, r2, r5
   b830a:	f003 03ff 	and.w	r3, r3, #255	; 0xff
   *--str = c < 10 ? c + '0' : c + 'A' - 10;
   b830e:	2b09      	cmp	r3, #9
   b8310:	bf94      	ite	ls
   b8312:	3330      	addls	r3, #48	; 0x30
   b8314:	3337      	addhi	r3, #55	; 0x37
   b8316:	b2db      	uxtb	r3, r3
  } while(n);
   b8318:	42aa      	cmp	r2, r5
   *--str = c < 10 ? c + '0' : c + 'A' - 10;
   b831a:	f804 3d01 	strb.w	r3, [r4, #-1]!
  } while(n);
   b831e:	d9ef      	bls.n	b8300 <_ZN5Print11printNumberEmh+0x12>

  return write(str);
   b8320:	4621      	mov	r1, r4
   b8322:	f7ff ffb5 	bl	b8290 <_ZN5Print5writeEPKc>
}
   b8326:	b00b      	add	sp, #44	; 0x2c
   b8328:	bd30      	pop	{r4, r5, pc}
	...

000b832c <_ZN5Print10printFloatEdh>:
  return write(str);
}

#ifndef PARTICLE_WIRING_PRINT_NO_FLOAT
size_t Print::printFloat(double number, uint8_t digits)
{
   b832c:	e92d 4ff7 	stmdb	sp!, {r0, r1, r2, r4, r5, r6, r7, r8, r9, sl, fp, lr}
   b8330:	ec55 4b10 	vmov	r4, r5, d0
   b8334:	4606      	mov	r6, r0
   b8336:	460f      	mov	r7, r1
  size_t n = 0;

  if (isnan(number)) return print("nan");
   b8338:	ee10 2a10 	vmov	r2, s0
   b833c:	ee10 0a10 	vmov	r0, s0
   b8340:	462b      	mov	r3, r5
   b8342:	4629      	mov	r1, r5
   b8344:	f7fc fac0 	bl	b48c8 <__aeabi_dcmpun>
   b8348:	b140      	cbz	r0, b835c <_ZN5Print10printFloatEdh+0x30>
  return write(str);
   b834a:	4953      	ldr	r1, [pc, #332]	; (b8498 <_ZN5Print10printFloatEdh+0x16c>)
   b834c:	4630      	mov	r0, r6
   b834e:	f7ff ff9f 	bl	b8290 <_ZN5Print5writeEPKc>
   b8352:	4682      	mov	sl, r0
    n += print(toPrint);
    remainder -= toPrint;
  }

  return n;
}
   b8354:	4650      	mov	r0, sl
   b8356:	b003      	add	sp, #12
   b8358:	e8bd 8ff0 	ldmia.w	sp!, {r4, r5, r6, r7, r8, r9, sl, fp, pc}
  && !_GLIBCXX_NO_OBSOLETE_ISINF_ISNAN_DYNAMIC
  using ::isinf;
#else
  constexpr bool
  isinf(double __x)
  { return __builtin_isinf(__x); }
   b835c:	f025 4900 	bic.w	r9, r5, #2147483648	; 0x80000000
  if (isinf(number)) return print("inf");
   b8360:	4b4e      	ldr	r3, [pc, #312]	; (b849c <_ZN5Print10printFloatEdh+0x170>)
   b8362:	f04f 32ff 	mov.w	r2, #4294967295
   b8366:	4620      	mov	r0, r4
   b8368:	4649      	mov	r1, r9
   b836a:	f7fc faad 	bl	b48c8 <__aeabi_dcmpun>
   b836e:	b948      	cbnz	r0, b8384 <_ZN5Print10printFloatEdh+0x58>
   b8370:	4b4a      	ldr	r3, [pc, #296]	; (b849c <_ZN5Print10printFloatEdh+0x170>)
   b8372:	f04f 32ff 	mov.w	r2, #4294967295
   b8376:	4620      	mov	r0, r4
   b8378:	4649      	mov	r1, r9
   b837a:	f7fc fa87 	bl	b488c <__aeabi_dcmple>
   b837e:	b908      	cbnz	r0, b8384 <_ZN5Print10printFloatEdh+0x58>
  return write(str);
   b8380:	4947      	ldr	r1, [pc, #284]	; (b84a0 <_ZN5Print10printFloatEdh+0x174>)
   b8382:	e7e3      	b.n	b834c <_ZN5Print10printFloatEdh+0x20>
  if (number > 4294967040.0) return print ("ovf");  // constant determined empirically
   b8384:	4b47      	ldr	r3, [pc, #284]	; (b84a4 <_ZN5Print10printFloatEdh+0x178>)
   b8386:	f04f 4260 	mov.w	r2, #3758096384	; 0xe0000000
   b838a:	4620      	mov	r0, r4
   b838c:	4629      	mov	r1, r5
   b838e:	f7fc fa91 	bl	b48b4 <__aeabi_dcmpgt>
   b8392:	b108      	cbz	r0, b8398 <_ZN5Print10printFloatEdh+0x6c>
  return write(str);
   b8394:	4944      	ldr	r1, [pc, #272]	; (b84a8 <_ZN5Print10printFloatEdh+0x17c>)
   b8396:	e7d9      	b.n	b834c <_ZN5Print10printFloatEdh+0x20>
  if (number <-4294967040.0) return print ("ovf");  // constant determined empirically
   b8398:	4b44      	ldr	r3, [pc, #272]	; (b84ac <_ZN5Print10printFloatEdh+0x180>)
   b839a:	f04f 4260 	mov.w	r2, #3758096384	; 0xe0000000
   b839e:	4620      	mov	r0, r4
   b83a0:	4629      	mov	r1, r5
   b83a2:	f7fc fa69 	bl	b4878 <__aeabi_dcmplt>
   b83a6:	2800      	cmp	r0, #0
   b83a8:	d1f4      	bne.n	b8394 <_ZN5Print10printFloatEdh+0x68>
  if (number < 0.0)
   b83aa:	2200      	movs	r2, #0
   b83ac:	2300      	movs	r3, #0
   b83ae:	4620      	mov	r0, r4
   b83b0:	4629      	mov	r1, r5
   b83b2:	f7fc fa61 	bl	b4878 <__aeabi_dcmplt>
   b83b6:	b1d0      	cbz	r0, b83ee <_ZN5Print10printFloatEdh+0xc2>
     n += print('-');
   b83b8:	212d      	movs	r1, #45	; 0x2d
   b83ba:	4630      	mov	r0, r6
   b83bc:	f7ff ff7e 	bl	b82bc <_ZN5Print5printEc>
     number = -number;
   b83c0:	f105 4300 	add.w	r3, r5, #2147483648	; 0x80000000
     n += print('-');
   b83c4:	4682      	mov	sl, r0
     number = -number;
   b83c6:	461d      	mov	r5, r3
  double rounding = 0.5;
   b83c8:	4939      	ldr	r1, [pc, #228]	; (b84b0 <_ZN5Print10printFloatEdh+0x184>)
    rounding /= 10.0;
   b83ca:	f8df 90ec 	ldr.w	r9, [pc, #236]	; b84b8 <_ZN5Print10printFloatEdh+0x18c>
  size_t n = 0;
   b83ce:	f04f 0b00 	mov.w	fp, #0
  double rounding = 0.5;
   b83d2:	2000      	movs	r0, #0
    rounding /= 10.0;
   b83d4:	f04f 0800 	mov.w	r8, #0
  for (uint8_t i=0; i<digits; ++i)
   b83d8:	fa5f f38b 	uxtb.w	r3, fp
   b83dc:	429f      	cmp	r7, r3
   b83de:	d908      	bls.n	b83f2 <_ZN5Print10printFloatEdh+0xc6>
    rounding /= 10.0;
   b83e0:	4642      	mov	r2, r8
   b83e2:	464b      	mov	r3, r9
   b83e4:	f7fc f900 	bl	b45e8 <__aeabi_ddiv>
  for (uint8_t i=0; i<digits; ++i)
   b83e8:	f10b 0b01 	add.w	fp, fp, #1
   b83ec:	e7f4      	b.n	b83d8 <_ZN5Print10printFloatEdh+0xac>
  size_t n = 0;
   b83ee:	4682      	mov	sl, r0
   b83f0:	e7ea      	b.n	b83c8 <_ZN5Print10printFloatEdh+0x9c>
  number += rounding;
   b83f2:	4622      	mov	r2, r4
   b83f4:	462b      	mov	r3, r5
   b83f6:	f7fb fe17 	bl	b4028 <__adddf3>
   b83fa:	460d      	mov	r5, r1
   b83fc:	4604      	mov	r4, r0
  unsigned long int_part = (unsigned long)number;
   b83fe:	f7fc faa1 	bl	b4944 <__aeabi_d2uiz>
   b8402:	4680      	mov	r8, r0
  double remainder = number - (double)int_part;
   b8404:	f7fb ff4c 	bl	b42a0 <__aeabi_ui2d>
   b8408:	4602      	mov	r2, r0
   b840a:	460b      	mov	r3, r1
   b840c:	4620      	mov	r0, r4
   b840e:	4629      	mov	r1, r5
   b8410:	f7fb fe08 	bl	b4024 <__aeabi_dsub>
            val = n;
        }
#if __GNUC__ >= 9
#pragma GCC diagnostic pop
#endif // __GNUC__ >= 9
        return printNumber(val, base) + t;
   b8414:	220a      	movs	r2, #10
   b8416:	4604      	mov	r4, r0
   b8418:	460d      	mov	r5, r1
   b841a:	4630      	mov	r0, r6
   b841c:	4641      	mov	r1, r8
   b841e:	f7ff ff66 	bl	b82ee <_ZN5Print11printNumberEmh>
  n += print(int_part);
   b8422:	4482      	add	sl, r0
  if (digits > 0) {
   b8424:	2f00      	cmp	r7, #0
   b8426:	d095      	beq.n	b8354 <_ZN5Print10printFloatEdh+0x28>
  return write(str);
   b8428:	4922      	ldr	r1, [pc, #136]	; (b84b4 <_ZN5Print10printFloatEdh+0x188>)
    remainder *= 10.0;
   b842a:	f8df 908c 	ldr.w	r9, [pc, #140]	; b84b8 <_ZN5Print10printFloatEdh+0x18c>
  return write(str);
   b842e:	4630      	mov	r0, r6
   b8430:	f7ff ff2e 	bl	b8290 <_ZN5Print5writeEPKc>
    remainder *= 10.0;
   b8434:	f04f 0800 	mov.w	r8, #0
    n += print(".");
   b8438:	4482      	add	sl, r0
  while (digits-- > 0)
   b843a:	2f00      	cmp	r7, #0
   b843c:	d08a      	beq.n	b8354 <_ZN5Print10printFloatEdh+0x28>
    remainder *= 10.0;
   b843e:	4642      	mov	r2, r8
   b8440:	464b      	mov	r3, r9
   b8442:	4620      	mov	r0, r4
   b8444:	4629      	mov	r1, r5
   b8446:	f7fb ffa5 	bl	b4394 <__aeabi_dmul>
   b844a:	4604      	mov	r4, r0
   b844c:	460d      	mov	r5, r1
    int toPrint = int(remainder);
   b844e:	f7fc fa51 	bl	b48f4 <__aeabi_d2iz>
        if (n < 0 && base == 10) {
   b8452:	f1b0 0b00 	subs.w	fp, r0, #0
   b8456:	da1c      	bge.n	b8492 <_ZN5Print10printFloatEdh+0x166>
            t = print('-');
   b8458:	212d      	movs	r1, #45	; 0x2d
   b845a:	4630      	mov	r0, r6
   b845c:	f7ff ff2e 	bl	b82bc <_ZN5Print5printEc>
            val = -n;
   b8460:	f1cb 0100 	rsb	r1, fp, #0
            t = print('-');
   b8464:	4603      	mov	r3, r0
        return printNumber(val, base) + t;
   b8466:	220a      	movs	r2, #10
   b8468:	4630      	mov	r0, r6
   b846a:	9301      	str	r3, [sp, #4]
   b846c:	f7ff ff3f 	bl	b82ee <_ZN5Print11printNumberEmh>
   b8470:	9b01      	ldr	r3, [sp, #4]
   b8472:	4418      	add	r0, r3
    n += print(toPrint);
   b8474:	4482      	add	sl, r0
    remainder -= toPrint;
   b8476:	4658      	mov	r0, fp
   b8478:	f7fb ff22 	bl	b42c0 <__aeabi_i2d>
   b847c:	4602      	mov	r2, r0
   b847e:	460b      	mov	r3, r1
   b8480:	4620      	mov	r0, r4
   b8482:	4629      	mov	r1, r5
   b8484:	f7fb fdce 	bl	b4024 <__aeabi_dsub>
   b8488:	3f01      	subs	r7, #1
   b848a:	4604      	mov	r4, r0
   b848c:	460d      	mov	r5, r1
   b848e:	b2ff      	uxtb	r7, r7
  while (digits-- > 0)
   b8490:	e7d3      	b.n	b843a <_ZN5Print10printFloatEdh+0x10e>
            val = n;
   b8492:	4659      	mov	r1, fp
        size_t t = 0;
   b8494:	2300      	movs	r3, #0
   b8496:	e7e6      	b.n	b8466 <_ZN5Print10printFloatEdh+0x13a>
   b8498:	000d7b2c 	.word	0x000d7b2c
   b849c:	7fefffff 	.word	0x7fefffff
   b84a0:	000d7b30 	.word	0x000d7b30
   b84a4:	41efffff 	.word	0x41efffff
   b84a8:	000d7b34 	.word	0x000d7b34
   b84ac:	c1efffff 	.word	0xc1efffff
   b84b0:	3fe00000 	.word	0x3fe00000
   b84b4:	000d6c82 	.word	0x000d6c82
   b84b8:	40240000 	.word	0x40240000

000b84bc <_ZN5Print5printEfi>:
{
   b84bc:	b538      	push	{r3, r4, r5, lr}
   b84be:	4604      	mov	r4, r0
   b84c0:	ee10 0a10 	vmov	r0, s0
  return printFloat((double)n, digits);
   b84c4:	b2cd      	uxtb	r5, r1
   b84c6:	f7fb ff0d 	bl	b42e4 <__aeabi_f2d>
   b84ca:	ec41 0b10 	vmov	d0, r0, r1
   b84ce:	4629      	mov	r1, r5
   b84d0:	4620      	mov	r0, r4
}
   b84d2:	e8bd 4038 	ldmia.w	sp!, {r3, r4, r5, lr}
  return printFloat((double)n, digits);
   b84d6:	f7ff bf29 	b.w	b832c <_ZN5Print10printFloatEdh>

000b84da <_ZN5Print7vprintfEbPKcSt9__va_list>:
#endif // PARTICLE_WIRING_PRINT_NO_FLOAT

size_t Print::vprintf(bool newline, const char* format, va_list args)
{
   b84da:	e92d 41f0 	stmdb	sp!, {r4, r5, r6, r7, r8, lr}
   b84de:	b086      	sub	sp, #24
   b84e0:	af00      	add	r7, sp, #0
   b84e2:	4605      	mov	r5, r0
   b84e4:	460e      	mov	r6, r1
    const int bufsize = 20;
    char test[bufsize];
    va_list args2;
    va_copy(args2, args);
    size_t n = vsnprintf(test, bufsize, format, args);
   b84e6:	1d38      	adds	r0, r7, #4
   b84e8:	2114      	movs	r1, #20
{
   b84ea:	4614      	mov	r4, r2
    va_copy(args2, args);
   b84ec:	603b      	str	r3, [r7, #0]
    size_t n = vsnprintf(test, bufsize, format, args);
   b84ee:	f7ff fd85 	bl	b7ffc <vsnprintf>

    if (n<bufsize)
   b84f2:	2813      	cmp	r0, #19
   b84f4:	d80e      	bhi.n	b8514 <_ZN5Print7vprintfEbPKcSt9__va_list+0x3a>
  return write(str);
   b84f6:	1d39      	adds	r1, r7, #4
   b84f8:	4628      	mov	r0, r5
   b84fa:	f7ff fec9 	bl	b8290 <_ZN5Print5writeEPKc>
   b84fe:	4604      	mov	r4, r0
    {
        char bigger[n+1];
        n = vsnprintf(bigger, n+1, format, args2);
        n = print(bigger);
    }
    if (newline)
   b8500:	b11e      	cbz	r6, b850a <_ZN5Print7vprintfEbPKcSt9__va_list+0x30>
        n += println();
   b8502:	4628      	mov	r0, r5
   b8504:	f7ff fedd 	bl	b82c2 <_ZN5Print7printlnEv>
   b8508:	4404      	add	r4, r0

    va_end(args2);
    return n;
}
   b850a:	4620      	mov	r0, r4
   b850c:	3718      	adds	r7, #24
   b850e:	46bd      	mov	sp, r7
   b8510:	e8bd 81f0 	ldmia.w	sp!, {r4, r5, r6, r7, r8, pc}
        char bigger[n+1];
   b8514:	f100 0308 	add.w	r3, r0, #8
   b8518:	f023 0307 	bic.w	r3, r3, #7
        n = print(bigger);
   b851c:	46e8      	mov	r8, sp
        char bigger[n+1];
   b851e:	ebad 0d03 	sub.w	sp, sp, r3
        n = vsnprintf(bigger, n+1, format, args2);
   b8522:	4622      	mov	r2, r4
   b8524:	1c41      	adds	r1, r0, #1
   b8526:	683b      	ldr	r3, [r7, #0]
   b8528:	4668      	mov	r0, sp
   b852a:	f7ff fd67 	bl	b7ffc <vsnprintf>
  return write(str);
   b852e:	4669      	mov	r1, sp
   b8530:	4628      	mov	r0, r5
   b8532:	f7ff fead 	bl	b8290 <_ZN5Print5writeEPKc>
   b8536:	4604      	mov	r4, r0
   b8538:	46c5      	mov	sp, r8
   b853a:	e7e1      	b.n	b8500 <_ZN5Print7vprintfEbPKcSt9__va_list+0x26>

000b853c <_GLOBAL__sub_I__ZN5spark3LogE>:
    // This handler doesn't support direct logging
}

// spark::Logger
inline spark::Logger::Logger(const char *name) :
        name_(name) {
   b853c:	4b01      	ldr	r3, [pc, #4]	; (b8544 <_GLOBAL__sub_I__ZN5spark3LogE+0x8>)
   b853e:	4a02      	ldr	r2, [pc, #8]	; (b8548 <_GLOBAL__sub_I__ZN5spark3LogE+0xc>)
   b8540:	601a      	str	r2, [r3, #0]
#if Wiring_LogConfig

// spark::
void spark::logProcessControlRequest(ctrl_request* req) {
    JSONRequestHandler::process(req);
}
   b8542:	4770      	bx	lr
   b8544:	2003e6c4 	.word	0x2003e6c4
   b8548:	000d7b38 	.word	0x000d7b38

000b854c <_GLOBAL__sub_I_TIME_FORMAT_DEFAULT>:
            calendar_time_cache = Convert_UnixTime_To_CalendarTime(unix_time);
            unix_time_cache = unix_time;
    }
}

const char* TimeClass::format_spec = TIME_FORMAT_DEFAULT;
   b854c:	4b02      	ldr	r3, [pc, #8]	; (b8558 <_GLOBAL__sub_I_TIME_FORMAT_DEFAULT+0xc>)
   b854e:	681a      	ldr	r2, [r3, #0]
   b8550:	4b02      	ldr	r3, [pc, #8]	; (b855c <_GLOBAL__sub_I_TIME_FORMAT_DEFAULT+0x10>)
   b8552:	601a      	str	r2, [r3, #0]
{
  return isValid();
}


TimeClass Time;
   b8554:	4770      	bx	lr
   b8556:	bf00      	nop
   b8558:	20037070 	.word	0x20037070
   b855c:	2003e6c8 	.word	0x2003e6c8

000b8560 <delay>:
    return (value - fromStart) * (toEnd - toStart) / (fromEnd - fromStart) + toStart;
}

void delay(unsigned long ms)
{
    system_delay_ms(ms, false);
   b8560:	2100      	movs	r1, #0
   b8562:	f7ff bc9f 	b.w	b7ea4 <system_delay_ms>
	...

000b8568 <_GLOBAL__sub_I_RGB>:
	static void
	_M_init_functor(_Any_data& __functor, _Functor&& __f, false_type)
	{ __functor._M_access<_Functor*>() = new _Functor(std::move(__f)); }
      };

    _Function_base() : _M_manager(nullptr) { }
   b8568:	4b01      	ldr	r3, [pc, #4]	; (b8570 <_GLOBAL__sub_I_RGB+0x8>)
   b856a:	2200      	movs	r2, #0
   b856c:	609a      	str	r2, [r3, #8]
{
    RGBClass* const d = static_cast<RGBClass*>(data);
    if (d->changeHandler_) {
        d->changeHandler_(r, g, b);
    }
}
   b856e:	4770      	bx	lr
   b8570:	2003e6cc 	.word	0x2003e6cc

000b8574 <_ZZ21module_user_init_hookENUlP6_reentjmPvE_4_FUNES0_jmS1_>:

void module_user_init_hook()
{
#if HAL_PLATFORM_NEWLIB
    newlib_impure_ptr_callback([](struct _reent* r, size_t size, uint32_t version, void* ctx) -> void {
        _impure_ptr = r;
   b8574:	4b01      	ldr	r3, [pc, #4]	; (b857c <_ZZ21module_user_init_hookENUlP6_reentjmPvE_4_FUNES0_jmS1_+0x8>)
   b8576:	6018      	str	r0, [r3, #0]
    }, nullptr);
   b8578:	4770      	bx	lr
   b857a:	bf00      	nop
   b857c:	20037074 	.word	0x20037074

000b8580 <serialEventRun>:
{
   b8580:	b508      	push	{r3, lr}
    if (serialEvent && Serial.available()>0)
   b8582:	4b0b      	ldr	r3, [pc, #44]	; (b85b0 <serialEventRun+0x30>)
   b8584:	b143      	cbz	r3, b8598 <serialEventRun+0x18>
   b8586:	f000 f967 	bl	b8858 <_Z16_fetch_usbserialv>
   b858a:	6803      	ldr	r3, [r0, #0]
   b858c:	691b      	ldr	r3, [r3, #16]
   b858e:	4798      	blx	r3
   b8590:	2800      	cmp	r0, #0
   b8592:	dd01      	ble.n	b8598 <serialEventRun+0x18>
        serialEvent();
   b8594:	f3af 8000 	nop.w
    if (serialEvent1 && Serial1.available()>0)
   b8598:	4b06      	ldr	r3, [pc, #24]	; (b85b4 <serialEventRun+0x34>)
   b859a:	b143      	cbz	r3, b85ae <serialEventRun+0x2e>
   b859c:	f000 fbd2 	bl	b8d44 <_Z22__fetch_global_Serial1v>
   b85a0:	6803      	ldr	r3, [r0, #0]
   b85a2:	691b      	ldr	r3, [r3, #16]
   b85a4:	4798      	blx	r3
   b85a6:	2800      	cmp	r0, #0
   b85a8:	dd01      	ble.n	b85ae <serialEventRun+0x2e>
        serialEvent1();
   b85aa:	f3af 8000 	nop.w
}
   b85ae:	bd08      	pop	{r3, pc}
	...

000b85b8 <_post_loop>:
{
   b85b8:	b508      	push	{r3, lr}
	serialEventRun();
   b85ba:	f7ff ffe1 	bl	b8580 <serialEventRun>
		return !thread || !thread->isRunning();
	}

	static inline system_tick_t current_time()
	{
		return HAL_Timer_Get_Milli_Seconds();
   b85be:	f7ff fb51 	bl	b7c64 <HAL_Timer_Get_Milli_Seconds>
	/**
	 * Lifesign that the application is still working normally.
	 */
	static void checkin()
	{
		last_checkin = current_time();
   b85c2:	4b01      	ldr	r3, [pc, #4]	; (b85c8 <_post_loop+0x10>)
   b85c4:	6018      	str	r0, [r3, #0]
}
   b85c6:	bd08      	pop	{r3, pc}
   b85c8:	2003e74c 	.word	0x2003e74c

000b85cc <_Z33system_initialize_user_backup_ramv>:
    memcpy(&link_global_retained_start, &link_global_retained_initial_values, len);
   b85cc:	4805      	ldr	r0, [pc, #20]	; (b85e4 <_Z33system_initialize_user_backup_ramv+0x18>)
   b85ce:	4a06      	ldr	r2, [pc, #24]	; (b85e8 <_Z33system_initialize_user_backup_ramv+0x1c>)
   b85d0:	4906      	ldr	r1, [pc, #24]	; (b85ec <_Z33system_initialize_user_backup_ramv+0x20>)
{
   b85d2:	b508      	push	{r3, lr}
    memcpy(&link_global_retained_start, &link_global_retained_initial_values, len);
   b85d4:	1a12      	subs	r2, r2, r0
   b85d6:	f000 fc21 	bl	b8e1c <memcpy>
    __backup_sram_signature = signature;
   b85da:	4b05      	ldr	r3, [pc, #20]	; (b85f0 <_Z33system_initialize_user_backup_ramv+0x24>)
   b85dc:	4a05      	ldr	r2, [pc, #20]	; (b85f4 <_Z33system_initialize_user_backup_ramv+0x28>)
   b85de:	601a      	str	r2, [r3, #0]
}
   b85e0:	bd08      	pop	{r3, pc}
   b85e2:	bf00      	nop
   b85e4:	2003f400 	.word	0x2003f400
   b85e8:	2003f404 	.word	0x2003f404
   b85ec:	000d7dc8 	.word	0x000d7dc8
   b85f0:	2003f400 	.word	0x2003f400
   b85f4:	9a271c1e 	.word	0x9a271c1e

000b85f8 <_Z27ctrl_request_custom_handlerP12ctrl_request>:
void __attribute((weak)) ctrl_request_custom_handler(ctrl_request* req) {
   b85f8:	b507      	push	{r0, r1, r2, lr}
    system_ctrl_set_result(req, SYSTEM_ERROR_NOT_SUPPORTED, nullptr, nullptr, nullptr);
   b85fa:	2300      	movs	r3, #0
   b85fc:	9300      	str	r3, [sp, #0]
   b85fe:	461a      	mov	r2, r3
   b8600:	f06f 0177 	mvn.w	r1, #119	; 0x77
   b8604:	f7ff fc68 	bl	b7ed8 <system_ctrl_set_result>
}
   b8608:	b003      	add	sp, #12
   b860a:	f85d fb04 	ldr.w	pc, [sp], #4
	...

000b8610 <_ZL20ctrl_request_handlerP12ctrl_request>:
static void ctrl_request_handler(ctrl_request* req) {
   b8610:	b507      	push	{r0, r1, r2, lr}
    switch (req->type) {
   b8612:	8843      	ldrh	r3, [r0, #2]
   b8614:	2b0a      	cmp	r3, #10
   b8616:	d008      	beq.n	b862a <_ZL20ctrl_request_handlerP12ctrl_request+0x1a>
   b8618:	2b50      	cmp	r3, #80	; 0x50
   b861a:	d10b      	bne.n	b8634 <_ZL20ctrl_request_handlerP12ctrl_request+0x24>
        if (log_process_ctrl_request_callback) {
   b861c:	4b09      	ldr	r3, [pc, #36]	; (b8644 <_ZL20ctrl_request_handlerP12ctrl_request+0x34>)
   b861e:	681b      	ldr	r3, [r3, #0]
   b8620:	b14b      	cbz	r3, b8636 <_ZL20ctrl_request_handlerP12ctrl_request+0x26>
}
   b8622:	b003      	add	sp, #12
   b8624:	f85d eb04 	ldr.w	lr, [sp], #4
            log_process_ctrl_request_callback(req);
   b8628:	4718      	bx	r3
        ctrl_request_custom_handler(req);
   b862a:	f7ff ffe5 	bl	b85f8 <_Z27ctrl_request_custom_handlerP12ctrl_request>
}
   b862e:	b003      	add	sp, #12
   b8630:	f85d fb04 	ldr.w	pc, [sp], #4
        system_ctrl_set_result(req, SYSTEM_ERROR_NOT_SUPPORTED, nullptr, nullptr, nullptr);
   b8634:	2300      	movs	r3, #0
   b8636:	9300      	str	r3, [sp, #0]
   b8638:	461a      	mov	r2, r3
   b863a:	f06f 0177 	mvn.w	r1, #119	; 0x77
   b863e:	f7ff fc4b 	bl	b7ed8 <system_ctrl_set_result>
}
   b8642:	e7f4      	b.n	b862e <_ZL20ctrl_request_handlerP12ctrl_request+0x1e>
   b8644:	2003e6e0 	.word	0x2003e6e0

000b8648 <module_user_init_hook>:
{
   b8648:	b510      	push	{r4, lr}
    newlib_impure_ptr_callback([](struct _reent* r, size_t size, uint32_t version, void* ctx) -> void {
   b864a:	4812      	ldr	r0, [pc, #72]	; (b8694 <module_user_init_hook+0x4c>)
   b864c:	2100      	movs	r1, #0
   b864e:	f7ff fce5 	bl	b801c <newlib_impure_ptr_callback>
#endif // HAL_PLATFORM_NEWLIB

#if HAL_PLATFORM_BACKUP_RAM
    backup_ram_was_valid_ = __backup_sram_signature == signature;
   b8652:	4b11      	ldr	r3, [pc, #68]	; (b8698 <module_user_init_hook+0x50>)
   b8654:	681a      	ldr	r2, [r3, #0]
   b8656:	4b11      	ldr	r3, [pc, #68]	; (b869c <module_user_init_hook+0x54>)
   b8658:	429a      	cmp	r2, r3
   b865a:	4b11      	ldr	r3, [pc, #68]	; (b86a0 <module_user_init_hook+0x58>)
   b865c:	bf0c      	ite	eq
   b865e:	2201      	moveq	r2, #1
   b8660:	2200      	movne	r2, #0
   b8662:	701a      	strb	r2, [r3, #0]
    if (!backup_ram_was_valid_) {
   b8664:	d001      	beq.n	b866a <module_user_init_hook+0x22>
        system_initialize_user_backup_ram();
   b8666:	f7ff ffb1 	bl	b85cc <_Z33system_initialize_user_backup_ramv>
    }
#endif

#if HAL_PLATFORM_RNG
    // Initialize the default stdlib PRNG using hardware RNG as a seed
    const uint32_t seed = HAL_RNG_GetRandomNumber();
   b866a:	f7ff fae3 	bl	b7c34 <HAL_RNG_GetRandomNumber>
   b866e:	4604      	mov	r4, r0
    srand(seed);
   b8670:	f000 fbea 	bl	b8e48 <srand>

    // If the user defines random_seed_from_cloud, call it with a seed value
    // generated by a hardware RNG as well.
    if (random_seed_from_cloud) {
   b8674:	4b0b      	ldr	r3, [pc, #44]	; (b86a4 <module_user_init_hook+0x5c>)
   b8676:	b113      	cbz	r3, b867e <module_user_init_hook+0x36>
        random_seed_from_cloud(seed);
   b8678:	4620      	mov	r0, r4
   b867a:	f3af 8000 	nop.w
    }
#endif
    // Register the random_seed_from_cloud handler
    spark_set_random_seed_from_cloud_handler(&random_seed_from_cloud, nullptr);
   b867e:	2100      	movs	r1, #0
   b8680:	4808      	ldr	r0, [pc, #32]	; (b86a4 <module_user_init_hook+0x5c>)
   b8682:	f7ff fca3 	bl	b7fcc <spark_set_random_seed_from_cloud_handler>

    // Register application handler for the control requests
    system_ctrl_set_app_request_handler(ctrl_request_handler, nullptr);
}
   b8686:	e8bd 4010 	ldmia.w	sp!, {r4, lr}
    system_ctrl_set_app_request_handler(ctrl_request_handler, nullptr);
   b868a:	4807      	ldr	r0, [pc, #28]	; (b86a8 <module_user_init_hook+0x60>)
   b868c:	2100      	movs	r1, #0
   b868e:	f7ff bc19 	b.w	b7ec4 <system_ctrl_set_app_request_handler>
   b8692:	bf00      	nop
   b8694:	000b8575 	.word	0x000b8575
   b8698:	2003f400 	.word	0x2003f400
   b869c:	9a271c1e 	.word	0x9a271c1e
   b86a0:	2003e6dc 	.word	0x2003e6dc
   b86a4:	00000000 	.word	0x00000000
   b86a8:	000b8611 	.word	0x000b8611

000b86ac <_ZN9IPAddressD1Ev>:
    IPAddress(uint32_t address);
    // 4 bytes defining the IP address in network order
    IPAddress(const uint8_t* address);
    IPAddress(const HAL_IPAddress& address);

    virtual ~IPAddress() {}
   b86ac:	4770      	bx	lr

000b86ae <_ZN9IPAddressD0Ev>:
   b86ae:	b510      	push	{r4, lr}
   b86b0:	2118      	movs	r1, #24
   b86b2:	4604      	mov	r4, r0
   b86b4:	f7fc f9ab 	bl	b4a0e <_ZdlPvj>
   b86b8:	4620      	mov	r0, r4
   b86ba:	bd10      	pop	{r4, pc}

000b86bc <_ZNK9IPAddress7printToER5Print>:
#endif // Wiring_IPv6
	return address.ipv4==that.address.ipv4;
}

size_t IPAddress::printTo(Print& p) const
{
   b86bc:	b5f0      	push	{r4, r5, r6, r7, lr}
#if Wiring_IPv6
#if HAL_USE_INET_HAL_POSIX
	if (address.v==6) {
   b86be:	7d03      	ldrb	r3, [r0, #20]
   b86c0:	2b06      	cmp	r3, #6
{
   b86c2:	b08d      	sub	sp, #52	; 0x34
   b86c4:	460e      	mov	r6, r1
		char buf[INET6_ADDRSTRLEN+1];
		buf[0] = 0;
		inet_inet_ntop(AF_INET6, address.ipv6, buf, sizeof(buf));
   b86c6:	f100 0704 	add.w	r7, r0, #4
   b86ca:	f04f 0400 	mov.w	r4, #0
	if (address.v==6) {
   b86ce:	d012      	beq.n	b86f6 <_ZNK9IPAddress7printToER5Print+0x3a>
   b86d0:	f100 0508 	add.w	r5, r0, #8
        return printNumber(val, base) + t;
   b86d4:	f815 1d01 	ldrb.w	r1, [r5, #-1]!
   b86d8:	220a      	movs	r2, #10
   b86da:	4630      	mov	r0, r6
   b86dc:	f7ff fe07 	bl	b82ee <_ZN5Print11printNumberEmh>
#else
#pragma message "HAL_USE_INET_HAL_POSIX is required for IPv6 support in IPAddress::printTo()"
#endif // HAL_USE_INET_HAL_POSIX
#endif // Wiring_IPv6
    size_t n = 0;
    for (int i = 0; i < 4; i++)
   b86e0:	42af      	cmp	r7, r5
    {
        if (n)
            n += p.print('.');
        n += p.print((*this)[i], DEC);
   b86e2:	4404      	add	r4, r0
    for (int i = 0; i < 4; i++)
   b86e4:	d019      	beq.n	b871a <_ZNK9IPAddress7printToER5Print+0x5e>
        if (n)
   b86e6:	2c00      	cmp	r4, #0
   b86e8:	d0f4      	beq.n	b86d4 <_ZNK9IPAddress7printToER5Print+0x18>
            n += p.print('.');
   b86ea:	212e      	movs	r1, #46	; 0x2e
   b86ec:	4630      	mov	r0, r6
   b86ee:	f7ff fde5 	bl	b82bc <_ZN5Print5printEc>
   b86f2:	4404      	add	r4, r0
   b86f4:	e7ee      	b.n	b86d4 <_ZNK9IPAddress7printToER5Print+0x18>
		inet_inet_ntop(AF_INET6, address.ipv6, buf, sizeof(buf));
   b86f6:	232f      	movs	r3, #47	; 0x2f
   b86f8:	466a      	mov	r2, sp
   b86fa:	4639      	mov	r1, r7
   b86fc:	200a      	movs	r0, #10
		buf[0] = 0;
   b86fe:	f88d 4000 	strb.w	r4, [sp]
		inet_inet_ntop(AF_INET6, address.ipv6, buf, sizeof(buf));
   b8702:	f7ff fabf 	bl	b7c84 <inet_inet_ntop>
      return write((const uint8_t *)str, strlen(str));
   b8706:	4668      	mov	r0, sp
   b8708:	f7fc f93c 	bl	b4984 <strlen>
   b870c:	6833      	ldr	r3, [r6, #0]
   b870e:	4602      	mov	r2, r0
   b8710:	68db      	ldr	r3, [r3, #12]
   b8712:	4669      	mov	r1, sp
   b8714:	4630      	mov	r0, r6
   b8716:	4798      	blx	r3
   b8718:	4604      	mov	r4, r0
    }
    return n;
}
   b871a:	4620      	mov	r0, r4
   b871c:	b00d      	add	sp, #52	; 0x34
   b871e:	bdf0      	pop	{r4, r5, r6, r7, pc}

000b8720 <_ZN9IPAddressC1Ev>:
IPAddress::IPAddress()
   b8720:	b510      	push	{r4, lr}
   b8722:	4b05      	ldr	r3, [pc, #20]	; (b8738 <_ZN9IPAddressC1Ev+0x18>)
   b8724:	4604      	mov	r4, r0
        return address;
    }

    virtual size_t printTo(Print& p) const;

    void clear() { memset(&address, 0, sizeof (address)); }
   b8726:	2211      	movs	r2, #17
   b8728:	f840 3b04 	str.w	r3, [r0], #4
   b872c:	2100      	movs	r1, #0
   b872e:	f000 fb83 	bl	b8e38 <memset>
}
   b8732:	4620      	mov	r0, r4
   b8734:	bd10      	pop	{r4, pc}
   b8736:	bf00      	nop
   b8738:	000d7b60 	.word	0x000d7b60

000b873c <_ZN9IPAddressC1ERK16_HAL_IPAddress_t>:
IPAddress::IPAddress(const HAL_IPAddress& address)
   b873c:	4603      	mov	r3, r0
   b873e:	4a07      	ldr	r2, [pc, #28]	; (b875c <_ZN9IPAddressC1ERK16_HAL_IPAddress_t+0x20>)
   b8740:	b510      	push	{r4, lr}
   b8742:	f843 2b04 	str.w	r2, [r3], #4
    memcpy(&this->address, &address, sizeof(address));
   b8746:	f101 0210 	add.w	r2, r1, #16
   b874a:	f851 4b04 	ldr.w	r4, [r1], #4
   b874e:	f843 4b04 	str.w	r4, [r3], #4
   b8752:	4291      	cmp	r1, r2
   b8754:	d1f9      	bne.n	b874a <_ZN9IPAddressC1ERK16_HAL_IPAddress_t+0xe>
   b8756:	780a      	ldrb	r2, [r1, #0]
   b8758:	701a      	strb	r2, [r3, #0]
}
   b875a:	bd10      	pop	{r4, pc}
   b875c:	000d7b60 	.word	0x000d7b60

000b8760 <_ZN9IPAddress8set_ipv4Ehhhh>:
{
   b8760:	b510      	push	{r4, lr}
    address.ipv4 = b0<<24 | b1 << 16 | b2 << 8 | b3;
   b8762:	f89d 4008 	ldrb.w	r4, [sp, #8]
   b8766:	ea44 2303 	orr.w	r3, r4, r3, lsl #8
   b876a:	ea43 4202 	orr.w	r2, r3, r2, lsl #16
   b876e:	ea42 6101 	orr.w	r1, r2, r1, lsl #24
        address.v = version;
   b8772:	2304      	movs	r3, #4
   b8774:	6041      	str	r1, [r0, #4]
   b8776:	7503      	strb	r3, [r0, #20]
}
   b8778:	bd10      	pop	{r4, pc}
	...

000b877c <_ZN9IPAddressC1EPKh>:
IPAddress::IPAddress(const uint8_t* addr)
   b877c:	b507      	push	{r0, r1, r2, lr}
   b877e:	4b06      	ldr	r3, [pc, #24]	; (b8798 <_ZN9IPAddressC1EPKh+0x1c>)
   b8780:	6003      	str	r3, [r0, #0]
    set_ipv4(addr[0], addr[1], addr[2], addr[3]);
   b8782:	78cb      	ldrb	r3, [r1, #3]
   b8784:	9300      	str	r3, [sp, #0]
   b8786:	788b      	ldrb	r3, [r1, #2]
   b8788:	784a      	ldrb	r2, [r1, #1]
   b878a:	7809      	ldrb	r1, [r1, #0]
   b878c:	f7ff ffe8 	bl	b8760 <_ZN9IPAddress8set_ipv4Ehhhh>
}
   b8790:	b003      	add	sp, #12
   b8792:	f85d fb04 	ldr.w	pc, [sp], #4
   b8796:	bf00      	nop
   b8798:	000d7b60 	.word	0x000d7b60

000b879c <_ZN9USBSerial14blockOnOverrunEb>:
  HAL_USB_USART_Flush_Data(_serial);
}

void USBSerial::blockOnOverrun(bool block)
{
  _blocking = block;
   b879c:	7441      	strb	r1, [r0, #17]
}
   b879e:	4770      	bx	lr

000b87a0 <__tcf_0>:
}

USBSerial& _fetch_usbserial()
{
  HAL_USB_USART_Config conf = acquireSerialBuffer();
	static USBSerial _usbserial(HAL_USB_USART_SERIAL, conf);
   b87a0:	4770      	bx	lr

000b87a2 <_ZN9USBSerialD1Ev>:
#include "usb_hal.h"
#include "system_task.h"
#include "spark_wiring_startup.h"
#include "concurrent_hal.h"

class USBSerial : public Stream
   b87a2:	4770      	bx	lr

000b87a4 <_ZN9USBSerial4readEv>:
{
   b87a4:	b508      	push	{r3, lr}
	return std::max(-1, (int)HAL_USB_USART_Receive_Data(_serial, false));
   b87a6:	2100      	movs	r1, #0
   b87a8:	7c00      	ldrb	r0, [r0, #16]
   b87aa:	f7ff fb53 	bl	b7e54 <HAL_USB_USART_Receive_Data>
}
   b87ae:	ea40 70e0 	orr.w	r0, r0, r0, asr #31
   b87b2:	bd08      	pop	{r3, pc}

000b87b4 <_ZN9USBSerial4peekEv>:
{
   b87b4:	b508      	push	{r3, lr}
	return std::max(-1, (int)HAL_USB_USART_Receive_Data(_serial, true));
   b87b6:	2101      	movs	r1, #1
   b87b8:	7c00      	ldrb	r0, [r0, #16]
   b87ba:	f7ff fb4b 	bl	b7e54 <HAL_USB_USART_Receive_Data>
}
   b87be:	ea40 70e0 	orr.w	r0, r0, r0, asr #31
   b87c2:	bd08      	pop	{r3, pc}

000b87c4 <_ZN9USBSerial17availableForWriteEv>:
{
   b87c4:	b508      	push	{r3, lr}
  return std::max(0, (int)HAL_USB_USART_Available_Data_For_Write(_serial));
   b87c6:	7c00      	ldrb	r0, [r0, #16]
   b87c8:	f7ff fb3c 	bl	b7e44 <HAL_USB_USART_Available_Data_For_Write>
}
   b87cc:	ea20 70e0 	bic.w	r0, r0, r0, asr #31
   b87d0:	bd08      	pop	{r3, pc}

000b87d2 <_ZN9USBSerial9availableEv>:
{
   b87d2:	b508      	push	{r3, lr}
	return std::max(0, (int)HAL_USB_USART_Available_Data(_serial));
   b87d4:	7c00      	ldrb	r0, [r0, #16]
   b87d6:	f7ff fb2d 	bl	b7e34 <HAL_USB_USART_Available_Data>
}
   b87da:	ea20 70e0 	bic.w	r0, r0, r0, asr #31
   b87de:	bd08      	pop	{r3, pc}

000b87e0 <_ZN9USBSerial5writeEh>:
{
   b87e0:	b513      	push	{r0, r1, r4, lr}
   b87e2:	4604      	mov	r4, r0
  if (HAL_USB_USART_Available_Data_For_Write(_serial) > 0 || _blocking) {
   b87e4:	7c00      	ldrb	r0, [r0, #16]
{
   b87e6:	9101      	str	r1, [sp, #4]
  if (HAL_USB_USART_Available_Data_For_Write(_serial) > 0 || _blocking) {
   b87e8:	f7ff fb2c 	bl	b7e44 <HAL_USB_USART_Available_Data_For_Write>
   b87ec:	2800      	cmp	r0, #0
   b87ee:	9901      	ldr	r1, [sp, #4]
   b87f0:	dc01      	bgt.n	b87f6 <_ZN9USBSerial5writeEh+0x16>
   b87f2:	7c60      	ldrb	r0, [r4, #17]
   b87f4:	b120      	cbz	r0, b8800 <_ZN9USBSerial5writeEh+0x20>
    return std::max(0, (int)HAL_USB_USART_Send_Data(_serial, byte));
   b87f6:	7c20      	ldrb	r0, [r4, #16]
   b87f8:	f7ff fb34 	bl	b7e64 <HAL_USB_USART_Send_Data>
   b87fc:	ea20 70e0 	bic.w	r0, r0, r0, asr #31
}
   b8800:	b002      	add	sp, #8
   b8802:	bd10      	pop	{r4, pc}

000b8804 <_ZN9USBSerial5flushEv>:
  HAL_USB_USART_Flush_Data(_serial);
   b8804:	7c00      	ldrb	r0, [r0, #16]
   b8806:	f7ff bb35 	b.w	b7e74 <HAL_USB_USART_Flush_Data>

000b880a <_ZN9USBSerialD0Ev>:
   b880a:	b510      	push	{r4, lr}
   b880c:	2114      	movs	r1, #20
   b880e:	4604      	mov	r4, r0
   b8810:	f7fc f8fd 	bl	b4a0e <_ZdlPvj>
   b8814:	4620      	mov	r0, r4
   b8816:	bd10      	pop	{r4, pc}

000b8818 <_ZN9USBSerialC1E20HAL_USB_USART_SerialRK20HAL_USB_USART_Config>:
USBSerial::USBSerial(HAL_USB_USART_Serial serial, const HAL_USB_USART_Config& conf)
   b8818:	b510      	push	{r4, lr}
    virtual int available() = 0;
    virtual int read() = 0;
    virtual int peek() = 0;
    virtual void flush() = 0;

    Stream() {_timeout=1000;}
   b881a:	f44f 737a 	mov.w	r3, #1000	; 0x3e8
   b881e:	4604      	mov	r4, r0
   b8820:	4608      	mov	r0, r1
   b8822:	2100      	movs	r1, #0
   b8824:	e9c4 1301 	strd	r1, r3, [r4, #4]
   b8828:	4b04      	ldr	r3, [pc, #16]	; (b883c <_ZN9USBSerialC1E20HAL_USB_USART_SerialRK20HAL_USB_USART_Config+0x24>)
   b882a:	6023      	str	r3, [r4, #0]
  _blocking = true;
   b882c:	2301      	movs	r3, #1
  _serial = serial;
   b882e:	7420      	strb	r0, [r4, #16]
  _blocking = true;
   b8830:	7463      	strb	r3, [r4, #17]
  HAL_USB_USART_Init(_serial, &conf);
   b8832:	4611      	mov	r1, r2
   b8834:	f7ff faee 	bl	b7e14 <HAL_USB_USART_Init>
}
   b8838:	4620      	mov	r0, r4
   b883a:	bd10      	pop	{r4, pc}
   b883c:	000d7b74 	.word	0x000d7b74

000b8840 <_ZN9USBSerial5beginEl>:
    HAL_USB_USART_Begin(_serial, speed, NULL);
   b8840:	7c00      	ldrb	r0, [r0, #16]
   b8842:	2200      	movs	r2, #0
   b8844:	f7ff baee 	b.w	b7e24 <HAL_USB_USART_Begin>

000b8848 <_Z19acquireSerialBufferv>:
{
   b8848:	b510      	push	{r4, lr}
  HAL_USB_USART_Config conf = {};
   b884a:	2214      	movs	r2, #20
{
   b884c:	4604      	mov	r4, r0
  HAL_USB_USART_Config conf = {};
   b884e:	2100      	movs	r1, #0
   b8850:	f000 faf2 	bl	b8e38 <memset>
}
   b8854:	4620      	mov	r0, r4
   b8856:	bd10      	pop	{r4, pc}

000b8858 <_Z16_fetch_usbserialv>:
{
   b8858:	b510      	push	{r4, lr}
	static USBSerial _usbserial(HAL_USB_USART_SERIAL, conf);
   b885a:	4c0f      	ldr	r4, [pc, #60]	; (b8898 <_Z16_fetch_usbserialv+0x40>)
{
   b885c:	b088      	sub	sp, #32
  HAL_USB_USART_Config conf = acquireSerialBuffer();
   b885e:	a803      	add	r0, sp, #12
   b8860:	f7ff fff2 	bl	b8848 <_Z19acquireSerialBufferv>
	static USBSerial _usbserial(HAL_USB_USART_SERIAL, conf);
   b8864:	7821      	ldrb	r1, [r4, #0]
   b8866:	f3bf 8f5b 	dmb	ish
   b886a:	f011 0101 	ands.w	r1, r1, #1
   b886e:	d10f      	bne.n	b8890 <_Z16_fetch_usbserialv+0x38>
   b8870:	4620      	mov	r0, r4
   b8872:	9101      	str	r1, [sp, #4]
   b8874:	f7fc f8da 	bl	b4a2c <__cxa_guard_acquire>
   b8878:	9901      	ldr	r1, [sp, #4]
   b887a:	b148      	cbz	r0, b8890 <_Z16_fetch_usbserialv+0x38>
   b887c:	aa03      	add	r2, sp, #12
   b887e:	4807      	ldr	r0, [pc, #28]	; (b889c <_Z16_fetch_usbserialv+0x44>)
   b8880:	f7ff ffca 	bl	b8818 <_ZN9USBSerialC1E20HAL_USB_USART_SerialRK20HAL_USB_USART_Config>
   b8884:	4620      	mov	r0, r4
   b8886:	f7fc f8d6 	bl	b4a36 <__cxa_guard_release>
   b888a:	4805      	ldr	r0, [pc, #20]	; (b88a0 <_Z16_fetch_usbserialv+0x48>)
   b888c:	f000 fac0 	bl	b8e10 <atexit>
	return _usbserial;
}
   b8890:	4802      	ldr	r0, [pc, #8]	; (b889c <_Z16_fetch_usbserialv+0x44>)
   b8892:	b008      	add	sp, #32
   b8894:	bd10      	pop	{r4, pc}
   b8896:	bf00      	nop
   b8898:	2003e6e4 	.word	0x2003e6e4
   b889c:	2003e6e8 	.word	0x2003e6e8
   b88a0:	000b87a1 	.word	0x000b87a1

000b88a4 <_ZN5spark13CellularClass5readyEv>:
        return network_listening(*this, 0, NULL);
    }

    bool ready()
    {
        return network_ready(*this, 0,  NULL);
   b88a4:	2200      	movs	r2, #0
   b88a6:	6840      	ldr	r0, [r0, #4]
   b88a8:	4611      	mov	r1, r2
   b88aa:	f7ff bb37 	b.w	b7f1c <network_ready>

000b88ae <_ZN5spark13CellularClass9listeningEv>:
        return network_listening(*this, 0, NULL);
   b88ae:	2200      	movs	r2, #0
   b88b0:	6840      	ldr	r0, [r0, #4]
   b88b2:	4611      	mov	r1, r2
   b88b4:	f7ff bb52 	b.w	b7f5c <network_listening>

000b88b8 <_ZN5spark13CellularClass16getListenTimeoutEv>:
        return network_get_listen_timeout(*this, 0, NULL);
   b88b8:	2200      	movs	r2, #0
   b88ba:	6840      	ldr	r0, [r0, #4]
   b88bc:	4611      	mov	r1, r2
   b88be:	f7ff bb5d 	b.w	b7f7c <network_get_listen_timeout>

000b88c2 <_ZN5spark13CellularClass16setListenTimeoutEt>:
        network_set_listen_timeout(*this, timeout, NULL);
   b88c2:	6840      	ldr	r0, [r0, #4]
   b88c4:	2200      	movs	r2, #0
   b88c6:	f7ff bb51 	b.w	b7f6c <network_set_listen_timeout>

000b88ca <_ZN5spark13CellularClass6listenEb>:
        network_listen(*this, begin ? 0 : 1, NULL);
   b88ca:	6840      	ldr	r0, [r0, #4]
   b88cc:	2200      	movs	r2, #0
   b88ce:	f081 0101 	eor.w	r1, r1, #1
   b88d2:	f7ff bb3b 	b.w	b7f4c <network_listen>

000b88d6 <_ZN5spark13CellularClass3offEv>:
        network_off(*this, 0, 0, NULL);
   b88d6:	2300      	movs	r3, #0
   b88d8:	6840      	ldr	r0, [r0, #4]
   b88da:	461a      	mov	r2, r3
   b88dc:	4619      	mov	r1, r3
   b88de:	f7ff bb2d 	b.w	b7f3c <network_off>

000b88e2 <_ZN5spark13CellularClass2onEv>:
        network_on(*this, 0, 0, NULL);
   b88e2:	2300      	movs	r3, #0
   b88e4:	6840      	ldr	r0, [r0, #4]
   b88e6:	461a      	mov	r2, r3
   b88e8:	4619      	mov	r1, r3
   b88ea:	f7ff bb1f 	b.w	b7f2c <network_on>

000b88ee <_ZN5spark13CellularClass10connectingEv>:
        return network_connecting(*this, 0, NULL);
   b88ee:	2200      	movs	r2, #0
   b88f0:	6840      	ldr	r0, [r0, #4]
   b88f2:	4611      	mov	r1, r2
   b88f4:	f7ff bb02 	b.w	b7efc <network_connecting>

000b88f8 <_ZN5spark13CellularClass10disconnectEv>:
        network_disconnect(*this, NETWORK_DISCONNECT_REASON_USER, NULL);
   b88f8:	6840      	ldr	r0, [r0, #4]
   b88fa:	2200      	movs	r2, #0
   b88fc:	2102      	movs	r1, #2
   b88fe:	f7ff bb05 	b.w	b7f0c <network_disconnect>

000b8902 <_ZN5spark13CellularClass7connectEj>:
        network_connect(*this, flags, 0, NULL);
   b8902:	2300      	movs	r3, #0
   b8904:	6840      	ldr	r0, [r0, #4]
   b8906:	461a      	mov	r2, r3
   b8908:	f7ff baf0 	b.w	b7eec <network_connect>

000b890c <_GLOBAL__sub_I__ZN5spark13CellularClass4RSSIEv>:
    int tx_total;
    int rx_total;

    CellularDataHal()
    {
        memset(this, 0, sizeof(*this));
   b890c:	4b08      	ldr	r3, [pc, #32]	; (b8930 <_GLOBAL__sub_I__ZN5spark13CellularClass4RSSIEv+0x24>)
        return (band_get.ok = true);
    }

    CellularClass Cellular;
    // NetworkClass& Network = Cellular;
}
   b890e:	b510      	push	{r4, lr}
   b8910:	2428      	movs	r4, #40	; 0x28
   b8912:	4622      	mov	r2, r4
   b8914:	4618      	mov	r0, r3
   b8916:	2100      	movs	r1, #0
   b8918:	f000 fa8e 	bl	b8e38 <memset>
   b891c:	4b05      	ldr	r3, [pc, #20]	; (b8934 <_GLOBAL__sub_I__ZN5spark13CellularClass4RSSIEv+0x28>)
        cid = -1;
        size = sizeof(*this);
   b891e:	8004      	strh	r4, [r0, #0]
        cid = -1;
   b8920:	f04f 32ff 	mov.w	r2, #4294967295
   b8924:	6042      	str	r2, [r0, #4]
   b8926:	2204      	movs	r2, #4
   b8928:	605a      	str	r2, [r3, #4]
            NetworkClass(NETWORK_INTERFACE_CELLULAR) {
   b892a:	4a03      	ldr	r2, [pc, #12]	; (b8938 <_GLOBAL__sub_I__ZN5spark13CellularClass4RSSIEv+0x2c>)
   b892c:	601a      	str	r2, [r3, #0]
   b892e:	bd10      	pop	{r4, pc}
   b8930:	2003e704 	.word	0x2003e704
   b8934:	2003e6fc 	.word	0x2003e6fc
   b8938:	000d7ba4 	.word	0x000d7ba4

000b893c <_ZN11USARTSerialD1Ev>:
private:
  hal_usart_interface_t _serial;
  bool _blocking;
public:
  USARTSerial(hal_usart_interface_t serial, const hal_usart_buffer_config_t& config);
  virtual ~USARTSerial() {};
   b893c:	4770      	bx	lr

000b893e <_ZN11USARTSerial14blockOnOverrunEb>:
    hal_usart_half_duplex(_serial, Enable);
}

void USARTSerial::blockOnOverrun(bool block)
{
  _blocking = block;
   b893e:	7441      	strb	r1, [r0, #17]
}
   b8940:	4770      	bx	lr

000b8942 <_ZN11USARTSerial17availableForWriteEv>:


int USARTSerial::availableForWrite(void)
{
   b8942:	b508      	push	{r3, lr}
  return std::max(0, (int)hal_usart_available_data_for_write(_serial));
   b8944:	7c00      	ldrb	r0, [r0, #16]
   b8946:	f7ff f9d5 	bl	b7cf4 <hal_usart_available_data_for_write>
}
   b894a:	ea20 70e0 	bic.w	r0, r0, r0, asr #31
   b894e:	bd08      	pop	{r3, pc}

000b8950 <_ZN11USARTSerial9availableEv>:

int USARTSerial::available(void)
{
   b8950:	b508      	push	{r3, lr}
  return std::max(0, (int)hal_usart_available(_serial));
   b8952:	7c00      	ldrb	r0, [r0, #16]
   b8954:	f7ff f9a6 	bl	b7ca4 <hal_usart_available>
}
   b8958:	ea20 70e0 	bic.w	r0, r0, r0, asr #31
   b895c:	bd08      	pop	{r3, pc}

000b895e <_ZN11USARTSerial4peekEv>:

int USARTSerial::peek(void)
{
   b895e:	b508      	push	{r3, lr}
  return std::max(-1, (int)hal_usart_peek(_serial));
   b8960:	7c00      	ldrb	r0, [r0, #16]
   b8962:	f7ff f9af 	bl	b7cc4 <hal_usart_peek>
}
   b8966:	ea40 70e0 	orr.w	r0, r0, r0, asr #31
   b896a:	bd08      	pop	{r3, pc}

000b896c <_ZN11USARTSerial4readEv>:

int USARTSerial::read(void)
{
   b896c:	b508      	push	{r3, lr}
  return std::max(-1, (int)hal_usart_read(_serial));
   b896e:	7c00      	ldrb	r0, [r0, #16]
   b8970:	f7ff f9a0 	bl	b7cb4 <hal_usart_read>
}
   b8974:	ea40 70e0 	orr.w	r0, r0, r0, asr #31
   b8978:	bd08      	pop	{r3, pc}

000b897a <_ZN11USARTSerial5flushEv>:

void USARTSerial::flush()
{
  hal_usart_flush(_serial);
   b897a:	7c00      	ldrb	r0, [r0, #16]
   b897c:	f7ff b9aa 	b.w	b7cd4 <hal_usart_flush>

000b8980 <_ZN11USARTSerial5writeEh>:
}

size_t USARTSerial::write(uint8_t c)
{
   b8980:	b537      	push	{r0, r1, r2, r4, r5, lr}
  // attempt a write if blocking, or for non-blocking if there is room.
  if (_blocking || hal_usart_available_data_for_write(_serial) > 0) {
   b8982:	7c45      	ldrb	r5, [r0, #17]
{
   b8984:	4604      	mov	r4, r0
  if (_blocking || hal_usart_available_data_for_write(_serial) > 0) {
   b8986:	b12d      	cbz	r5, b8994 <_ZN11USARTSerial5writeEh+0x14>
    // the HAL always blocks.
	  return hal_usart_write(_serial, c);
   b8988:	7c20      	ldrb	r0, [r4, #16]
  }
  return 0;
}
   b898a:	b003      	add	sp, #12
   b898c:	e8bd 4030 	ldmia.w	sp!, {r4, r5, lr}
	  return hal_usart_write(_serial, c);
   b8990:	f7ff b980 	b.w	b7c94 <hal_usart_write>
  if (_blocking || hal_usart_available_data_for_write(_serial) > 0) {
   b8994:	7c00      	ldrb	r0, [r0, #16]
   b8996:	9101      	str	r1, [sp, #4]
   b8998:	f7ff f9ac 	bl	b7cf4 <hal_usart_available_data_for_write>
   b899c:	2800      	cmp	r0, #0
   b899e:	9901      	ldr	r1, [sp, #4]
   b89a0:	dcf2      	bgt.n	b8988 <_ZN11USARTSerial5writeEh+0x8>
}
   b89a2:	4628      	mov	r0, r5
   b89a4:	b003      	add	sp, #12
   b89a6:	bd30      	pop	{r4, r5, pc}

000b89a8 <_ZN11USARTSerialD0Ev>:
   b89a8:	b510      	push	{r4, lr}
   b89aa:	2114      	movs	r1, #20
   b89ac:	4604      	mov	r4, r0
   b89ae:	f7fc f82e 	bl	b4a0e <_ZdlPvj>
   b89b2:	4620      	mov	r0, r4
   b89b4:	bd10      	pop	{r4, pc}
	...

000b89b8 <_ZN11USARTSerialC1E21hal_usart_interface_tRK25hal_usart_buffer_config_t>:
USARTSerial::USARTSerial(hal_usart_interface_t serial, const hal_usart_buffer_config_t& config)
   b89b8:	b510      	push	{r4, lr}
   b89ba:	f44f 737a 	mov.w	r3, #1000	; 0x3e8
   b89be:	4604      	mov	r4, r0
   b89c0:	4608      	mov	r0, r1
   b89c2:	4611      	mov	r1, r2
   b89c4:	2200      	movs	r2, #0
   b89c6:	e9c4 2301 	strd	r2, r3, [r4, #4]
   b89ca:	4b04      	ldr	r3, [pc, #16]	; (b89dc <_ZN11USARTSerialC1E21hal_usart_interface_tRK25hal_usart_buffer_config_t+0x24>)
   b89cc:	6023      	str	r3, [r4, #0]
  _blocking = true;
   b89ce:	2301      	movs	r3, #1
  _serial = serial;
   b89d0:	7420      	strb	r0, [r4, #16]
  _blocking = true;
   b89d2:	7463      	strb	r3, [r4, #17]
  hal_usart_init_ex(serial, &config, nullptr);
   b89d4:	f7ff f996 	bl	b7d04 <hal_usart_init_ex>
}
   b89d8:	4620      	mov	r0, r4
   b89da:	bd10      	pop	{r4, pc}
   b89dc:	000d7be8 	.word	0x000d7be8

000b89e0 <_ZN7TwoWireD1Ev>:
private:
  hal_i2c_interface_t _i2c;

public:
  TwoWire(hal_i2c_interface_t i2c, const hal_i2c_config_t& config);
  virtual ~TwoWire() {};
   b89e0:	4770      	bx	lr

000b89e2 <_ZN7TwoWire5writeEPKhj>:

// must be called in:
// slave tx event callback
// or after beginTransmission(address)
size_t TwoWire::write(const uint8_t *data, size_t quantity)
{
   b89e2:	b5f8      	push	{r3, r4, r5, r6, r7, lr}
   b89e4:	4606      	mov	r6, r0
   b89e6:	4615      	mov	r5, r2
   b89e8:	460c      	mov	r4, r1
   b89ea:	188f      	adds	r7, r1, r2
  // in master/slave transmitter mode
  for(size_t i = 0; i < quantity; ++i)
   b89ec:	42bc      	cmp	r4, r7
   b89ee:	d006      	beq.n	b89fe <_ZN7TwoWire5writeEPKhj+0x1c>
  {
    write(data[i]);
   b89f0:	6833      	ldr	r3, [r6, #0]
   b89f2:	f814 1b01 	ldrb.w	r1, [r4], #1
   b89f6:	689b      	ldr	r3, [r3, #8]
   b89f8:	4630      	mov	r0, r6
   b89fa:	4798      	blx	r3
  for(size_t i = 0; i < quantity; ++i)
   b89fc:	e7f6      	b.n	b89ec <_ZN7TwoWire5writeEPKhj+0xa>
  }

  return quantity;
}
   b89fe:	4628      	mov	r0, r5
   b8a00:	bdf8      	pop	{r3, r4, r5, r6, r7, pc}

000b8a02 <_ZN7TwoWire5writeEh>:
  return hal_i2c_write(_i2c, data, NULL);
   b8a02:	7c00      	ldrb	r0, [r0, #16]
   b8a04:	2200      	movs	r2, #0
   b8a06:	f7ff b985 	b.w	b7d14 <hal_i2c_write>

000b8a0a <_ZN7TwoWire9availableEv>:
// must be called in:
// slave rx event callback
// or after requestFrom(address, numBytes)
int TwoWire::available(void)
{
  return hal_i2c_available(_i2c, NULL);
   b8a0a:	7c00      	ldrb	r0, [r0, #16]
   b8a0c:	2100      	movs	r1, #0
   b8a0e:	f7ff b989 	b.w	b7d24 <hal_i2c_available>

000b8a12 <_ZN7TwoWire4readEv>:
// must be called in:
// slave rx event callback
// or after requestFrom(address, numBytes)
int TwoWire::read(void)
{
  return hal_i2c_read(_i2c, NULL);
   b8a12:	7c00      	ldrb	r0, [r0, #16]
   b8a14:	2100      	movs	r1, #0
   b8a16:	f7ff b98d 	b.w	b7d34 <hal_i2c_read>

000b8a1a <_ZN7TwoWire4peekEv>:
// must be called in:
// slave rx event callback
// or after requestFrom(address, numBytes)
int TwoWire::peek(void)
{
  return hal_i2c_peek(_i2c, NULL);
   b8a1a:	7c00      	ldrb	r0, [r0, #16]
   b8a1c:	2100      	movs	r1, #0
   b8a1e:	f7ff b991 	b.w	b7d44 <hal_i2c_peek>

000b8a22 <_ZN7TwoWire5flushEv>:
}

void TwoWire::flush(void)
{
  hal_i2c_flush(_i2c, NULL);
   b8a22:	7c00      	ldrb	r0, [r0, #16]
   b8a24:	2100      	movs	r1, #0
   b8a26:	f7ff b995 	b.w	b7d54 <hal_i2c_flush>

000b8a2a <_ZN7TwoWireD0Ev>:
   b8a2a:	b510      	push	{r4, lr}
   b8a2c:	2114      	movs	r1, #20
   b8a2e:	4604      	mov	r4, r0
   b8a30:	f7fb ffed 	bl	b4a0e <_ZdlPvj>
   b8a34:	4620      	mov	r0, r4
   b8a36:	bd10      	pop	{r4, pc}

000b8a38 <_ZN7TwoWireC1E19hal_i2c_interface_tRK16hal_i2c_config_t>:
TwoWire::TwoWire(hal_i2c_interface_t i2c, const hal_i2c_config_t& conf)
   b8a38:	b538      	push	{r3, r4, r5, lr}
   b8a3a:	4604      	mov	r4, r0
   b8a3c:	4615      	mov	r5, r2
   b8a3e:	f44f 737a 	mov.w	r3, #1000	; 0x3e8
   b8a42:	2200      	movs	r2, #0
   b8a44:	e9c4 2301 	strd	r2, r3, [r4, #4]
   b8a48:	4b09      	ldr	r3, [pc, #36]	; (b8a70 <_ZN7TwoWireC1E19hal_i2c_interface_tRK16hal_i2c_config_t+0x38>)
  _i2c = i2c;
   b8a4a:	7421      	strb	r1, [r4, #16]
TwoWire::TwoWire(hal_i2c_interface_t i2c, const hal_i2c_config_t& conf)
   b8a4c:	4608      	mov	r0, r1
   b8a4e:	6023      	str	r3, [r4, #0]
  int result = hal_i2c_init(_i2c, &conf);
   b8a50:	4629      	mov	r1, r5
   b8a52:	f7ff f98f 	bl	b7d74 <hal_i2c_init>
  if (result == SYSTEM_ERROR_NOT_ENOUGH_DATA && 
   b8a56:	30bf      	adds	r0, #191	; 0xbf
   b8a58:	d108      	bne.n	b8a6c <_ZN7TwoWireC1E19hal_i2c_interface_tRK16hal_i2c_config_t+0x34>
      (conf.flags & HAL_I2C_CONFIG_FLAG_FREEABLE)) {
   b8a5a:	696b      	ldr	r3, [r5, #20]
  if (result == SYSTEM_ERROR_NOT_ENOUGH_DATA && 
   b8a5c:	07db      	lsls	r3, r3, #31
   b8a5e:	d505      	bpl.n	b8a6c <_ZN7TwoWireC1E19hal_i2c_interface_tRK16hal_i2c_config_t+0x34>
    free(conf.rx_buffer);
   b8a60:	6868      	ldr	r0, [r5, #4]
   b8a62:	f7ff fac3 	bl	b7fec <free>
    free(conf.tx_buffer);
   b8a66:	68e8      	ldr	r0, [r5, #12]
   b8a68:	f7ff fac0 	bl	b7fec <free>
}
   b8a6c:	4620      	mov	r0, r4
   b8a6e:	bd38      	pop	{r3, r4, r5, pc}
   b8a70:	000d7c18 	.word	0x000d7c18

000b8a74 <_ZN5spark12NetworkClass7connectEj>:
        return Network;
    }
}

void NetworkClass::connect(unsigned flags) {
    network_connect(*this, flags, 0, nullptr);
   b8a74:	2300      	movs	r3, #0
   b8a76:	6840      	ldr	r0, [r0, #4]
   b8a78:	461a      	mov	r2, r3
   b8a7a:	f7ff ba37 	b.w	b7eec <network_connect>

000b8a7e <_ZN5spark12NetworkClass10disconnectEv>:
}

void NetworkClass::disconnect() {
    network_disconnect(*this, NETWORK_DISCONNECT_REASON_USER, nullptr);
   b8a7e:	6840      	ldr	r0, [r0, #4]
   b8a80:	2200      	movs	r2, #0
   b8a82:	2102      	movs	r1, #2
   b8a84:	f7ff ba42 	b.w	b7f0c <network_disconnect>

000b8a88 <_ZN5spark12NetworkClass10connectingEv>:
}

bool NetworkClass::connecting() {
    return network_connecting(*this, 0, nullptr);
   b8a88:	2200      	movs	r2, #0
   b8a8a:	6840      	ldr	r0, [r0, #4]
   b8a8c:	4611      	mov	r1, r2
   b8a8e:	f7ff ba35 	b.w	b7efc <network_connecting>

000b8a92 <_ZN5spark12NetworkClass5readyEv>:
}

bool NetworkClass::ready() {
    return network_ready(*this, 0, nullptr);
   b8a92:	2200      	movs	r2, #0
   b8a94:	6840      	ldr	r0, [r0, #4]
   b8a96:	4611      	mov	r1, r2
   b8a98:	f7ff ba40 	b.w	b7f1c <network_ready>

000b8a9c <_ZN5spark12NetworkClass2onEv>:
}

void NetworkClass::on() {
    network_on(*this, 0, 0, nullptr);
   b8a9c:	2300      	movs	r3, #0
   b8a9e:	6840      	ldr	r0, [r0, #4]
   b8aa0:	461a      	mov	r2, r3
   b8aa2:	4619      	mov	r1, r3
   b8aa4:	f7ff ba42 	b.w	b7f2c <network_on>

000b8aa8 <_ZN5spark12NetworkClass3offEv>:
}

void NetworkClass::off() {
    network_off(*this, 0, 0, nullptr);
   b8aa8:	2300      	movs	r3, #0
   b8aaa:	6840      	ldr	r0, [r0, #4]
   b8aac:	461a      	mov	r2, r3
   b8aae:	4619      	mov	r1, r3
   b8ab0:	f7ff ba44 	b.w	b7f3c <network_off>

000b8ab4 <_ZN5spark12NetworkClass4isOnEv>:
}

bool NetworkClass::isOn() {
    return network_is_on(*this, nullptr);
   b8ab4:	6840      	ldr	r0, [r0, #4]
   b8ab6:	2100      	movs	r1, #0
   b8ab8:	f7ff ba68 	b.w	b7f8c <network_is_on>

000b8abc <_ZN5spark12NetworkClass5isOffEv>:
}

bool NetworkClass::isOff() {
    return network_is_off(*this, nullptr);
   b8abc:	6840      	ldr	r0, [r0, #4]
   b8abe:	2100      	movs	r1, #0
   b8ac0:	f7ff ba6c 	b.w	b7f9c <network_is_off>

000b8ac4 <_ZN5spark12NetworkClass6listenEb>:
}

void NetworkClass::listen(bool begin) {
    network_listen(*this, begin ? 0 : 1, nullptr);
   b8ac4:	6840      	ldr	r0, [r0, #4]
   b8ac6:	2200      	movs	r2, #0
   b8ac8:	f081 0101 	eor.w	r1, r1, #1
   b8acc:	f7ff ba3e 	b.w	b7f4c <network_listen>

000b8ad0 <_ZN5spark12NetworkClass16setListenTimeoutEt>:
}

void NetworkClass::setListenTimeout(uint16_t timeout) {
    network_set_listen_timeout(*this, timeout, nullptr);
   b8ad0:	6840      	ldr	r0, [r0, #4]
   b8ad2:	2200      	movs	r2, #0
   b8ad4:	f7ff ba4a 	b.w	b7f6c <network_set_listen_timeout>

000b8ad8 <_ZN5spark12NetworkClass16getListenTimeoutEv>:
}

uint16_t NetworkClass::getListenTimeout() {
    return network_get_listen_timeout(*this, 0, nullptr);
   b8ad8:	2200      	movs	r2, #0
   b8ada:	6840      	ldr	r0, [r0, #4]
   b8adc:	4611      	mov	r1, r2
   b8ade:	f7ff ba4d 	b.w	b7f7c <network_get_listen_timeout>

000b8ae2 <_ZN5spark12NetworkClass9listeningEv>:
}

bool NetworkClass::listening() {
    return network_listening(*this, 0, nullptr);
   b8ae2:	2200      	movs	r2, #0
   b8ae4:	6840      	ldr	r0, [r0, #4]
   b8ae6:	4611      	mov	r1, r2
   b8ae8:	f7ff ba38 	b.w	b7f5c <network_listening>

000b8aec <_ZN5spark12NetworkClass11isPreferredEv>:
    network_handle_t network = network_prefer(*this, prefer, nullptr);
    return Network.from(network);
}

bool NetworkClass::isPreferred() {
    return network_is_preferred(*this, nullptr);
   b8aec:	6840      	ldr	r0, [r0, #4]
   b8aee:	2100      	movs	r1, #0
   b8af0:	f7ff ba64 	b.w	b7fbc <network_is_preferred>

000b8af4 <_ZN5spark12NetworkClass7resolveEPKc>:
}

IPAddress NetworkClass::resolve(const char* name) {
   b8af4:	e92d 43f0 	stmdb	sp!, {r4, r5, r6, r7, r8, r9, lr}
   b8af8:	b095      	sub	sp, #84	; 0x54
   b8afa:	4614      	mov	r4, r2
   b8afc:	460d      	mov	r5, r1
   b8afe:	4607      	mov	r7, r0
    IPAddress addr;
   b8b00:	f7ff fe0e 	bl	b8720 <_ZN9IPAddressC1Ev>
#if HAL_USE_INET_HAL_POSIX
    struct addrinfo *ai = nullptr;
   b8b04:	2100      	movs	r1, #0
    struct addrinfo hints = {};
   b8b06:	221c      	movs	r2, #28
   b8b08:	a80d      	add	r0, sp, #52	; 0x34
    struct addrinfo *ai = nullptr;
   b8b0a:	9100      	str	r1, [sp, #0]
    struct addrinfo hints = {};
   b8b0c:	f000 f994 	bl	b8e38 <memset>
    hints.ai_flags = AI_ADDRCONFIG;
   b8b10:	2340      	movs	r3, #64	; 0x40
   b8b12:	930c      	str	r3, [sp, #48]	; 0x30
    hints.ai_family = AF_UNSPEC;
    const int r = getaddrinfo(name, nullptr, &hints, &ai);
   b8b14:	4620      	mov	r0, r4
   b8b16:	466b      	mov	r3, sp
   b8b18:	aa0c      	add	r2, sp, #48	; 0x30
   b8b1a:	2100      	movs	r1, #0
   b8b1c:	f7ff f862 	bl	b7be4 <netdb_getaddrinfo>
    if (!r) {
   b8b20:	4604      	mov	r4, r0
   b8b22:	2800      	cmp	r0, #0
   b8b24:	d14b      	bne.n	b8bbe <_ZN5spark12NetworkClass7resolveEPKc+0xca>
        bool ok = false;
        // This is not really needed if AI_ADDRCONFIG is properly supported
        bool ipv4 = network_ready(*this, NETWORK_READY_TYPE_IPV4, nullptr);
   b8b26:	4602      	mov	r2, r0
   b8b28:	2101      	movs	r1, #1
   b8b2a:	6868      	ldr	r0, [r5, #4]
   b8b2c:	f7ff f9f6 	bl	b7f1c <network_ready>
        bool ipv6 = network_ready(*this, NETWORK_READY_TYPE_IPV6, nullptr);
   b8b30:	2102      	movs	r1, #2
        bool ipv4 = network_ready(*this, NETWORK_READY_TYPE_IPV4, nullptr);
   b8b32:	4680      	mov	r8, r0
        bool ipv6 = network_ready(*this, NETWORK_READY_TYPE_IPV6, nullptr);
   b8b34:	4622      	mov	r2, r4
   b8b36:	6868      	ldr	r0, [r5, #4]
   b8b38:	f7ff f9f0 	bl	b7f1c <network_ready>
        for (auto cur = ai; cur != nullptr && !ok; cur = cur->ai_next) {
   b8b3c:	9e00      	ldr	r6, [sp, #0]
        bool ipv6 = network_ready(*this, NETWORK_READY_TYPE_IPV6, nullptr);
   b8b3e:	4681      	mov	r9, r0
        bool ok = false;
   b8b40:	4621      	mov	r1, r4
        for (auto cur = ai; cur != nullptr && !ok; cur = cur->ai_next) {
   b8b42:	2e00      	cmp	r6, #0
   b8b44:	d03b      	beq.n	b8bbe <_ZN5spark12NetworkClass7resolveEPKc+0xca>
   b8b46:	2900      	cmp	r1, #0
   b8b48:	d139      	bne.n	b8bbe <_ZN5spark12NetworkClass7resolveEPKc+0xca>
            // NOTE: using only the first entry that matches the current state of IPv4/IPv6 connectivity
            switch (cur->ai_family) {
   b8b4a:	6873      	ldr	r3, [r6, #4]
   b8b4c:	2b02      	cmp	r3, #2
   b8b4e:	d003      	beq.n	b8b58 <_ZN5spark12NetworkClass7resolveEPKc+0x64>
   b8b50:	2b0a      	cmp	r3, #10
   b8b52:	d011      	beq.n	b8b78 <_ZN5spark12NetworkClass7resolveEPKc+0x84>
        for (auto cur = ai; cur != nullptr && !ok; cur = cur->ai_next) {
   b8b54:	69f6      	ldr	r6, [r6, #28]
   b8b56:	e7f4      	b.n	b8b42 <_ZN5spark12NetworkClass7resolveEPKc+0x4e>
                case AF_INET: {
                    if (!ipv4) {
   b8b58:	f1b8 0f00 	cmp.w	r8, #0
   b8b5c:	d0fa      	beq.n	b8b54 <_ZN5spark12NetworkClass7resolveEPKc+0x60>
                        continue;
                    }
                    // NOTE: HAL_IPAddress is little-endian
                    auto in = (struct sockaddr_in*)cur->ai_addr;
                    addr = (const uint8_t*)(&in->sin_addr.s_addr);
   b8b5e:	6971      	ldr	r1, [r6, #20]
        return *this = IPAddress(address);
   b8b60:	a806      	add	r0, sp, #24
   b8b62:	3104      	adds	r1, #4
class IPAddress : public Printable {
   b8b64:	ad07      	add	r5, sp, #28
        return *this = IPAddress(address);
   b8b66:	f7ff fe09 	bl	b877c <_ZN9IPAddressC1EPKh>
class IPAddress : public Printable {
   b8b6a:	cd0f      	ldmia	r5!, {r0, r1, r2, r3}
   b8b6c:	1d3c      	adds	r4, r7, #4
   b8b6e:	c40f      	stmia	r4!, {r0, r1, r2, r3}
   b8b70:	682b      	ldr	r3, [r5, #0]
   b8b72:	7023      	strb	r3, [r4, #0]
                    ok = true;
   b8b74:	4641      	mov	r1, r8
        return *this = IPAddress(address);
   b8b76:	e7ed      	b.n	b8b54 <_ZN5spark12NetworkClass7resolveEPKc+0x60>
                    break;
                }
                case AF_INET6: {
                    if (!ipv6) {
   b8b78:	f1b9 0f00 	cmp.w	r9, #0
   b8b7c:	d0ea      	beq.n	b8b54 <_ZN5spark12NetworkClass7resolveEPKc+0x60>
                        continue;
                    }
                    auto in6 = (struct sockaddr_in6*)cur->ai_addr;
   b8b7e:	6974      	ldr	r4, [r6, #20]
                    HAL_IPAddress a = {};
   b8b80:	2210      	movs	r2, #16
   b8b82:	a801      	add	r0, sp, #4
   b8b84:	f000 f958 	bl	b8e38 <memset>
                    a.v = 6;
   b8b88:	2306      	movs	r3, #6
   b8b8a:	f88d 3014 	strb.w	r3, [sp, #20]
                    memcpy(a.ipv6, in6->sin6_addr.s6_addr, sizeof(a.ipv6));
   b8b8e:	ad01      	add	r5, sp, #4
   b8b90:	f104 0308 	add.w	r3, r4, #8
   b8b94:	3418      	adds	r4, #24
   b8b96:	6818      	ldr	r0, [r3, #0]
   b8b98:	6859      	ldr	r1, [r3, #4]
   b8b9a:	462a      	mov	r2, r5
   b8b9c:	c203      	stmia	r2!, {r0, r1}
   b8b9e:	3308      	adds	r3, #8
   b8ba0:	42a3      	cmp	r3, r4
   b8ba2:	4615      	mov	r5, r2
   b8ba4:	d1f7      	bne.n	b8b96 <_ZN5spark12NetworkClass7resolveEPKc+0xa2>
                    addr = IPAddress(a);
   b8ba6:	a901      	add	r1, sp, #4
   b8ba8:	a806      	add	r0, sp, #24
class IPAddress : public Printable {
   b8baa:	ad07      	add	r5, sp, #28
   b8bac:	f7ff fdc6 	bl	b873c <_ZN9IPAddressC1ERK16_HAL_IPAddress_t>
   b8bb0:	cd0f      	ldmia	r5!, {r0, r1, r2, r3}
   b8bb2:	1d3c      	adds	r4, r7, #4
   b8bb4:	c40f      	stmia	r4!, {r0, r1, r2, r3}
   b8bb6:	682b      	ldr	r3, [r5, #0]
   b8bb8:	7023      	strb	r3, [r4, #0]
                    ok = true;
   b8bba:	4649      	mov	r1, r9
   b8bbc:	e7ca      	b.n	b8b54 <_ZN5spark12NetworkClass7resolveEPKc+0x60>
                    break;
                }
            }
        }
    }
    freeaddrinfo(ai);
   b8bbe:	9800      	ldr	r0, [sp, #0]
   b8bc0:	f7ff f808 	bl	b7bd4 <netdb_freeaddrinfo>
    return Cellular.resolve(name);
#endif // Wiring_Cellular

#endif // HAL_USE_INET_HAL_POSIX
    return addr;
}
   b8bc4:	4638      	mov	r0, r7
   b8bc6:	b015      	add	sp, #84	; 0x54
   b8bc8:	e8bd 83f0 	ldmia.w	sp!, {r4, r5, r6, r7, r8, r9, pc}

000b8bcc <_ZN5spark12NetworkClass4fromEm>:
    switch (nif) {
   b8bcc:	2803      	cmp	r0, #3
NetworkClass& NetworkClass::from(network_interface_t nif) {
   b8bce:	4602      	mov	r2, r0
    switch (nif) {
   b8bd0:	d005      	beq.n	b8bde <_ZN5spark12NetworkClass4fromEm+0x12>
   b8bd2:	4b04      	ldr	r3, [pc, #16]	; (b8be4 <_ZN5spark12NetworkClass4fromEm+0x18>)
   b8bd4:	4804      	ldr	r0, [pc, #16]	; (b8be8 <_ZN5spark12NetworkClass4fromEm+0x1c>)
   b8bd6:	2a04      	cmp	r2, #4
   b8bd8:	bf18      	it	ne
   b8bda:	4618      	movne	r0, r3
   b8bdc:	4770      	bx	lr
        return Ethernet;
   b8bde:	4803      	ldr	r0, [pc, #12]	; (b8bec <_ZN5spark12NetworkClass4fromEm+0x20>)
}
   b8be0:	4770      	bx	lr
   b8be2:	bf00      	nop
   b8be4:	2003e72c 	.word	0x2003e72c
   b8be8:	2003e6fc 	.word	0x2003e6fc
   b8bec:	2003e6a8 	.word	0x2003e6a8

000b8bf0 <_ZN5spark12NetworkClass6preferEb>:
NetworkClass& NetworkClass::prefer(bool prefer) {
   b8bf0:	b508      	push	{r3, lr}
    network_handle_t network = network_prefer(*this, prefer, nullptr);
   b8bf2:	2200      	movs	r2, #0
   b8bf4:	6840      	ldr	r0, [r0, #4]
   b8bf6:	f7ff f9d9 	bl	b7fac <network_prefer>
}
   b8bfa:	e8bd 4008 	ldmia.w	sp!, {r3, lr}
    return Network.from(network);
   b8bfe:	f7ff bfe5 	b.w	b8bcc <_ZN5spark12NetworkClass4fromEm>
	...

000b8c04 <_GLOBAL__sub_I__ZN5spark7NetworkE>:
   b8c04:	4b02      	ldr	r3, [pc, #8]	; (b8c10 <_GLOBAL__sub_I__ZN5spark7NetworkE+0xc>)
   b8c06:	4a03      	ldr	r2, [pc, #12]	; (b8c14 <_GLOBAL__sub_I__ZN5spark7NetworkE+0x10>)
   b8c08:	601a      	str	r2, [r3, #0]
   b8c0a:	2200      	movs	r2, #0
   b8c0c:	605a      	str	r2, [r3, #4]
    network_free_configuration(c, count, nullptr);
    return res;
}
#endif // HAL_USE_SOCKET_HAL_POSIX

} // spark
   b8c0e:	4770      	bx	lr
   b8c10:	2003e72c 	.word	0x2003e72c
   b8c14:	000d7c40 	.word	0x000d7c40

000b8c18 <pinAvailable>:
/*
 * @brief Perform safety check on desired pin to see if it's already
 * being used.  Return 0 if used, otherwise return 1 if available.
 */
bool pinAvailable(uint16_t pin) {
  if (pin >= TOTAL_PINS) {
   b8c18:	2825      	cmp	r0, #37	; 0x25
bool pinAvailable(uint16_t pin) {
   b8c1a:	b513      	push	{r0, r1, r4, lr}
  if (pin >= TOTAL_PINS) {
   b8c1c:	d902      	bls.n	b8c24 <pinAvailable+0xc>
    return false;
   b8c1e:	2000      	movs	r0, #0
    return false; // 'pin' is used
  }
#endif

  return true; // 'pin' is available
}
   b8c20:	b002      	add	sp, #8
   b8c22:	bd10      	pop	{r4, pc}
  if((pin == SCK || pin == MOSI || pin == MISO) && hal_spi_is_enabled(SPI.interface()) == true)
   b8c24:	f1a0 030b 	sub.w	r3, r0, #11
   b8c28:	2b02      	cmp	r3, #2
   b8c2a:	d81a      	bhi.n	b8c62 <pinAvailable+0x4a>

template <hal_spi_interface_t Interface>
class SpiProxy {
public:
    static SPIClass& instance() {
        static SPIClass instance(Interface);
   b8c2c:	4c17      	ldr	r4, [pc, #92]	; (b8c8c <pinAvailable+0x74>)
   b8c2e:	7821      	ldrb	r1, [r4, #0]
   b8c30:	f3bf 8f5b 	dmb	ish
   b8c34:	f011 0101 	ands.w	r1, r1, #1
   b8c38:	d10b      	bne.n	b8c52 <pinAvailable+0x3a>
   b8c3a:	4620      	mov	r0, r4
   b8c3c:	9101      	str	r1, [sp, #4]
   b8c3e:	f7fb fef5 	bl	b4a2c <__cxa_guard_acquire>
   b8c42:	9901      	ldr	r1, [sp, #4]
   b8c44:	b128      	cbz	r0, b8c52 <pinAvailable+0x3a>
   b8c46:	4812      	ldr	r0, [pc, #72]	; (b8c90 <pinAvailable+0x78>)
   b8c48:	f7ff fa34 	bl	b80b4 <_ZN8SPIClassC1E19hal_spi_interface_t>
   b8c4c:	4620      	mov	r0, r4
   b8c4e:	f7fb fef2 	bl	b4a36 <__cxa_guard_release>
   b8c52:	4b0f      	ldr	r3, [pc, #60]	; (b8c90 <pinAvailable+0x78>)
   b8c54:	7818      	ldrb	r0, [r3, #0]
   b8c56:	f7ff f8b5 	bl	b7dc4 <hal_spi_is_enabled>
   b8c5a:	2800      	cmp	r0, #0
   b8c5c:	d1df      	bne.n	b8c1e <pinAvailable+0x6>
  return true; // 'pin' is available
   b8c5e:	2001      	movs	r0, #1
   b8c60:	e7de      	b.n	b8c20 <pinAvailable+0x8>
  if((pin == SCL || pin == SDA) && hal_i2c_is_enabled(Wire.interface(), nullptr) == true)
   b8c62:	2801      	cmp	r0, #1
   b8c64:	d809      	bhi.n	b8c7a <pinAvailable+0x62>
   b8c66:	f000 f8ad 	bl	b8dc4 <_Z19__fetch_global_Wirev>
   b8c6a:	2100      	movs	r1, #0
   b8c6c:	7c00      	ldrb	r0, [r0, #16]
   b8c6e:	f7ff f879 	bl	b7d64 <hal_i2c_is_enabled>
  if((pin == RX || pin == TX) && hal_usart_is_enabled(Serial1.interface()) == true)
   b8c72:	f080 0001 	eor.w	r0, r0, #1
   b8c76:	b2c0      	uxtb	r0, r0
   b8c78:	e7d2      	b.n	b8c20 <pinAvailable+0x8>
   b8c7a:	3809      	subs	r0, #9
   b8c7c:	2801      	cmp	r0, #1
   b8c7e:	d8ee      	bhi.n	b8c5e <pinAvailable+0x46>
   b8c80:	f000 f860 	bl	b8d44 <_Z22__fetch_global_Serial1v>
   b8c84:	7c00      	ldrb	r0, [r0, #16]
   b8c86:	f7ff f82d 	bl	b7ce4 <hal_usart_is_enabled>
   b8c8a:	e7f2      	b.n	b8c72 <pinAvailable+0x5a>
   b8c8c:	2003e69c 	.word	0x2003e69c
   b8c90:	2003e6a0 	.word	0x2003e6a0

000b8c94 <pinMode>:
  if(pin >= TOTAL_PINS || setMode == PIN_MODE_NONE )
   b8c94:	2825      	cmp	r0, #37	; 0x25
{
   b8c96:	b538      	push	{r3, r4, r5, lr}
   b8c98:	4604      	mov	r4, r0
   b8c9a:	460d      	mov	r5, r1
  if(pin >= TOTAL_PINS || setMode == PIN_MODE_NONE )
   b8c9c:	d80a      	bhi.n	b8cb4 <pinMode+0x20>
   b8c9e:	29ff      	cmp	r1, #255	; 0xff
   b8ca0:	d008      	beq.n	b8cb4 <pinMode+0x20>
  if( !pinAvailable(pin) ) {
   b8ca2:	f7ff ffb9 	bl	b8c18 <pinAvailable>
   b8ca6:	b128      	cbz	r0, b8cb4 <pinMode+0x20>
  hal_gpio_mode(pin, setMode);
   b8ca8:	4629      	mov	r1, r5
   b8caa:	4620      	mov	r0, r4
}
   b8cac:	e8bd 4038 	ldmia.w	sp!, {r3, r4, r5, lr}
  hal_gpio_mode(pin, setMode);
   b8cb0:	f7fe bfa0 	b.w	b7bf4 <hal_gpio_mode>
}
   b8cb4:	bd38      	pop	{r3, r4, r5, pc}

000b8cb6 <digitalWrite>:

/*
 * @brief Sets a GPIO pin to HIGH or LOW.
 */
void digitalWrite(hal_pin_t pin, uint8_t value)
{
   b8cb6:	b538      	push	{r3, r4, r5, lr}
   b8cb8:	4604      	mov	r4, r0
   b8cba:	460d      	mov	r5, r1
    PinMode mode = hal_gpio_get_mode(pin);
   b8cbc:	f7fe ffa2 	bl	b7c04 <hal_gpio_get_mode>
    if (mode==PIN_MODE_NONE || is_input_mode(mode))
   b8cc0:	28ff      	cmp	r0, #255	; 0xff
   b8cc2:	d010      	beq.n	b8ce6 <digitalWrite+0x30>
            mode == INPUT_PULLDOWN ||
   b8cc4:	2806      	cmp	r0, #6
   b8cc6:	d804      	bhi.n	b8cd2 <digitalWrite+0x1c>
   b8cc8:	234d      	movs	r3, #77	; 0x4d
   b8cca:	fa23 f000 	lsr.w	r0, r3, r0
   b8cce:	07c3      	lsls	r3, r0, #31
   b8cd0:	d409      	bmi.n	b8ce6 <digitalWrite+0x30>
        return;
  // Safety check
  if( !pinAvailable(pin) ) {
   b8cd2:	4620      	mov	r0, r4
   b8cd4:	f7ff ffa0 	bl	b8c18 <pinAvailable>
   b8cd8:	b128      	cbz	r0, b8ce6 <digitalWrite+0x30>
    return;
  }

  hal_gpio_write(pin, value);
   b8cda:	4629      	mov	r1, r5
   b8cdc:	4620      	mov	r0, r4
}
   b8cde:	e8bd 4038 	ldmia.w	sp!, {r3, r4, r5, lr}
  hal_gpio_write(pin, value);
   b8ce2:	f7fe bf97 	b.w	b7c14 <hal_gpio_write>
}
   b8ce6:	bd38      	pop	{r3, r4, r5, pc}

000b8ce8 <digitalRead>:

/*
 * @brief Reads the value of a GPIO pin. Should return either 1 (HIGH) or 0 (LOW).
 */
int32_t digitalRead(hal_pin_t pin)
{
   b8ce8:	b510      	push	{r4, lr}
   b8cea:	4604      	mov	r4, r0
    PinMode mode = hal_gpio_get_mode(pin);
   b8cec:	f7fe ff8a 	bl	b7c04 <hal_gpio_get_mode>
    return mode == AF_OUTPUT_PUSHPULL ||
   b8cf0:	1f03      	subs	r3, r0, #4
    if (is_af_output_mode(mode))
   b8cf2:	b2db      	uxtb	r3, r3
   b8cf4:	2b01      	cmp	r3, #1
   b8cf6:	d908      	bls.n	b8d0a <digitalRead+0x22>
        return LOW;

    // Safety check
    if( !pinAvailable(pin) ) {
   b8cf8:	4620      	mov	r0, r4
   b8cfa:	f7ff ff8d 	bl	b8c18 <pinAvailable>
   b8cfe:	b120      	cbz	r0, b8d0a <digitalRead+0x22>
      return LOW;
    }

    return hal_gpio_read(pin);
   b8d00:	4620      	mov	r0, r4
}
   b8d02:	e8bd 4010 	ldmia.w	sp!, {r4, lr}
    return hal_gpio_read(pin);
   b8d06:	f7fe bf8d 	b.w	b7c24 <hal_gpio_read>
}
   b8d0a:	2000      	movs	r0, #0
   b8d0c:	bd10      	pop	{r4, pc}

000b8d0e <__tcf_0>:
}
#endif

USARTSerial& __fetch_global_Serial1()
{
    static USARTSerial serial1(HAL_USART_SERIAL1, acquireSerial1Buffer());
   b8d0e:	4770      	bx	lr

000b8d10 <_Z20acquireSerial1Bufferv>:
{
   b8d10:	b538      	push	{r3, r4, r5, lr}
   b8d12:	4604      	mov	r4, r0
    hal_usart_buffer_config_t config = {
   b8d14:	2514      	movs	r5, #20
   b8d16:	462a      	mov	r2, r5
   b8d18:	2100      	movs	r1, #0
   b8d1a:	f000 f88d 	bl	b8e38 <memset>
   b8d1e:	8025      	strh	r5, [r4, #0]
   b8d20:	2540      	movs	r5, #64	; 0x40
        .rx_buffer = new (std::nothrow) uint8_t[bufferSize],
   b8d22:	4907      	ldr	r1, [pc, #28]	; (b8d40 <_Z20acquireSerial1Bufferv+0x30>)
    hal_usart_buffer_config_t config = {
   b8d24:	8125      	strh	r5, [r4, #8]
        .rx_buffer = new (std::nothrow) uint8_t[bufferSize],
   b8d26:	4628      	mov	r0, r5
    hal_usart_buffer_config_t config = {
   b8d28:	8225      	strh	r5, [r4, #16]
        .rx_buffer = new (std::nothrow) uint8_t[bufferSize],
   b8d2a:	f000 f86f 	bl	b8e0c <_ZnajRKSt9nothrow_t>
        .tx_buffer = new (std::nothrow) uint8_t[bufferSize],
   b8d2e:	4904      	ldr	r1, [pc, #16]	; (b8d40 <_Z20acquireSerial1Bufferv+0x30>)
    };
   b8d30:	6060      	str	r0, [r4, #4]
        .tx_buffer = new (std::nothrow) uint8_t[bufferSize],
   b8d32:	4628      	mov	r0, r5
   b8d34:	f000 f86a 	bl	b8e0c <_ZnajRKSt9nothrow_t>
    };
   b8d38:	60e0      	str	r0, [r4, #12]
}
   b8d3a:	4620      	mov	r0, r4
   b8d3c:	bd38      	pop	{r3, r4, r5, pc}
   b8d3e:	bf00      	nop
   b8d40:	000d7c7c 	.word	0x000d7c7c

000b8d44 <_Z22__fetch_global_Serial1v>:
{
   b8d44:	b530      	push	{r4, r5, lr}
    static USARTSerial serial1(HAL_USART_SERIAL1, acquireSerial1Buffer());
   b8d46:	4d0e      	ldr	r5, [pc, #56]	; (b8d80 <_Z22__fetch_global_Serial1v+0x3c>)
   b8d48:	7829      	ldrb	r1, [r5, #0]
   b8d4a:	f3bf 8f5b 	dmb	ish
   b8d4e:	f011 0401 	ands.w	r4, r1, #1
{
   b8d52:	b087      	sub	sp, #28
    static USARTSerial serial1(HAL_USART_SERIAL1, acquireSerial1Buffer());
   b8d54:	d111      	bne.n	b8d7a <_Z22__fetch_global_Serial1v+0x36>
   b8d56:	4628      	mov	r0, r5
   b8d58:	f7fb fe68 	bl	b4a2c <__cxa_guard_acquire>
   b8d5c:	b168      	cbz	r0, b8d7a <_Z22__fetch_global_Serial1v+0x36>
   b8d5e:	a801      	add	r0, sp, #4
   b8d60:	f7ff ffd6 	bl	b8d10 <_Z20acquireSerial1Bufferv>
   b8d64:	aa01      	add	r2, sp, #4
   b8d66:	4621      	mov	r1, r4
   b8d68:	4806      	ldr	r0, [pc, #24]	; (b8d84 <_Z22__fetch_global_Serial1v+0x40>)
   b8d6a:	f7ff fe25 	bl	b89b8 <_ZN11USARTSerialC1E21hal_usart_interface_tRK25hal_usart_buffer_config_t>
   b8d6e:	4628      	mov	r0, r5
   b8d70:	f7fb fe61 	bl	b4a36 <__cxa_guard_release>
   b8d74:	4804      	ldr	r0, [pc, #16]	; (b8d88 <_Z22__fetch_global_Serial1v+0x44>)
   b8d76:	f000 f84b 	bl	b8e10 <atexit>
    return serial1;
}
   b8d7a:	4802      	ldr	r0, [pc, #8]	; (b8d84 <_Z22__fetch_global_Serial1v+0x40>)
   b8d7c:	b007      	add	sp, #28
   b8d7e:	bd30      	pop	{r4, r5, pc}
   b8d80:	2003e734 	.word	0x2003e734
   b8d84:	2003e738 	.word	0x2003e738
   b8d88:	000b8d0f 	.word	0x000b8d0f

000b8d8c <__tcf_0>:
}
#endif

TwoWire& __fetch_global_Wire()
{
	static TwoWire wire(HAL_I2C_INTERFACE1, acquireWireBuffer());
   b8d8c:	4770      	bx	lr
	...

000b8d90 <_Z17acquireWireBufferv>:
{
   b8d90:	b538      	push	{r3, r4, r5, lr}
	hal_i2c_config_t config = {
   b8d92:	4b0a      	ldr	r3, [pc, #40]	; (b8dbc <_Z17acquireWireBufferv+0x2c>)
   b8d94:	6003      	str	r3, [r0, #0]
   b8d96:	2301      	movs	r3, #1
{
   b8d98:	4604      	mov	r4, r0
	hal_i2c_config_t config = {
   b8d9a:	6143      	str	r3, [r0, #20]
		.rx_buffer = new (std::nothrow) uint8_t[i2c_buffer_size],
   b8d9c:	4908      	ldr	r1, [pc, #32]	; (b8dc0 <_Z17acquireWireBufferv+0x30>)
   b8d9e:	2020      	movs	r0, #32
   b8da0:	f000 f834 	bl	b8e0c <_ZnajRKSt9nothrow_t>
	};
   b8da4:	2520      	movs	r5, #32
   b8da6:	6060      	str	r0, [r4, #4]
		.tx_buffer = new (std::nothrow) uint8_t[i2c_buffer_size],
   b8da8:	4905      	ldr	r1, [pc, #20]	; (b8dc0 <_Z17acquireWireBufferv+0x30>)
	};
   b8daa:	60a5      	str	r5, [r4, #8]
		.tx_buffer = new (std::nothrow) uint8_t[i2c_buffer_size],
   b8dac:	4628      	mov	r0, r5
   b8dae:	f000 f82d 	bl	b8e0c <_ZnajRKSt9nothrow_t>
	};
   b8db2:	e9c4 0503 	strd	r0, r5, [r4, #12]
}
   b8db6:	4620      	mov	r0, r4
   b8db8:	bd38      	pop	{r3, r4, r5, pc}
   b8dba:	bf00      	nop
   b8dbc:	00010018 	.word	0x00010018
   b8dc0:	000d7c7c 	.word	0x000d7c7c

000b8dc4 <_Z19__fetch_global_Wirev>:
{
   b8dc4:	b530      	push	{r4, r5, lr}
	static TwoWire wire(HAL_I2C_INTERFACE1, acquireWireBuffer());
   b8dc6:	4d0e      	ldr	r5, [pc, #56]	; (b8e00 <_Z19__fetch_global_Wirev+0x3c>)
   b8dc8:	7829      	ldrb	r1, [r5, #0]
   b8dca:	f3bf 8f5b 	dmb	ish
   b8dce:	f011 0401 	ands.w	r4, r1, #1
{
   b8dd2:	b087      	sub	sp, #28
	static TwoWire wire(HAL_I2C_INTERFACE1, acquireWireBuffer());
   b8dd4:	d111      	bne.n	b8dfa <_Z19__fetch_global_Wirev+0x36>
   b8dd6:	4628      	mov	r0, r5
   b8dd8:	f7fb fe28 	bl	b4a2c <__cxa_guard_acquire>
   b8ddc:	b168      	cbz	r0, b8dfa <_Z19__fetch_global_Wirev+0x36>
   b8dde:	4668      	mov	r0, sp
   b8de0:	f7ff ffd6 	bl	b8d90 <_Z17acquireWireBufferv>
   b8de4:	466a      	mov	r2, sp
   b8de6:	4621      	mov	r1, r4
   b8de8:	4806      	ldr	r0, [pc, #24]	; (b8e04 <_Z19__fetch_global_Wirev+0x40>)
   b8dea:	f7ff fe25 	bl	b8a38 <_ZN7TwoWireC1E19hal_i2c_interface_tRK16hal_i2c_config_t>
   b8dee:	4628      	mov	r0, r5
   b8df0:	f7fb fe21 	bl	b4a36 <__cxa_guard_release>
   b8df4:	4804      	ldr	r0, [pc, #16]	; (b8e08 <_Z19__fetch_global_Wirev+0x44>)
   b8df6:	f000 f80b 	bl	b8e10 <atexit>
	return wire;
}
   b8dfa:	4802      	ldr	r0, [pc, #8]	; (b8e04 <_Z19__fetch_global_Wirev+0x40>)
   b8dfc:	b007      	add	sp, #28
   b8dfe:	bd30      	pop	{r4, r5, pc}
   b8e00:	2003e750 	.word	0x2003e750
   b8e04:	2003e754 	.word	0x2003e754
   b8e08:	000b8d8d 	.word	0x000b8d8d

000b8e0c <_ZnajRKSt9nothrow_t>:
   b8e0c:	f7fb bdfd 	b.w	b4a0a <_Znaj>

000b8e10 <atexit>:
   b8e10:	2300      	movs	r3, #0
   b8e12:	4601      	mov	r1, r0
   b8e14:	461a      	mov	r2, r3
   b8e16:	4618      	mov	r0, r3
   b8e18:	f000 b844 	b.w	b8ea4 <__register_exitproc>

000b8e1c <memcpy>:
   b8e1c:	440a      	add	r2, r1
   b8e1e:	4291      	cmp	r1, r2
   b8e20:	f100 33ff 	add.w	r3, r0, #4294967295
   b8e24:	d100      	bne.n	b8e28 <memcpy+0xc>
   b8e26:	4770      	bx	lr
   b8e28:	b510      	push	{r4, lr}
   b8e2a:	f811 4b01 	ldrb.w	r4, [r1], #1
   b8e2e:	f803 4f01 	strb.w	r4, [r3, #1]!
   b8e32:	4291      	cmp	r1, r2
   b8e34:	d1f9      	bne.n	b8e2a <memcpy+0xe>
   b8e36:	bd10      	pop	{r4, pc}

000b8e38 <memset>:
   b8e38:	4402      	add	r2, r0
   b8e3a:	4603      	mov	r3, r0
   b8e3c:	4293      	cmp	r3, r2
   b8e3e:	d100      	bne.n	b8e42 <memset+0xa>
   b8e40:	4770      	bx	lr
   b8e42:	f803 1b01 	strb.w	r1, [r3], #1
   b8e46:	e7f9      	b.n	b8e3c <memset+0x4>

000b8e48 <srand>:
   b8e48:	b538      	push	{r3, r4, r5, lr}
   b8e4a:	4b10      	ldr	r3, [pc, #64]	; (b8e8c <srand+0x44>)
   b8e4c:	681d      	ldr	r5, [r3, #0]
   b8e4e:	6bab      	ldr	r3, [r5, #56]	; 0x38
   b8e50:	4604      	mov	r4, r0
   b8e52:	b9b3      	cbnz	r3, b8e82 <srand+0x3a>
   b8e54:	2018      	movs	r0, #24
   b8e56:	f7ff f8c1 	bl	b7fdc <malloc>
   b8e5a:	4602      	mov	r2, r0
   b8e5c:	63a8      	str	r0, [r5, #56]	; 0x38
   b8e5e:	b920      	cbnz	r0, b8e6a <srand+0x22>
   b8e60:	4b0b      	ldr	r3, [pc, #44]	; (b8e90 <srand+0x48>)
   b8e62:	480c      	ldr	r0, [pc, #48]	; (b8e94 <srand+0x4c>)
   b8e64:	2142      	movs	r1, #66	; 0x42
   b8e66:	f7ff f8d1 	bl	b800c <__assert_func>
   b8e6a:	490b      	ldr	r1, [pc, #44]	; (b8e98 <srand+0x50>)
   b8e6c:	4b0b      	ldr	r3, [pc, #44]	; (b8e9c <srand+0x54>)
   b8e6e:	e9c0 1300 	strd	r1, r3, [r0]
   b8e72:	4b0b      	ldr	r3, [pc, #44]	; (b8ea0 <srand+0x58>)
   b8e74:	6083      	str	r3, [r0, #8]
   b8e76:	230b      	movs	r3, #11
   b8e78:	8183      	strh	r3, [r0, #12]
   b8e7a:	2100      	movs	r1, #0
   b8e7c:	2001      	movs	r0, #1
   b8e7e:	e9c2 0104 	strd	r0, r1, [r2, #16]
   b8e82:	6bab      	ldr	r3, [r5, #56]	; 0x38
   b8e84:	2200      	movs	r2, #0
   b8e86:	611c      	str	r4, [r3, #16]
   b8e88:	615a      	str	r2, [r3, #20]
   b8e8a:	bd38      	pop	{r3, r4, r5, pc}
   b8e8c:	20037074 	.word	0x20037074
   b8e90:	000d7c7d 	.word	0x000d7c7d
   b8e94:	000d7c94 	.word	0x000d7c94
   b8e98:	abcd330e 	.word	0xabcd330e
   b8e9c:	e66d1234 	.word	0xe66d1234
   b8ea0:	0005deec 	.word	0x0005deec

000b8ea4 <__register_exitproc>:
   b8ea4:	e92d 43f8 	stmdb	sp!, {r3, r4, r5, r6, r7, r8, r9, lr}
   b8ea8:	f8df 80b8 	ldr.w	r8, [pc, #184]	; b8f64 <__register_exitproc+0xc0>
   b8eac:	4606      	mov	r6, r0
   b8eae:	f8d8 0000 	ldr.w	r0, [r8]
   b8eb2:	461f      	mov	r7, r3
   b8eb4:	460d      	mov	r5, r1
   b8eb6:	4691      	mov	r9, r2
   b8eb8:	f000 f856 	bl	b8f68 <__retarget_lock_acquire_recursive>
   b8ebc:	4b25      	ldr	r3, [pc, #148]	; (b8f54 <__register_exitproc+0xb0>)
   b8ebe:	681c      	ldr	r4, [r3, #0]
   b8ec0:	b934      	cbnz	r4, b8ed0 <__register_exitproc+0x2c>
   b8ec2:	4c25      	ldr	r4, [pc, #148]	; (b8f58 <__register_exitproc+0xb4>)
   b8ec4:	601c      	str	r4, [r3, #0]
   b8ec6:	4b25      	ldr	r3, [pc, #148]	; (b8f5c <__register_exitproc+0xb8>)
   b8ec8:	b113      	cbz	r3, b8ed0 <__register_exitproc+0x2c>
   b8eca:	681b      	ldr	r3, [r3, #0]
   b8ecc:	f8c4 3088 	str.w	r3, [r4, #136]	; 0x88
   b8ed0:	6863      	ldr	r3, [r4, #4]
   b8ed2:	2b1f      	cmp	r3, #31
   b8ed4:	dd07      	ble.n	b8ee6 <__register_exitproc+0x42>
   b8ed6:	f8d8 0000 	ldr.w	r0, [r8]
   b8eda:	f000 f847 	bl	b8f6c <__retarget_lock_release_recursive>
   b8ede:	f04f 30ff 	mov.w	r0, #4294967295
   b8ee2:	e8bd 83f8 	ldmia.w	sp!, {r3, r4, r5, r6, r7, r8, r9, pc}
   b8ee6:	b34e      	cbz	r6, b8f3c <__register_exitproc+0x98>
   b8ee8:	f8d4 0088 	ldr.w	r0, [r4, #136]	; 0x88
   b8eec:	b988      	cbnz	r0, b8f12 <__register_exitproc+0x6e>
   b8eee:	4b1c      	ldr	r3, [pc, #112]	; (b8f60 <__register_exitproc+0xbc>)
   b8ef0:	b923      	cbnz	r3, b8efc <__register_exitproc+0x58>
   b8ef2:	f8d8 0000 	ldr.w	r0, [r8]
   b8ef6:	f000 f838 	bl	b8f6a <__retarget_lock_release>
   b8efa:	e7f0      	b.n	b8ede <__register_exitproc+0x3a>
   b8efc:	f44f 7084 	mov.w	r0, #264	; 0x108
   b8f00:	f7ff f86c 	bl	b7fdc <malloc>
   b8f04:	2800      	cmp	r0, #0
   b8f06:	d0f4      	beq.n	b8ef2 <__register_exitproc+0x4e>
   b8f08:	2300      	movs	r3, #0
   b8f0a:	e9c0 3340 	strd	r3, r3, [r0, #256]	; 0x100
   b8f0e:	f8c4 0088 	str.w	r0, [r4, #136]	; 0x88
   b8f12:	6863      	ldr	r3, [r4, #4]
   b8f14:	f840 9023 	str.w	r9, [r0, r3, lsl #2]
   b8f18:	2201      	movs	r2, #1
   b8f1a:	409a      	lsls	r2, r3
   b8f1c:	eb00 0183 	add.w	r1, r0, r3, lsl #2
   b8f20:	f8d0 3100 	ldr.w	r3, [r0, #256]	; 0x100
   b8f24:	4313      	orrs	r3, r2
   b8f26:	f8c0 3100 	str.w	r3, [r0, #256]	; 0x100
   b8f2a:	2e02      	cmp	r6, #2
   b8f2c:	f8c1 7080 	str.w	r7, [r1, #128]	; 0x80
   b8f30:	bf02      	ittt	eq
   b8f32:	f8d0 3104 	ldreq.w	r3, [r0, #260]	; 0x104
   b8f36:	4313      	orreq	r3, r2
   b8f38:	f8c0 3104 	streq.w	r3, [r0, #260]	; 0x104
   b8f3c:	6863      	ldr	r3, [r4, #4]
   b8f3e:	f8d8 0000 	ldr.w	r0, [r8]
   b8f42:	1c5a      	adds	r2, r3, #1
   b8f44:	3302      	adds	r3, #2
   b8f46:	6062      	str	r2, [r4, #4]
   b8f48:	f844 5023 	str.w	r5, [r4, r3, lsl #2]
   b8f4c:	f000 f80e 	bl	b8f6c <__retarget_lock_release_recursive>
   b8f50:	2000      	movs	r0, #0
   b8f52:	e7c6      	b.n	b8ee2 <__register_exitproc+0x3e>
   b8f54:	2003e7f4 	.word	0x2003e7f4
   b8f58:	2003e768 	.word	0x2003e768
   b8f5c:	00000000 	.word	0x00000000
   b8f60:	000b7fdd 	.word	0x000b7fdd
   b8f64:	200370d8 	.word	0x200370d8

000b8f68 <__retarget_lock_acquire_recursive>:
   b8f68:	4770      	bx	lr

000b8f6a <__retarget_lock_release>:
   b8f6a:	4770      	bx	lr

000b8f6c <__retarget_lock_release_recursive>:
   b8f6c:	4770      	bx	lr

000b8f6e <link_code_end>:
	...

000b8f70 <link_const_data_start>:
   b8f70:	000cbc68 	.word	0x000cbc68
   b8f74:	000c0ca0 	.word	0x000c0ca0
   b8f78:	000cf700 	.word	0x000cf700
   b8f7c:	000c4738 	.word	0x000c4738
   b8f80:	000d3198 	.word	0x000d3198
   b8f84:	000c81d0 	.word	0x000c81d0

000b8f88 <dynalib_user>:
   b8f88:	000b4995 000b49d1 000b49f9 000b49fd     .I...I...I...I..
   b8f98:	00000000 6c6c6143 206e6f20 65727570     ....Call on pure
   b8fa8:	72697620 6c617574 6c756600 6373206c      virtual.full sc
   b8fb8:	6e656572 64707520 00657461 74736166     reen update.fast
   b8fc8:	72617020 6c616974 646f6d20 6c730065      partial mode.sl
   b8fd8:	7020776f 69747261 6d206c61 0065646f     ow partial mode.
   b8fe8:	70206f6e 69747261 6d206c61 0065646f     no partial mode.
   b8ff8:	23222120 27262524 2b2a2928 2f2e2d2c      !"#$%&'()*+,-./
   b9008:	32313000 36353433 3a393837 3e3d3c3b     .0123456789:;<=>
   b9018:	4140003f 45444342 49484746 4d4c4b4a     ?.@ABCDEFGHIJKLM
   b9028:	50004f4e 54535251 58575655 5c5b5a59     NO.PQRSTUVWXYZ[\
   b9038:	005f5e5d 63626160 67666564 6b6a6968     ]^_.`abcdefghijk
   b9048:	6f6e6d6c 72717000 76757473 7a797877     lmno.pqrstuvwxyz
   b9058:	7e7d7c7b                                 {|}~ .

000b905e <_ZL10HelloWorld>:
   b905e:	6c6c6548 6f57206f 21646c72               Hello World!.

000b906b <_ZL11HelloEpaper>:
   b906b:	6c6c6548 2d45206f 65706150               Hello E-Paper!.

000b907a <_ZL12HelloArduino>:
   b907a:	6c6c6548 7241206f 6e697564 0000216f     Hello Arduino!..
	...

000b908c <_ZL17FreeMonoBold9pt7b>:
   b908c:	000b9390 000b9098 00127e20              ........ ~..

000b9098 <_ZL23FreeMonoBold9pt7bGlyphs>:
   b9098:	00000000 0001000b 0b030000 00f6040b     ................
   b90a8:	05070005 00f6020b 0c08000a 00f6010b     ................
   b90b8:	0e070016 00f5020b 0b070023 00f6020b     ........#.......
   b90c8:	0a08002d 00f7010b 05030037 00f6040b     -.......7.......
   b90d8:	0e040039 00f6050b 0e040040 00f6020b     9.......@.......
   b90e8:	07080047 00f6020b 0908004e 00f8020b     G.......N.......
   b90f8:	05030057 00ff030b 02090059 00fb010b     W.......Y.......
   b9108:	0202005c 00ff040b 0f07005d 00f4020b     \.......].......
   b9118:	0c07006b 00f5020b 0b070076 00f6020b     k.......v.......
   b9128:	0c080080 00f5010b 0c08008c 00f5020b     ................
   b9138:	0a070098 00f7020b 0b0900a1 00f6010b     ................
   b9148:	0c0800ae 00f5020b 0b0800ba 00f6010b     ................
   b9158:	0c0700c5 00f5020b 0c0800d0 00f5020b     ................
   b9168:	080200dc 00f9040b 0b0300de 00f9030b     ................
   b9178:	080900e3 00f8010b 060900ec 00f9010b     ................
   b9188:	080900f3 00f8010b 0b0800fc 00f6020b     ................
   b9198:	0f090107 00f5010b 0b0b0118 00f6000b     ................
   b91a8:	0b0a0128 00f6010b 0b090136 00f6010b     (.......6.......
   b91b8:	0b0a0143 00f6000b 0b090151 00f6010b     C.......Q.......
   b91c8:	0b09015e 00f6010b 0b0a016b 00f6010b     ^.......k.......
   b91d8:	0b090179 00f6010b 0b060186 00f6030b     y...............
   b91e8:	0b0a018f 00f6010b 0b0a019d 00f6010b     ................
   b91f8:	0b0901ab 00f6010b 0b0b01b8 00f6000b     ................
   b9208:	0b0b01c8 00f6000b 0b0b01d8 00f6000b     ................
   b9218:	0b0901e8 00f6010b 0e0b01f5 00f6000b     ................
   b9228:	0b090209 00f6010b 0b090216 00f6010b     ................
   b9238:	0b090223 00f6010b 0b0b0230 00f6000b     #.......0.......
   b9248:	0b0b0240 00f6000b 0b0a0250 00f6000b     @.......P.......
   b9258:	0b0a025e 00f6000b 0b0a026c 00f6000b     ^.......l.......
   b9268:	0b08027a 00f6020b 0e040285 00f6050b     z...............
   b9278:	0f07028c 00f4020b 0e04029a 00f6020b     ................
   b9288:	060702a1 00f5020b 020b02a7 0003000b     ................
   b9298:	030302aa 00f5030b 080902ac 00f9010b     ................
   b92a8:	0b0a02b5 00f6000b 080902c3 00f9010b     ................
   b92b8:	0b0a02cc 00f6010b 080902da 00f9010b     ................
   b92c8:	0b0802e3 00f6020b 0c0902ee 00f9010b     ................
   b92d8:	0b0902fc 00f6010b 0b080309 00f6020b     ................
   b92e8:	0f060314 00f6020b 0b090320 00f6010b     ........ .......
   b92f8:	0b08032d 00f6020b 080b0338 00f9000b     -.......8.......
   b9308:	08090343 00f9010b 0809034c 00f9010b     C.......L.......
   b9318:	0c0b0355 00f9000b 0c0b0366 00f9000b     U.......f.......
   b9328:	08090377 00f9010b 08080380 00f9020b     w...............
   b9338:	0b080388 00f6010b 08090393 00f9010b     ................
   b9348:	080b039c 00f9000b 080b03a7 00f9000b     ................
   b9358:	080903b2 00f9010b 0c0a03bb 00f9000b     ................
   b9368:	080703ca 00f9020b 0e0403d1 00f6030b     ................
   b9378:	0e0203d8 00f6050b 0e0403dc 00f6040b     ................
   b9388:	040903e3 00fa010b                       ........

000b9390 <_ZL24FreeMonoBold9pt7bBitmaps>:
   b9390:	1fd2ffff 1289ec80 36364024 367f7f36     ........$@666..6
   b93a0:	3c3cffff ff18003c 1f1f3cfe f08d4683     ..<<<....<...F..
   b93b0:	610083c1 67864422 4c221137 607e3c70     ...a"D.g7."Lp<~`
   b93c0:	df7b3060 c97fffce cc663724 3166cccc     `0{.....$7f...f1
   b93d0:	333366ce 18c86633 3cffff18 1818663c     .f333f.....<<f..
   b93e0:	18ffff18 6b181818 c0ffff48 180c02f0     .......kH.......
   b93f0:	0c06c360 0c836130 38002018 783cbefb     `...0a... .8..<x
   b9400:	ddc7e3f1 f338c0f1 0683c160 f8fd180c     ......8.`.......
   b9410:	03c7fe3c 180c0603 ffffe370 0303fe7c     <.......p...|...
   b9420:	071e1e03 7cfe0303 64b1381c 3effbfd9     .......|.8.d...>
   b9430:	183f7e7c 1cf3c70f ffc30306 3f0f809f     |~?............?
   b9440:	dc606030 63c3e3fe ffff3c7e 060603c3     0``....c~<......
   b9450:	0c0c0c06 1efb3818 639f6f3c c0f18fc7     .....8..<o.c....
   b9460:	c3e67e3c 3b7fe7c3 f0fc0e06 006c0ff0     <~.....;......l.
   b9470:	0100d21a 0f0e8783 031ce080 00c0ffff     ................
   b9480:	c0fcff0f e0010f78 80c1e3f9 03c7fe7c     ....x.......|...
   b9490:	00001c0e 1e303000 6cdc1c1f b66d7b76     .....00....lv{m.
   b94a0:	fcf36fdb 78f83306 38c0073c 36b08105     .o...3.x<..8...6
   b94b0:	71fce10f 80ef7fdf 19e63fff e61f7f86     ...q.....?......
   b94c0:	ff60831d bf1ff0ff 063cf8d8 61800103     ..`.......<....a
   b94d0:	fec0c7bf 8319e63f 0d36d860 efbf6183     ....?...`.6..a..
   b94e0:	d8ffffe0 e1c3b76d ff61c3b0 ffffe0ff     ....m.....a.....
   b94f0:	c3b76dd8 60c0b0e1 1f003e7c 061be69f     .m.....`|>......
   b9500:	7f0c30c0 e39fe11f d8fbf7f0 f93366cc     .0...........f3.
   b9510:	7b63c6fc f3ffe0fd 0cc3300c 1fc0ff33     ..c{.....0..3...
   b9520:	0c30f0c7 33cc0003 873fc70c e6bdf7c0     ..0....3..?.....
   b9530:	1f78b061 6398e106 fc3cff3c 03060c7e     a.x....c<.<.~...
   b9540:	63c68001 e0ffff31 c73dfee0 d7bce73d     ...c1.....=.=...
   b9550:	6076b39b 80c73fde e33dfee1 ddcc663c     ..v`.?....=.<f..
   b9560:	631eb399 00c33bde c7f1071f 80077c70     ...c.;......p|..
   b9570:	71071ff0 007cf0c7 6c987ffe f8f91b36     ...q..|....l6...
   b9580:	3e7c60c0 f1071f00 077c70c7 071ff080     .`|>.....p|.....
   b9590:	7cf0c771 7ffe330c 187ffc80 f17366cc     q..|.3.......fs.
   b95a0:	7d63ccf0 bf3f60fe 030f78f0 c3833ff8     ..c}.`?..x...?..
   b95b0:	ff80bfff 3d7bf6ff 3060c098 801f3f18     ......{=..`0.?..
   b95c0:	833dfef1 c10c6630 60063398 007cf0c7     ..=.0f...3.`..|.
   b95d0:	c37dfffb 3618c318 0e50c006 0010c001     ..}....6..P.....
   b95e0:	0df6fefb b7db6e93 8e7beead fcf318e3     .....n....{.....
   b95f0:	1efc38f7 cce00103 3cffbc73 38f7fcf3     .8......s..<...8
   b9600:	80071ecc 0f0c30c0 fefef0c3 1818ccc6     .....0..........
   b9610:	ffc36330 ccccffff ffcccccc 06060301     0c..............
   b9620:	18180c0c 60603030 33ff80c0 33333333     ....00``...33333
   b9630:	e37110ff ff40706c 8088fcff cf8f3f7e     ..q.lp@.....~?..
   b9640:	fe1b36ee 0638e0ff 9c7fbc01 71830d76     .6....8.....v..q
   b9650:	3ff0eeff 3c78f8bf 7efe0507 18e08003     ...?..x<...~....
   b9660:	ecb87ff6 9fe3061b 3f3efcf3 feffffb0     ..........>?....
   b9670:	1f7efe01 7e7e303f 30303030 bf3ffefe     ..~.?0~~0000..?.
   b9680:	376cd8f9 0376fc39 c0c78f01 0d1870e0     ..l79.v......p..
   b9690:	8c99f3c7 fd7b63c6 001818e0 18187878     .....c{.....xx..
   b96a0:	ffff1818 fc3f6018 300cc330 80ff0fc3     .....`?.0..0....
   b96b0:	0d1870e0 e0e1f3e6 f9736ef8 187878e0     .p.......ns..xx.
   b96c0:	18181818 ffff1818 9bf99ffd cd6c6633     ............3fl.
   b96d0:	eebfffbd 66cc987f efdf1b33 f8b83f3e     .......f3...>?..
   b96e0:	fc1d1f3c f91fef7c 0636b0c3 78f3dfe1     <...|.....6....x
   b96f0:	e0030c60 ef1e007c 6c6087ff f09fc30d     `...|.....`l....
   b9700:	18c000f6 77f0810f 0306cfbf fcf98301     .......w........
   b9710:	fcc3ff3f fcffc33f fe606060 606060fe     ?...?...```..```
   b9720:	e73e7f61 66cc9873 7ffe1933 c67cfffb     a.>.s..f3.....|.
   b9730:	36b0c118 f1708003 37bb3dfe 0e77f863     ...6..p..=.7c.w.
   b9740:	fbf78ce1 c38383cd f3efdfbb cc18f6fc     ................
   b9750:	e0810733 0f060c30 fffff0c3 7f0cc330     3...0.......0...
   b9760:	666637ff 736666cc f0ffffff 336666ce     .7ff.ffs.....ff3
   b9770:	70ec6666 c0c0f37c                       ff.p|...

000b9778 <_ZL15Bitmap400x300_1>:
   b9778:	ffffffff ffffffff ffffffff ffffffff     ................
   b9788:	ffffffff ffffffff ffffffff ffffffff     ................
   b9798:	ffffffff ffffffff ffffffff ffffffff     ................
   b97a8:	ffffffff ffffffff ffffffff ffffffff     ................
   b97b8:	ffffffff ffffffff ffffffff ffffffff     ................
   b97c8:	ffffffff ffffffff ffffffff ffffffff     ................
   b97d8:	ffffffff ffffffff ffffffff ffffffff     ................
   b97e8:	ffffffff ffffffff ffffffff ffffffff     ................
   b97f8:	ffffffff ffffffff ffffffff ffffffff     ................
   b9808:	ffffffff ffffffff ffffffff ffffffff     ................
   b9818:	ffffffff ffffffff ffffffff ffffffff     ................
   b9828:	ffffffff ffffffff ffffffff ffffffff     ................
   b9838:	ffffffff ffffffff ffffffff ffffffff     ................
   b9848:	ffffffff ffffffff ffffffff ffffffff     ................
   b9858:	ffffffff ffffffff ffffffff ffffffff     ................
   b9868:	ffffffff ffffffff ffffffff ffffffff     ................
   b9878:	ffffffff ffffffff ffffffff ffffffff     ................
   b9888:	ffffffff ffffffff ffffffff ffffffff     ................
   b9898:	ffffffff ffffffff ffffffff ffffffff     ................
   b98a8:	ffffffff ffffffff ffffffff ffffffff     ................
   b98b8:	ffffffff ffffffff ffffffff ffffffff     ................
   b98c8:	ffffffff ffffffff ffffffff ffffffff     ................
   b98d8:	ffffffff ffffffff ffffffff ffffffff     ................
   b98e8:	ffffffff ffffffff ffffffff ffffffff     ................
   b98f8:	ffffffff ffffffff ffffffff ffffffff     ................
   b9908:	ffffffff ffffffff ffffffff ffffffff     ................
   b9918:	ffffffff ffffffff ffffffff ffffffff     ................
   b9928:	ffffffff ffffffff ffffffff ffffffff     ................
   b9938:	ffffffff ffffffff ffffffff ffffffff     ................
   b9948:	ffffffff ffffffff ffffffff ffffffff     ................
   b9958:	ffffffff ffffffff ffffffff ffffffff     ................
   b9968:	ffffffff ffffffff ffffffff ffffffff     ................
   b9978:	ffffffff ffffffff ffffffff ffffffff     ................
   b9988:	ffffffff ffffffff ffffffff ffffffff     ................
   b9998:	ffffffff ffffffff ffffffff ffffffff     ................
   b99a8:	ffffffff ffffffff ffffffff ffffffff     ................
   b99b8:	ffffffff ffffffff ffffffff ffffffff     ................
   b99c8:	ffffffff ffffffff ffffffff ffffffff     ................
   b99d8:	ffffffff ffffffff ffffffff ffffffff     ................
   b99e8:	ffffffff ffffffff ffffffff ffffffff     ................
   b99f8:	ffffffff ffffffff ffffffff ffffffff     ................
   b9a08:	ffffffff ffffffff ffffffff ffffffff     ................
   b9a18:	ffffffff ffffffff ffffffff ffffffff     ................
   b9a28:	ffffffff ffffffff ffffffff ffffffff     ................
   b9a38:	ffffffff ffffffff ffffffff ffffffff     ................
   b9a48:	ffffffff ffffffff ffffffff ffffffff     ................
   b9a58:	ffffffff ffffffff ffffffff ffffffff     ................
   b9a68:	ffffffff ffffffff ffffffff ffffffff     ................
   b9a78:	ffffffff ffffffff ffffffff ffffffff     ................
   b9a88:	ffffffff ffffffff ffffffff ffffffff     ................
   b9a98:	ffffffff ffffffff ffffffff ffffffff     ................
   b9aa8:	ffffffff ffffffff ffffffff ffffffff     ................
   b9ab8:	ffffffff ffffffff ffffffff ffffffff     ................
   b9ac8:	ffffffff ffffffff ffffffff ffffffff     ................
   b9ad8:	ffffffff ffffffff ffffffff ffffffff     ................
   b9ae8:	ffffffff ffffffff ffffffff ffffffff     ................
   b9af8:	ffffffff ffffffff ffffffff ffffffff     ................
   b9b08:	ffffffff ffffffff ffffffff ffffffff     ................
   b9b18:	ffffffff ffffffff ffffffff ffffffff     ................
   b9b28:	ffffffff ffffffff ffffffff ffffffff     ................
   b9b38:	ffffffff ffffffff ffffffff ffffffff     ................
   b9b48:	ffffffff ffffffff ffffffff ffffffff     ................
   b9b58:	ffffffff ffffffff ffffffff ffffffff     ................
   b9b68:	ffffffff ffffffff ffffffff ffffffff     ................
   b9b78:	ffffffff ffffffff ffffffff ffffffff     ................
   b9b88:	ffffffff ffffffff ffffffff ffffffff     ................
   b9b98:	ffffffff ffffffff ffffffff ffffffff     ................
   b9ba8:	ffffffff ffffffff ffffffff ffcfffff     ................
   b9bb8:	ffffc3ff ffffffff ffffffff ffffffff     ................
   b9bc8:	ffffffff ffffffff ffffffff ffffffff     ................
   b9bd8:	ffffffff ffffffff ffffffff f0ffffff     ................
   b9be8:	00fcff01 ffff7f00 ffffffff ffffffff     ................
   b9bf8:	ffffffff ffffffff ffffffff ffffffff     ................
   b9c08:	ffffffff ffffffff ffffffff ffffffff     ................
   b9c18:	3f0000fe 070000e0 ffffffff ffffffff     ...?............
   b9c28:	ffffffff ffffffff ffffffff ffffffff     ................
   b9c38:	ffffffff ffffffff ffffffff ffffffff     ................
   b9c48:	00f0ffff 00000000 ffff0000 ffffffff     ................
   b9c58:	ffffffff ffffffff ffffffff ffffffff     ................
   b9c68:	ffffffff ffffffff ffffffff ffffffff     ................
   b9c78:	ffffffff 000000c0 00000000 ffffff0f     ................
   b9c88:	ffffffff ffffffff ffffffff ffffffff     ................
   b9c98:	ffffffff ffffffff ffffffff ffffffff     ................
   b9ca8:	ffffffff 0000feff 00000000 ff000000     ................
   b9cb8:	ffffffff fffffffd ffffffff ffffffff     ................
   b9cc8:	ffffffff ffffc0ff ffffffff ffffffff     ................
   b9cd8:	ffffffff f0ffffff 00000000 00000000     ................
   b9ce8:	ffff0f00 0000fcff ffffffff ffff0ff8     ................
   b9cf8:	000000fc 0080ffff fcff0300 feff3f00     .............?..
   b9d08:	ff7f0000 ffffffff 000000fe 00000000     ................
   b9d18:	00000000 0000ff0f ffff0000 0100f0ff     ................
   b9d28:	0000ffff 00000000 00000000 00000000     ................
   b9d38:	0000c003 ffff7f00 0000feff 00000000     ................
	...
   b9d54:	0080ff03 00000000 00000000 00000000     ................
	...
   b9e4c:	ffff0000 ffffffff ffffffff ffffffff     ................
   b9e5c:	ffffffff ffffffff ffffffff ffffffff     ................
   b9e6c:	ffffffff ffffffff ffffffff ffffffff     ................
   b9e7c:	ffffffff ffffffff ffffffff ffffffff     ................
   b9e8c:	ffffffff ffffffff ffffffff ffffffff     ................
   b9e9c:	ffffffff ffffffff ffffffff ffffffff     ................
   b9eac:	ffffffff ffffffff ffffffff ffffffff     ................
   b9ebc:	ffffffff ffffffff ffffffff ffffffff     ................
   b9ecc:	ffffffff ffffffff ffffffff ffffffff     ................
   b9edc:	ffffffff ffffffff ffffffff ffffffff     ................
   b9eec:	ffffffff ffffffff ffffffff ffffffff     ................
   b9efc:	ffffffff ffffffff ffffffff ffffffff     ................
   b9f0c:	ffffffff ffffffff ffffffff ffffffff     ................
   b9f1c:	ffffffff ffffffff ffffffff ffffffff     ................
   b9f2c:	ffffffff ffffffff ffffffff ffffffff     ................
   b9f3c:	ffffffff ffffffff ffffffff ffffffff     ................
   b9f4c:	ffffffff ffffffff ffffffff ffffffff     ................
   b9f5c:	ffffffff ffffffff ffffffff ffffffff     ................
   b9f6c:	ffffffff ffffffff ffffffff ffffffff     ................
   b9f7c:	ffffffff ffffffff ffffffff ffffffff     ................
   b9f8c:	ffffffff ffffffff ffffffff ffffffff     ................
   b9f9c:	ffffffff ffffffff ffffffff ffffffff     ................
   b9fac:	ffffffff ffffffff ffffffff ffffffff     ................
   b9fbc:	ffffffff ffffffff ffffffff ffffffff     ................
   b9fcc:	ffffffff ffffffff ffffffff ffffffff     ................
   b9fdc:	ffffffff ffffffff ffffffff ffffffff     ................
   b9fec:	ffffffff ffffffff ffffffff ffffffff     ................
   b9ffc:	ffffffff ffffffff ffffffff ffffffff     ................
   ba00c:	ffffffff ffffffff ffffffff ffffffff     ................
   ba01c:	ffffffff ffffffff ffffffff ffffffff     ................
   ba02c:	ffffffff ffffffff ffffffff ffffffff     ................
   ba03c:	ffffffff ffffffff ffffffff ffffffff     ................
   ba04c:	ffffffff ffffffff ffffffff ffffffff     ................
   ba05c:	ffffffff ffffffff ffffffff ffffffff     ................
   ba06c:	ffffffff ffffffff ffffffff ffffffff     ................
   ba07c:	ffffffff ffffffff ffffffff ffffffff     ................
   ba08c:	ffffffff ffffffff ffffffff ffffffff     ................
   ba09c:	ffffffff ffffffff ffffffff ffffffff     ................
   ba0ac:	ffffffff ffffffff ffffffff ffffffff     ................
   ba0bc:	ffffffff ffffffff ffffffff ffffffff     ................
   ba0cc:	ffffffff ffffffff ffffffff ffffffff     ................
   ba0dc:	ffffffff ffffffff ffffffff ffffffff     ................
   ba0ec:	ffffffff ffffffff ffffffff ffffffff     ................
   ba0fc:	ffffffff ffffffff ffffffff ffffffff     ................
   ba10c:	ffffffff ffffffff ffffffff ffffffff     ................
   ba11c:	ffffffff ffffffff ffffffff ffffffff     ................
   ba12c:	ffffffff ffffffff ffffffff ffffffff     ................
   ba13c:	ffffffff ffffffff ffffffff ffffffff     ................
   ba14c:	ffffffff ffffffff ffffffff ffffffff     ................
   ba15c:	ffffffff ffffffff ffffffff ffffffff     ................
   ba16c:	ffffffff ffffffff ffffffff ffffffff     ................
   ba17c:	ffffffff ffffffff ffffffff ffffffff     ................
   ba18c:	ffffffff ffffffff ffffffff ffffffff     ................
   ba19c:	ffffffff ffffffff ffffffff ffffffff     ................
   ba1ac:	ffffffff ffffffff ffffffff ffffffff     ................
   ba1bc:	ffffffff ffffffff ffffffff ffffffff     ................
   ba1cc:	ffffffff ffffffff ffffffff ffffffff     ................
   ba1dc:	ffffffff ffffffff ffffffff ffffffff     ................
   ba1ec:	ffffffff ffffffff ffffffff ffffffff     ................
   ba1fc:	ffffffff ffffffff ffffffff ffffffff     ................
   ba20c:	ffffffff ffffffff ffffffff ffffffff     ................
   ba21c:	ffffffff ffffffff ffffffff ffffffff     ................
   ba22c:	ffffffff ffffffff ffffffff ffffffff     ................
   ba23c:	ffffffff ffffffff ffffffff ffffffff     ................
   ba24c:	ffffffff ffffffff ffffffff ffffffff     ................
   ba25c:	ffffffff ffffffff ffffffff ffffffff     ................
   ba26c:	ffffffff ffffffff ffffffff ffffffff     ................
   ba27c:	ffffffff ffffffff ffffffff ffffffff     ................
   ba28c:	ffffffff ffffffff ffffffff 0000ffff     ................
   ba29c:	ffffff00 ffffffff ffffffff ffffffff     ................
   ba2ac:	ffffffff ffffffff ffffffff ffffffff     ................
   ba2bc:	ffffffff ffffffff ffffffff ffffffff     ................
   ba2cc:	ffffff03 ffffffff ffffffff ffffffff     ................
   ba2dc:	ffffffff ffffffff ffffffff ffffffff     ................
   ba2ec:	ffffffff ffffffff ffffffff ffffffff     ................
   ba2fc:	ffffffff ffffffff ffffffff ffffffff     ................
   ba30c:	ffffffff ffffffff ffffffff ffffffff     ................
   ba31c:	ffffffff ffffffff ffffffff ffffffff     ................
   ba32c:	ffffffff fffffff8 ffffffff ffffffff     ................
   ba33c:	ffffffff ffffffff ffffffff ffffffff     ................
   ba34c:	ffffffff ffffffff ffffffff ffffffff     ................
   ba35c:	ffffffff ffe3ffff ffffffff ffffffff     ................
   ba36c:	ffffffff ffffffff ffffffff ffffffff     ................
   ba37c:	ffffffff ffffffff ffffffff ffffffff     ................
   ba38c:	ffffffff ffffffff ffffffe3 ffffffff     ................
   ba39c:	ffffffff ffffffff ffffffff ffffffff     ................
   ba3ac:	ffffffff ffffffff ffffffff ffffffff     ................
   ba3bc:	ffffffff ffffffff ffc7ffff ffffffff     ................
   ba3cc:	ffffffc7 ffffffff ffffffff ffffffff     ................
   ba3dc:	ffffffff ffffffff ffffffff f9ffffff     ................
   ba3ec:	ffffffff ffffffff ffffffff ffffffc7     ................
   ba3fc:	ff1fffff ffffffff ffffffff ffffffff     ................
   ba40c:	ffffffff ffffffff ffffffff ffffffff     ................
   ba41c:	fffff0ff ffffffff ffffffff ffc7ffff     ................
   ba42c:	feffffff 00ffff3f ffff3f00 ffffffff     ....?....?......
   ba43c:	ffffffff ffffffff ffffffff ffffffff     ................
   ba44c:	e0ffffff ffffff7f ffffffff ffffffff     ................
   ba45c:	ffff01c6 ff3ffeff ffff3ffc ffffffff     ......?..?......
   ba46c:	ffffffff ffffffff ffffffff ffffffff     ................
   ba47c:	ffffffff ff1fc0ff ffffffff ffffffff     ................
   ba48c:	01c6ffff fcff0f9f fff8ff7f ffffffff     ................
   ba49c:	ffffffff ffffffff ffffffff ffffffff     ................
   ba4ac:	ffffffff 00ffffff ffffff0f ffffffff     ................
   ba4bc:	ffffffff e09f01c6 ff7f7c00 fffffff8     .........|......
   ba4cc:	0000c0ff ffffff03 ffffffff ffffffff     ................
   ba4dc:	ffffffff ffffffff ff0300fe ffffffff     ................
   ba4ec:	ffffffff 01c6ffff 0cfeff9f fff1ff7f     ................
   ba4fc:	0fffffff ffffffff ffffffff ffffffff     ................
   ba50c:	ffffffff ffffffff 00fcffff ffffff01     ................
   ba51c:	ffffffff ffffffff ff9f01c6 9f63fcff     ..............c.
   ba52c:	fffffff1 e3ff3fff ffffffff ffffffff     .....?..........
   ba53c:	ffffffff ffffffff ffffffff 7f0000f0     ................
   ba54c:	ffffffff ffffffff 01c6ffff fcffff9f     ................
   ba55c:	fff10763 3ffeffff ffff8fff ffffffff     c......?........
   ba56c:	ffffffff ffffffff ffffffff 00e0ffff     ................
   ba57c:	ff030000 ffffffff ffffffff ff9f01c6     ................
   ba58c:	0763fcff fffff7f1 9fff7ffe ff8fffff     ..c.............
   ba59c:	ffffffff ffffffff ffffffff ffffffff     ................
   ba5ac:	000000c0 ffffff00 ffffffff 01c6ffff     ................
   ba5bc:	fcffff9f f3f10763 7ffeffff feff1fff     ....c...........
   ba5cc:	ffffff3f ffffffff ffffffff ffffffff     ?...............
   ba5dc:	0000fcff 27000000 ffffffff ffffffff     .......'........
   ba5ec:	ff9f01c6 0763fcff f8fcf3f1 1fff7ffe     ......c.........
   ba5fc:	ff7ffeff ffffffff ffffffff ffffffff     ................
   ba60c:	faffffff 00000000 ffff1b00 ffffffff     ................
   ba61c:	01c6ffff fcffff9f f3f10763 7f3ef8fc     ........c.....>.
   ba62c:	fcff1fff ffffff7f ffffffff ffffffff     ................
   ba63c:	ffffffff 0080fbff 19000000 ffffffff     ................
   ba64c:	ffffffff ff9f01c6 0763fcff f8fcf3f1     ..........c.....
   ba65c:	1f1f7c3e ff7ffcff 000000ff 00000000     >|..............
   ba66c:	ffffff0b fbffffff 000000e0 fffff307     ................
   ba67c:	ffffffff 01c6ffff fcffff9f f3f10763     ............c...
   ba68c:	7c3ef8fc fc301e1f 7ffcff7f ffffffff     ..>|..0.........
   ba69c:	ffffffff ffffffff 01e0fdff e7fffffb     ................
   ba6ac:	ffffffff ffffffff ff9f01c6 0763fcff     ..............c.
   ba6bc:	f8fcf3f1 1e1f7c3e ff7f0c30 0080fff8     ....>|..0.......
   ba6cc:	00000000 ffffff0f feffffff ffff073c     ............<...
   ba6dc:	ffffcf11 ffffffff 01c6ffff fcffff9f     ................
   ba6ec:	f3f10763 7c3ef8fc 0c301e1f fef1ff7f     c.....>|..0.....
   ba6fc:	ffffff3f ffffffff ffffffff 00deffff     ?...............
   ba70c:	1fec0000 ffffffff ffffffff ff9f01c6     ................
   ba71c:	0763fcff f8fcf3f1 1e1f7c3e ff7f0c30     ..c.....>|..0...
   ba72c:	ff7ffcf1 ffffffff ffffffff ffffffff     ................
   ba73c:	ffffffe1 ffffffff ffffffff 01c6ffff     ................
   ba74c:	fcffff9f f3f10763 7c3ef8fc 0c301e1f     ....c.....>|..0.
   ba75c:	fcf1c77f ffffff7f ffffffff ffffffff     ................
   ba76c:	ffffffff ffffffff ffffffff ffffffff     ................
   ba77c:	ff9f01c6 0763fcff f8fcf3f1 1e1f7c3e     ......c.....>|..
   ba78c:	c67f0c30 fffffc31 ffffffff ffffffff     0...1...........
   ba79c:	ffffffff ffffffff ffffffff ffffffff     ................
   ba7ac:	01c6ffff fcffff9f f3f10763 7c3ef8fc     ........c.....>|
   ba7bc:	0c301e1f fc31c67f 8fffffff ffffffff     ..0...1.........
   ba7cc:	ffffffff ffffffff ffffffff ffffffff     ................
   ba7dc:	ffffffff ff9f01c6 0763fcff f8fcf3f1     ..........c.....
   ba7ec:	1e1f7c3e c67f0c30 ffff9c31 ffff1fff     >|..0...1.......
   ba7fc:	ffffffff ffffffff ffffffff ffffffff     ................
   ba80c:	ffffffff 01c6ffff fcffff9f f3f10763     ............c...
   ba81c:	7c3ef8fc 0c301e1f 9c31c67f 3ffeffff     ..>|..0...1....?
   ba82c:	ffffffff ffffffff ffffffff ffffffff     ................
   ba83c:	ffffffff ffffffff ff9f01c6 0763fcff     ..............c.
   ba84c:	f8fcf3f1 1e1f7c3e c67f0c30 ffff9c31     ....>|..0...1...
   ba85c:	ffff7ffc ffffffff ffffffff ffffffff     ................
   ba86c:	ffffffff ffffffff 01c6ffff fcffff9f     ................
   ba87c:	f3f10763 7c3ef8fc 0c301e1f 9c31c67f     c.....>|..0...1.
   ba88c:	7ffccfff ffffffff ffffffff ffffffff     ................
   ba89c:	ffffffff ffffffff ffffffff ff9f01c6     ................
   ba8ac:	0763fcff f8fcf3f1 1e1f7c3e c67f0c30     ..c.....>|..0...
   ba8bc:	c0ff9c31 ffff7ffc ffffffff ffffffff     1...............
   ba8cc:	ffffffff ffffffff ffffffff 01c6ffff     ................
   ba8dc:	fcffff9f f3f10763 7c3ef8fc 0c301e1f     ....c.....>|..0.
   ba8ec:	9c31c67f 7f7cc0ff ffffffff ffffffff     ..1...|.........
   ba8fc:	ffffffff ffffffff ffffffff ffffffff     ................
   ba90c:	ff9f01c6 0763fcff f8fcf3f1 1e1f7c3e     ......c.....>|..
   ba91c:	c67f0c30 c0ff9c31 ffff7f7c ffffcfff     0...1...|.......
   ba92c:	ffffffff ffffffff ffffffff ffffffff     ................
   ba93c:	01c6ffff fcffff9f f3f10763 7c3ef8fc     ........c.....>|
   ba94c:	0c301e1f 9c31c67f 637cc0ff 1fffffff     ..0...1...|c....
   ba95c:	ffffffff ffffffff ffffffff ffffffff     ................
   ba96c:	ffffffff ff9f01c6 0763fcff f8fcf3f1     ..........c.....
   ba97c:	1e1f7c3e c67f0c30 c0ff9c31 ffff607c     >|..0...1...|`..
   ba98c:	ffff3ffe ffffffff ffffffff ffffffff     .?..............
   ba99c:	ffffffff 01c6ffff fcffff9f f3f10763     ............c...
   ba9ac:	7c3ef8fc 0c301e1f 9c31c67f 607cc0ff     ..>|..0...1...|`
   ba9bc:	7ffcffc1 ffffffff ffffffff ffffffff     ................
   ba9cc:	ffffffff ffffffff ff9f01c6 0763fcff     ..............c.
   ba9dc:	f8fcf3f1 1e1f7c3e c67f0c30 c0ff9c31     ....>|..0...1...
   ba9ec:	ffc1607c ffff7ffc ffffffff ffffffff     |`..............
   ba9fc:	ffffffff ffffffff 01c6ffff fcffff9f     ................
   baa0c:	f3f10763 7c3ef8fc 0c301e1f 9c31c67f     c.....>|..0...1.
   baa1c:	607cc0ff 7f7cf0c1 fffff1ff ffffffff     ..|`..|.........
   baa2c:	ffffffff ffffffff ffffffff ff9f01c6     ................
   baa3c:	0763fcff f8fcf3f1 1e1f7c3e c67f0c30     ..c.....>|..0...
   baa4c:	c0ff9c31 f0c1607c e3ff7f0c ffffffff     1...|`..........
   baa5c:	ffffffff ffffffff ffffffff 01c6ffff     ................
   baa6c:	fcffff9f f3f10763 7c3ef8fc 0c301e1f     ....c.....>|..0.
   baa7c:	9c31c67f 607cc0ff 7f0cf0c1 ffffc7ff     ..1...|`........
   baa8c:	ffffffff ffffffff ffffffff ffffffff     ................
   baa9c:	ff9f01c6 0763fcff f8fcf3f1 1e1f7c3e     ......c.....>|..
   baaac:	c67f0c30 c0ff9c31 f0c1607c cfff7f0c     0...1...|`......
   baabc:	ffffffff ffffffff ffffffff ffffffff     ................
   baacc:	01c6ffff fcffff9f f3f10763 7c3ef8fc     ........c.....>|
   baadc:	0c301e1f 9c31c67f 607cc0ff 780cf0c1     ..0...1...|`...x
   baaec:	ffffcf1f ffffffff ffffffff ffffffff     ................
   baafc:	ffff8fff ff9f01c6 0763fcff f8fcf3f1     ..........c.....
   bab0c:	1e1f7c3e c67f0c30 c0ff9c31 f0c1607c     >|..0...1...|`..
   bab1c:	cf07780c ffe3ffff ffffffff ffffffff     .x..............
   bab2c:	01ffffff 01c6ffff fcffff9f f3f10763     ............c...
   bab3c:	7c3ef8fc 0c301e1f 9c31c67f 607cc0ff     ..>|..0...1...|`
   bab4c:	780cf0c1 ffffcf07 ffffff8f ffffffff     ...x............
   bab5c:	ffffffff ffff00fe ff9f01c6 0763fcff     ..............c.
   bab6c:	f8fcf3f1 1e1f7c3e c67f0c30 c0ff9c31     ....>|..0...1...
   bab7c:	f0c1607c ce07780c ff1fffff ffffffff     |`...x..........
   bab8c:	ffffffff 00fcffff 01c6ff3f fcffff9f     ........?.......
   bab9c:	f3f10763 7c3ef8fc 0c301e1f 9c31c67f     c.....>|..0...1.
   babac:	607cc0ff 780cf0c1 ff7fcc07 ffffff3f     ..|`...x....?...
   babbc:	ffffffff ffffffff ff0f00fc ff9f01c6     ................
   babcc:	0763fcff f8fcf3f1 1e1f7c3e c67f0c30     ..c.....>|..0...
   babdc:	c0ff9c31 f0c1607c cc07780c ff3fff7f     1...|`...x....?.
   babec:	ffffffff ffffffff 00f8ffff 01c60700     ................
   babfc:	fcffff9f f3f10763 7c3ef8fc 0c301e1f     ....c.....>|..0.
   bac0c:	9c31c67f 607cc0ff 780cf0c1 1e7fcc07     ..1...|`...x....
   bac1c:	ffffff3f ffffffff 7fffffff 000000f0     ?...............
   bac2c:	ff9f01c6 0763fcff f8fcf3f1 1e1f7c3e     ......c.....>|..
   bac3c:	c67f0c30 c0ff9c31 f0c1607c cc07780c     0...1...|`...x..
   bac4c:	ff3f1e7f ffffffff ffffffff 00e03ffe     ..?..........?..
   bac5c:	01c60000 fcffff9f f3f10763 7c3ef8fc     ........c.....>|
   bac6c:	0c301e1f 9c31c67f 607cc0ff 780cf0c1     ..0...1...|`...x
   bac7c:	1e7fcc07 ffffff3f ffffffff 0ffcffff     ....?...........
   bac8c:	000000e0 ff9f01c6 0763fcff f8fcf3f1     ..........c.....
   bac9c:	1e1f7c3e c67f0c30 c0ff9c31 f0c1607c     >|..0...1...|`..
   bacac:	cc07780c ff331e7f ffffffff ffffffff     .x....3.........
   bacbc:	000000f8 01c60000 fcffff9f f3f10763     ............c...
   baccc:	7c3ef8fc 0c301e1f 9c31c67f 607cc0ff     ..>|..0...1...|`
   bacdc:	780cf0c1 1e7fcc07 ffffbf31 ffffffff     ...x....1.......
   bacec:	00e0ffff 00000000 ff9f01c6 0763fcff     ..............c.
   bacfc:	f8fcf3f1 1e1f7c3e c67f0c30 c0ff9c31     ....>|..0...1...
   bad0c:	f0c1607c cc07780c c7311e7f ffffffff     |`...x....1.....
   bad1c:	ffffffff 00000000 01c60000 fcffff9f     ................
   bad2c:	f3f10763 7c3ef8fc 0c301e1f 9c31c67f     c.....>|..0...1.
   bad3c:	607cc0ff 780cf0c1 1e7fcc07 fffff031     ..|`...x....1...
   bad4c:	ffffffff 0070feff ffbff101 ff9f01c6     ......p.........
   bad5c:	0763fcff f8fcf3f1 1e1f7c3e c67f0c30     ..c.....>|..0...
   bad6c:	c0ff9c31 f0c1607c cc07780c fe311e7f     1...|`...x....1.
   bad7c:	ffffff3f fdffffff fff700fe 01c6ffff     ?...............
   bad8c:	fcffff9f f3f10763 7c3ef8fc 0c301e1f     ....c.....>|..0.
   bad9c:	9c31c67f 607cc0ff 780cf0c1 1e7fcc07     ..1...|`...x....
   badac:	ffc7ff31 000000fe fffff901 ffffffff     1...............
   badbc:	ff9f01c6 0763fcff f8fcf3f1 1e1f7c3e     ......c.....>|..
   badcc:	c67f0c30 c0ff9c31 f0c1607c cc07780c     0...1...|`...x..
   baddc:	ff311e7f fff8fff1 fcffffff ffffff3f     ..1.........?...
   badec:	01c600f8 fcffff9f f3f10763 7c3ef8fc     ........c.....>|
   badfc:	0c301e1f 9c31c67f 607cc0ff 780cf0c1     ..0...1...|`...x
   bae0c:	1e7fcc07 7ffeff31 fffffff1 ff8fffff     ....1...........
   bae1c:	ff0780ff ff9f01c6 0763fcff f8fcf3f1     ..........c.....
   bae2c:	1e1f7c3e c67f0c30 c0ff9c31 f0c1607c     >|..0...1...|`..
   bae3c:	cc07780c ff311e7f e0e38fff ff7f0000     .x....1.........
   bae4c:	3ff00ff0 01c6ffff fcffff9f f3f10763     ...?........c...
   bae5c:	7c3ef8fc 0c301e1f 9c31c67f 607cc0ff     ..>|..0...1...|`
   bae6c:	780cf0c1 1e7fcc07 e3ffff31 ffff87e3     ...x....1.......
   bae7c:	60feffff ffffff0f ff9f01c6 0763fcff     ...`..........c.
   bae8c:	f8fcf3f1 1e1f7c3e c67f0c30 c0ff9c31     ....>|..0...1...
   bae9c:	f0c1607c cc07780c ff311e7f 9fe3fcff     |`...x....1.....
   baeac:	ffffffff ffffffff 01c6ffff fcffff9f     ................
   baebc:	f3f10763 7c3ef8fc 0c301e1f 9c31c67f     c.....>|..0...1.
   baecc:	607cc0ff 780cf0c1 1e7fcc07 ffffff31     ..|`...x....1...
   baedc:	ffff1fe3 ffffffff ffffffff ff9f01c6     ................
   baeec:	0763fcff f8fcf3f1 1e1f7c3e c67f0c30     ..c.....>|..0...
   baefc:	c0ff9c31 f0c1607c cc07780c ff311e7f     1...|`...x....1.
   baf0c:	1fe3ffff ffffffff ffffffff 01c6ffff     ................
   baf1c:	fcffff9f f3f10763 7c3ef8fc 0c301e1f     ....c.....>|..0.
   baf2c:	9c31c67f 607cc0ff 780cf0c1 1e7fcc07     ..1...|`...x....
   baf3c:	ffffff31 ffff3fe3 ffffffff ffffffff     1....?..........
   baf4c:	ff9f01c6 0763fcff f8fcf3f1 1e1f7c3e     ......c.....>|..
   baf5c:	c67f0c30 c0ff9c31 f0c1607c cc07780c     0...1...|`...x..
   baf6c:	ff311e7f 3fe3ffff ffffffff ffffffff     ..1....?........
   baf7c:	01c6ffff fcffff9f f3f10763 7c3ef8fc     ........c.....>|
   baf8c:	0c301e1f 9c31c67f 607cc0ff 780cf0c1     ..0...1...|`...x
   baf9c:	1e7fcc07 ffffff31 ffff1fe3 ffffffff     ....1...........
   bafac:	ffffffff ff9f01c6 0763fcff f8fcf3f1     ..........c.....
   bafbc:	1e1f7c3e c67f0c30 c0ff9c31 f0c1607c     >|..0...1...|`..
   bafcc:	cc07780c ff311e7f 0fe3ffff ffffffff     .x....1.........
   bafdc:	ffffffff 01c6ffff fcffff9f f3f10763     ............c...
   bafec:	7c3ef8fc 0c301e1f 9c31c67f 607cc0ff     ..>|..0...1...|`
   baffc:	780cf0c1 1e7fcc07 ffffff31 ffff13e3     ...x....1.......
   bb00c:	ffffffff ffffffff ff9f01c6 0763fcff     ..............c.
   bb01c:	f8fcf3f1 1e1f7c3e c67f0c30 c0ff9c31     ....>|..0...1...
   bb02c:	f0c1607c cc07780c ff311e7f 39e3ffff     |`...x....1....9
   bb03c:	ffffffff ffffffff 01c6ffff fcffff9f     ................
   bb04c:	f3f10763 7c3ef8fc 0c301e1f 9c31c67f     c.....>|..0...1.
   bb05c:	607cc0ff 780cf0c1 1e7fcc07 ffffff31     ..|`...x....1...
   bb06c:	ff7f3ee3 ffffffff ffffffff ff9f01c6     .>..............
   bb07c:	0763fcff f8fcf3f1 1e1f7c3e c67f0c30     ..c.....>|..0...
   bb08c:	c0ff9c31 f0c1607c cc07780c ff311e7f     1...|`...x....1.
   bb09c:	3fe3ffff ffffff3f ffffffff 01c6ffff     ...??...........
   bb0ac:	fcffff9f f3f10763 7c3ef8fc 0c301e1f     ....c.....>|..0.
   bb0bc:	9c31c67f 607cc0ff 780cf0c1 1e7fcc07     ..1...|`...x....
   bb0cc:	ffffff31 ffcf3fe3 ffffffff ffffffff     1....?..........
   bb0dc:	ff9f01c6 0763fcff f8fcf3f1 1e1f7c3e     ......c.....>|..
   bb0ec:	c67f0c30 c0ff9c31 f0c1607c cc07780c     0...1...|`...x..
   bb0fc:	ff311e7f 3fe3ffff fffffff7 ffffffff     ..1....?........
   bb10c:	01c6ffff fcffff9f f3f10763 7c3ef8fc     ........c.....>|
   bb11c:	0c301e1f 9c31c67f 607cc0ff 780cf0c1     ..0...1...|`...x
   bb12c:	1e7fcc07 ffffff31 fff93fe3 ffffffff     ....1....?......
   bb13c:	ffffffff ff9f01c6 0763fcff f8fcf3f1     ..........c.....
   bb14c:	1e1f7c3e c67f0c30 c0ff9c31 f0c1607c     >|..0...1...|`..
   bb15c:	cc07780c ff311e7f 3fe3ffff fffffffc     .x....1....?....
   bb16c:	ffffffff 01c6ffff fcffff9f f3f10763     ............c...
   bb17c:	7c3ef8fc 0c301e1f 9c31c67f 607cc0ff     ..>|..0...1...|`
   bb18c:	780cf0c1 1e7fcc07 ffffff31 7fff3fe3     ...x....1....?..
   bb19c:	ffffffff ffffffff ff9f01c6 0763fcff     ..............c.
   bb1ac:	f8fcf3f1 1e1f7c3e c67f0c30 c0ff9c31     ....>|..0...1...
   bb1bc:	f0c1607c cc07780c ff311e7f 3fe3ffff     |`...x....1....?
   bb1cc:	ffffbfff ffffffff 01c6ffff fcffff9f     ................
   bb1dc:	f3f10763 7c3ef8fc 0c301e1f 9c31c67f     c.....>|..0...1.
   bb1ec:	607cc0ff 780cf0c1 1e7fcc07 ffffff31     ..|`...x....1...
   bb1fc:	9fff3fe3 ffffffff ffffffff ff9f01c6     .?..............
   bb20c:	0763fcff f8fcf3f1 1e1f7c3e c67f0c30     ..c.....>|..0...
   bb21c:	c0ff9c31 f0c1607c cc07780c ff311e7f     1...|`...x....1.
   bb22c:	3fe3ffff ffffcfff ffffffff 01c6ffff     ...?............
   bb23c:	fcffff9f f3f10763 7c3ef8fc 0c301e1f     ....c.....>|..0.
   bb24c:	9c31c67f 607cc0ff 780cf0c1 1e7fcc07     ..1...|`...x....
   bb25c:	ffffff31 efff3fe3 ffffffff ffffffff     1....?..........
   bb26c:	ff9f01c6 0763fcff f8fcf3f1 1e1f7c3e     ......c.....>|..
   bb27c:	c67f0c30 c0ff9c31 f0c1607c cc07780c     0...1...|`...x..
   bb28c:	ff311e7f 3fe3ffff fffff7ff ffffffff     ..1....?........
   bb29c:	01c6ffff fcffff9f f3f10763 7c3ef8fc     ........c.....>|
   bb2ac:	0c301e1f 9c31c67f 607cc0ff 780cf0c1     ..0...1...|`...x
   bb2bc:	1e7fcc07 ffffff31 f7ff3fe3 ffffffff     ....1....?......
   bb2cc:	ffffffff ff9f01c6 0763fcff f8fcf3f1     ..........c.....
   bb2dc:	1e1f7c3e c67f0c30 c0ff9c31 f0c1607c     >|..0...1...|`..
   bb2ec:	cc07780c ff311e7f 3fe3ffff fffffbff     .x....1....?....
   bb2fc:	ffffffff 01c6ffff fcffff9f f3f10763     ............c...
   bb30c:	7c3ef8fc 0c301e1f 9c31c67f 607cc0ff     ..>|..0...1...|`
   bb31c:	780cf0c1 1e7fcc07 ffffff31 fbff3fe3     ...x....1....?..
   bb32c:	ffffffff ffffffff ff9f01c6 0763fcff     ..............c.
   bb33c:	f8fcf3f1 1e1f7c3e c67f0c30 c0ff9c31     ....>|..0...1...
   bb34c:	f0c1607c cc07780c ff311e7f 3fe3ffff     |`...x....1....?
   bb35c:	fffffbff ffffffff 01c6ffff fcffff9f     ................
   bb36c:	f3f10763 7c3ef8fc 0c301e1f 9c31c67f     c.....>|..0...1.
   bb37c:	607cc0ff 780cf0c1 1e7fcc07 ffffff31     ..|`...x....1...
   bb38c:	fdff3fe3 ffffffff ffffffff ff9f01c6     .?..............
   bb39c:	0763fcff f8fcf3f1 1e1f7c3e c67f0c30     ..c.....>|..0...
   bb3ac:	c0ff9c31 f0c1607c cc07780c ff311e7f     1...|`...x....1.
   bb3bc:	3fe3ffff fffffdff ffffffff 01c6ffff     ...?............
   bb3cc:	fcffff9f f3f10763 7c3ef8fc 0c301e1f     ....c.....>|..0.
   bb3dc:	9c31c67f 607cc0ff 780cf0c1 1e7fcc07     ..1...|`...x....
   bb3ec:	ffffff31 fdff3fe3 ffffffff ffffffff     1....?..........
   bb3fc:	ff9f01c6 0763fcff f8fcf3f1 1e1f7c3e     ......c.....>|..
   bb40c:	c67f0c30 c0ff9c31 f0c1607c cc07780c     0...1...|`...x..
   bb41c:	ff311e7f 3fe3ffff fffffdff ffffffff     ..1....?........
   bb42c:	01c6ffff fcffff9f f3f10763 7c3ef8fc     ........c.....>|
   bb43c:	0c301e1f 9c31c67f 607cc0ff 780cf0c1     ..0...1...|`...x
   bb44c:	1e7fcc07 ffffff31 feff3fe3 ffffffff     ....1....?......
   bb45c:	ffffffff ff9f01c6 0763fcff f8fcf3f1     ..........c.....
   bb46c:	1e1f7c3e c67f0c30 c0ff9c31 f0c1607c     >|..0...1...|`..
   bb47c:	cc07780c ff311e7f 3fe3ffff fffffeff     .x....1....?....
   bb48c:	ffffffff 01c6ffff fcffff9f f3f10763     ............c...
   bb49c:	7c3ef8fc 0c301e1f 9c31c67f 607cc0ff     ..>|..0...1...|`
   bb4ac:	780cf0c1 1e7fcc07 ffffff31 feff3fe3     ...x....1....?..
   bb4bc:	ffffffff ffffffff ff9f01c6 0763fcff     ..............c.
   bb4cc:	f8fcf3f1 1e1f7c3e c67f0c30 c0ff9c31     ....>|..0...1...
   bb4dc:	f0c1607c cc07780c ff311e7f 3fe3ffff     |`...x....1....?
   bb4ec:	fffffeff ffffffff 01c6ffff fcffff9f     ................
   bb4fc:	f3f10763 7c3ef8fc 0c301e1f 9c31c67f     c.....>|..0...1.
   bb50c:	607cc0ff 780cf0c1 1e7fcc07 ffffff31     ..|`...x....1...
   bb51c:	feff3fe3 ffffffff ffffffff ff9f01c6     .?..............
   bb52c:	0763fcff f8fcf3f1 1e1f7c3e c67f0c30     ..c.....>|..0...
   bb53c:	c0ff9c31 f0c1607c cc07780c ff311e7f     1...|`...x....1.
   bb54c:	3fe3ffff fffffeff ffffffff 01c6ffff     ...?............
   bb55c:	fcffff9f f3f10763 7c3ef8fc 0c301e1f     ....c.....>|..0.
   bb56c:	9c31c67f 607cc0ff 780cf0c1 1e7fcc07     ..1...|`...x....
   bb57c:	ffffff31 feff3fe3 ffffffff ffffffff     1....?..........
   bb58c:	ff9f01c6 0763fcff f8fcf3f1 1e1f7c3e     ......c.....>|..
   bb59c:	c67f0c30 c0ff9c31 f0c1607c cc07780c     0...1...|`...x..
   bb5ac:	ff311e7f 3fe3ffff fffffeff ffffffff     ..1....?........
   bb5bc:	01c6ffff fcffff9f f3f10763 7c3ef8fc     ........c.....>|
   bb5cc:	0c301e1f 9c31c67f 607cc0ff 780cf0c1     ..0...1...|`...x
   bb5dc:	1e7fcc07 ffffff31 feff3fe3 ffffffff     ....1....?......
   bb5ec:	ffffffff ff9f01c6 0763fcff f8fcf3f1     ..........c.....
   bb5fc:	1e1f7c3e c67f0c30 c0ff9c31 f0c1607c     >|..0...1...|`..
   bb60c:	cc07780c ff311e7f 3fe3ffff fffffdff     .x....1....?....
   bb61c:	ffffffff 01c6ffff fcffff9f f3f10763     ............c...
   bb62c:	7c3ef8fc 0c301e1f 9c31c67f 607cc0ff     ..>|..0...1...|`
   bb63c:	780cf0c1 1e7fcc07 ffffff31 fdff3fe3     ...x....1....?..
   bb64c:	ffffffff ffffffff ff9f01c6 0763fcff     ..............c.
   bb65c:	f8fcf3f1 1e1f7c3e c67f0c30 c0ff9c31     ....>|..0...1...
   bb66c:	f0c1607c cc07780c ff311e7f 3fe3ffff     |`...x....1....?
   bb67c:	fffffbff ffffffff 01c6ffff fcffff9f     ................
   bb68c:	f3f10763 7c3ef8fc 0c301e1f 9c31c67f     c.....>|..0...1.
   bb69c:	607cc0ff 780cf0c1 1e7fcc07 ffffff31     ..|`...x....1...
   bb6ac:	f7ff3fe3 ffffffff ffffffff ff9f01c6     .?..............
   bb6bc:	0763fcff f8fcf3f1 1e1f7c3e c67f0c30     ..c.....>|..0...
   bb6cc:	c0ff9c31 f0c1607c cc07780c ff311e7f     1...|`...x....1.
   bb6dc:	3fe3ffff ffffe7ff ffffffff 01c6ffff     ...?............
   bb6ec:	fcffff9f f3f10763 7c3ef8fc 0c301e1f     ....c.....>|..0.
   bb6fc:	9c31c67f 607cc0ff 780cf0c1 1e7fcc07     ..1...|`...x....
   bb70c:	ffffff31 cfff3fe3 ffffffff ffffffff     1....?..........
   bb71c:	ff9f0146 0763fcff f8fcf3f1 1e1f7c3e     F.....c.....>|..
   bb72c:	c67f0c30 c0ff9c31 f0c1607c cc07780c     0...1...|`...x..
   bb73c:	ff311e7f 3fe3ffff ffff9fff ffffffff     ..1....?........
   bb74c:	0146ffff fcffff9f f3f10763 7c3ef8fc     ..F.....c.....>|
   bb75c:	0c301e1f 9c31c67f 607cc0ff 780cf0c1     ..0...1...|`...x
   bb76c:	1e7fcc07 ffffff31 3fff3fe3 ffffffff     ....1....?.?....
   bb77c:	ffffffff ff9f0106 0763fcff f8fcf3f1     ..........c.....
   bb78c:	1e1f7c3e c67f0c30 c0ff9c31 f0c1607c     >|..0...1...|`..
   bb79c:	cc07780c ff311e7f 3fe3ffff ffff7ffe     .x....1....?....
   bb7ac:	ffffffff 0106ffff fcffff9f f3f10763     ............c...
   bb7bc:	7c3ef8fc 0c301e1f 9c31c67f 607cc0ff     ..>|..0...1...|`
   bb7cc:	780cf0c1 1e7fcc07 ffffff31 fffc3fe3     ...x....1....?..
   bb7dc:	ffffffff ffffffff ff9f0186 0763fcff     ..............c.
   bb7ec:	f8fcf3f1 1e1f7c3e c67f0c30 c0ff9c31     ....>|..0...1...
   bb7fc:	f0c1607c cc07780c ff311e7f 3fe3ffff     |`...x....1....?
   bb80c:	fffffff9 ffffffff 0186ffff fcffff9f     ................
   bb81c:	f3f10763 7c3ef8fc 0c301e1f 9c31c67f     c.....>|..0...1.
   bb82c:	607cc0ff 780cf0c1 1e7fcc07 ffffff31     ..|`...x....1...
   bb83c:	fff33fe3 ffffffff ffffffff ff9f0186     .?..............
   bb84c:	0763fcff f8fcf3f1 1e1f7c3e c67f0c30     ..c.....>|..0...
   bb85c:	c0ff9c31 f0c1607c cc07780c ff311e7f     1...|`...x....1.
   bb86c:	3fe3ffff ffffffe7 ffffffff 01c6ffff     ...?............
   bb87c:	fcffff9f f3f10763 7c3ef8fc 0c301e1f     ....c.....>|..0.
   bb88c:	9c31c67f 607cc0ff 780cf0c1 1e7fcc07     ..1...|`...x....
   bb89c:	ffffff31 ffcf3fe3 ffffffff ffffffff     1....?..........
   bb8ac:	ff9f01c6 0763fcff f8fcf3f1 1e1f7c3e     ......c.....>|..
   bb8bc:	c67f0c30 c0ff9c31 f0c1607c cc07780c     0...1...|`...x..
   bb8cc:	ff311e7f 3fe3ffff ffffff9f ffffffff     ..1....?........
   bb8dc:	01c0ffff fcffff9f f3f10763 7c3ef8fc     ........c.....>|
   bb8ec:	0c301e1f 9c31c67f 607cc0ff 780cf0c1     ..0...1...|`...x
   bb8fc:	1e7fcc07 ffffff31 ff3f3fe3 ffffffff     ....1....??.....
   bb90c:	ffffffff ff9f01c0 0763fcff f8fcf3f1     ..........c.....
   bb91c:	1e1f7c3e c67f0c30 c0ff9c31 f0c1607c     >|..0...1...|`..
   bb92c:	cc07780c ff311e7f 3ee3ffff ffffff7f     .x....1....>....
   bb93c:	ffffffff f0cfffff fcffff9f f3f10763     ............c...
   bb94c:	7c3ef8fc 0c301e1f 9c31c67f 607cc0ff     ..>|..0...1...|`
   bb95c:	780cf0c1 1e7fcc07 ffffff31 ffff3de3     ...x....1....=..
   bb96c:	ffffffff ffffffff ff1ff8ff 0763fcff     ..............c.
   bb97c:	f8fcf3f1 1e1f7c3e c67f0c30 c0ff9c31     ....>|..0...1...
   bb98c:	f0c1607c cc07780c ff311e7f 3be3ffff     |`...x....1....;
   bb99c:	ffffffff ffffffff fcffffff fcffff1f     ................
   bb9ac:	f3f10763 7c3ef8fc 0c301e1f 9c31c67f     c.....>|..0...1.
   bb9bc:	607cc0ff 780cf0c1 1e7fcc07 ffffff31     ..|`...x....1...
   bb9cc:	ffff37e3 ffffffff ffffffff ff1ffeff     .7..............
   bb9dc:	0763fcff f8fcf3f1 1e1f7c3e c67f0c30     ..c.....>|..0...
   bb9ec:	c0ff9c31 f0c1607c cc07780c ff311e7f     1...|`...x....1.
   bb9fc:	0fe3ffff ffffffff ffffffff ffffffff     ................
   bba0c:	fcffff1f f3f10763 7c3ef8fc 0c301e1f     ....c.....>|..0.
   bba1c:	9c31c67f 607cc0ff 780cf0c1 1e7fcc07     ..1...|`...x....
   bba2c:	ffffff31 ffff1fe3 ffffffff ffffffff     1...............
   bba3c:	ff1fffff 0763fcff f8fcf3f1 1e1f7c3e     ......c.....>|..
   bba4c:	c67f0c30 c0ff9c31 f0c1607c cc07780c     0...1...|`...x..
   bba5c:	ff311e7f 3fe3ffff ffffffff ffffffff     ..1....?........
   bba6c:	ffffffff fcffff9f f3f10763 7c3ef8fc     ........c.....>|
   bba7c:	0c301e1f 9c31c67f 607cc0ff 780cf0c1     ..0...1...|`...x
   bba8c:	1e7fcc07 ffffff31 ffff7fe2 ffffffff     ....1...........
   bba9c:	ffffffff ff9fffff 0763fcff f8fcf3f1     ..........c.....
   bbaac:	1e1f7c3e c67f0c30 c0ff9c31 f0c1607c     >|..0...1...|`..
   bbabc:	cc07780c ff311e7f ffe0ffff ffffffff     .x....1.........
   bbacc:	ffffffff ffffffff fcffff9f f3f10763     ............c...
   bbadc:	7c3ef8fc 0c301e1f 9c31c67f 607cc0ff     ..>|..0...1...|`
   bbaec:	780cf0c1 1e7fcc07 ffffff31 ffffffe1     ...x....1.......
   bbafc:	ffffffff ffffffff ffdfffff 0763fcff     ..............c.
   bbb0c:	f8fcf3f1 1e1f7c3e c67f0c30 c0ff9c31     ....>|..0...1...
   bbb1c:	f0c1607c cc07780c ff311e7f ffe7ffff     |`...x....1.....
   bbb2c:	ffffffff ffffffff ffffffff fcffffdf     ................
   bbb3c:	f3f10763 7c3ef8fc 0c301e1f 9c31c67f     c.....>|..0...1.
   bbb4c:	607cc0ff 780cf0c1 1e7fcc07 ffffff31     ..|`...x....1...
   bbb5c:	ffffffef ffffffff ffffffff 1fdfffff     ................
   bbb6c:	0763fcff f8fcf3f1 1e1f7c3e c67f0c30     ..c.....>|..0...
   bbb7c:	c0ff9c31 f0c1607c cc07780c ff311e7f     1...|`...x....1.
   bbb8c:	ffdfffff ffffffff ffffffff ffffffff     ................
   bbb9c:	fcff0080 f3f10763 7c3ef8fc 0c301e1f     ....c.....>|..0.
   bbbac:	9c31c67f 607cc0ff 780cf0c1 1e7fcc07     ..1...|`...x....
   bbbbc:	ffffff31 ffffff3f ffffffff ffffffff     1...?...........
   bbbcc:	e087ffff 0763fc3f f8fcf3f1 1e1f7c3e     ....?.c.....>|..
   bbbdc:	c67f0c30 c0ff9c31 f0c1607c cc07780c     0...1...|`...x..
   bbbec:	ff311e7f ff7ffcff ffffffff ffffffff     ..1.............
   bbbfc:	ffffffff fc1ffeff f3f10763 7c3ef8fc     ........c.....>|
   bbc0c:	0c301e1f 9c31c67f 607cc0ff 780cf0c1     ..0...1...|`...x
   bbc1c:	1e7fcc07 f1ffff31 ffffffff ffffffff     ....1...........
   bbc2c:	ffffffff ffffffff 0763fc87 f8fcf3f1     ..........c.....
   bbc3c:	1e1f7c3e c67f0c30 c0ff9c31 f0c1607c     >|..0...1...|`..
   bbc4c:	cc07780c ff311e7f ffffc7ff ffffffff     .x....1.........
   bbc5c:	ffffffff ffffffff fcc3ffff f3f10763     ............c...
   bbc6c:	7c3ef8fc 0c301e1f 9c31c67f 607cc0ff     ..>|..0...1...|`
   bbc7c:	780cf0c1 1e7fcc07 1fffff31 ffffffff     ...x....1.......
   bbc8c:	ffffffff ffffffff ffffffff 0763fce1     ..............c.
   bbc9c:	f8fcf3f1 1e1f7c3e c67f0c30 c0ff9c31     ....>|..0...1...
   bbcac:	f0c1607c cc07780c ff311e7f fffffff8     |`...x....1.....
   bbcbc:	ffffffff ffffffff ffffffff fcf8ffff     ................
   bbccc:	f3f10763 7c3ef8fc 0c301e1f 9c31c67f     c.....>|..0...1.
   bbcdc:	607cc0ff 780cf0c1 1e7fcc07 ffe3ff31     ..|`...x....1...
   bbcec:	ffffffff ffffffff ffffffff ffffffff     ................
   bbcfc:	07637cf8 f8fcf3f1 1e1f7c3e c67f0c30     .|c.....>|..0...
   bbd0c:	c0ff9c31 f0c1607c cc07780c ff311e7f     1...|`...x....1.
   bbd1c:	ffffff1f ffffffff ffffffff ffffffff     ................
   bbd2c:	7cfcffff f3f10763 7c3ef8fc 0c301e1f     ...|c.....>|..0.
   bbd3c:	9c31c67f 607cc0ff 780cf0c1 1e7fcc07     ..1...|`...x....
   bbd4c:	fffff831 ffffffff ffffffff ffffffff     1...............
   bbd5c:	ffffffff 07633cfe f8fcf3f1 1e1f7c3e     .....<c.....>|..
   bbd6c:	c67f0c30 c0ff9c31 f0c1607c cc07780c     0...1...|`...x..
   bbd7c:	c7311e7f ffffffff ffffffff ffffffff     ..1.............
   bbd8c:	ffffffff 3cffffff f3f10763 7c3ef8fc     .......<c.....>|
   bbd9c:	0c301e1f 9c31c67f 607cc0ff 780cf0c1     ..0...1...|`...x
   bbdac:	1e7fcc07 ffff3f30 ffffffff ffffffff     ....0?..........
   bbdbc:	ffffffff ffffffff 07631cff f8fcf3f1     ..........c.....
   bbdcc:	1e1f7c3e c67f0c30 c0ff9c31 f0c1607c     >|..0...1...|`..
   bbddc:	cc07780c ff031e7f ffffffff ffffffff     .x..............
   bbdec:	ffffffff ffffffff 9cffffff f3f10763     ............c...
   bbdfc:	7c3ef8fc 0c301e1f 9c31c67f 607cc0ff     ..>|..0...1...|`
   bbe0c:	780cf0c1 1e7fcc07 ffffff1f ffffffff     ...x............
   bbe1c:	ffffffff ffffffff ffffffff 07638cff     ..............c.
   bbe2c:	f8fcf3f1 1e1f7c3e c67f0c30 c0ff9c31     ....>|..0...1...
   bbe3c:	f0c1607c cc07780c ffff107f ffffffff     |`...x..........
   bbe4c:	ffffffff ffffffff ffffffff 8cffffff     ................
   bbe5c:	f3f10763 7c3ef8fc 0c301e1f 9c31c67f     c.....>|..0...1.
   bbe6c:	607cc0ff 780cf0c1 077fcc07 ffffffff     ..|`...x........
   bbe7c:	ffffffff ffffffff ffffffff ffffffff     ................
   bbe8c:	0763ccff f8fcf3f1 1e1f7c3e c67f0c30     ..c.....>|..0...
   bbe9c:	c0ff9c31 f0c1607c cc07780c ffff7f7e     1...|`...x..~...
   bbeac:	ffffffff ffffffff ffffffff ffffffff     ................
   bbebc:	ccffffff f3f10763 7c3ef8fc 0c301e1f     ....c.....>|..0.
   bbecc:	9c31c67f 607cc0ff 780cf0c1 ff71cc07     ..1...|`...x..q.
   bbedc:	ffffffff ffffffff ffffffff ffffffff     ................
   bbeec:	ffffffff 0763ccff f8fcf3f1 1e1f7c3e     ......c.....>|..
   bbefc:	c67f0c30 c0ff9c31 f0c1607c cc07780c     0...1...|`...x..
   bbf0c:	ffffff07 ffffffff ffffffff ffffffff     ................
   bbf1c:	ffffffff ccffffff f3f10763 7c3ef8fc     ........c.....>|
   bbf2c:	0c301e1f 9c31c67f 607cc0ff 780cf0c1     ..0...1...|`...x
   bbf3c:	ff3fcc07 ffffffff ffffffff ffffffff     ..?.............
   bbf4c:	ffffffff ffffffff 0763ccff f8fcf3f1     ..........c.....
   bbf5c:	1e1f7c3e c67f0c30 c0ff9c31 f0c1607c     >|..0...1...|`..
   bbf6c:	8307780c ffffffff ffffffff ffffffff     .x..............
   bbf7c:	ffffffff ffffffff ccffffff f3f10763     ............c...
   bbf8c:	7c3ef8fc 0c301e1f 9c31c67f 607cc0ff     ..>|..0...1...|`
   bbf9c:	780cf0c1 ffff1f07 ffffffff ffffffff     ...x............
   bbfac:	ffffffff ffffffff ffffffff 0763ccff     ..............c.
   bbfbc:	f8fcf3f1 1e1f7c3e c67f0c30 c0ff9c31     ....>|..0...1...
   bbfcc:	f0c1607c ff00780c ffffffff ffffffff     |`...x..........
   bbfdc:	ffffffff ffffffff ffffffff ccffffff     ................
   bbfec:	f3f10763 7c3ef8fc 0c301e1f 9c31c67f     c.....>|..0...1.
   bbffc:	607cc0ff 780cf0c1 ffffff0f ffffffff     ..|`...x........
   bc00c:	ffffffff ffffffff ffffffff ffffffff     ................
   bc01c:	0763ccff f8fcf3f1 1e1f7c3e c67f0c30     ..c.....>|..0...
   bc02c:	c0ff9c31 f0c1607c ff7f780c ffffffff     1...|`...x......
   bc03c:	ffffffff ffffffff ffffffff ffffffff     ................
   bc04c:	ccffffff f3f10763 7c3ef8fc 0c301e1f     ....c.....>|..0.
   bc05c:	9c31c67f 607cc0ff 430cf0c1 ffffffff     ..1...|`...C....
   bc06c:	ffffffff ffffffff ffffffff ffffffff     ................
   bc07c:	ffffffff 07639cff f8fcf3f1 1e1f7c3e     ......c.....>|..
   bc08c:	c67f0c30 c0ff9c31 f0c1607c ffff3f0c     0...1...|`...?..
   bc09c:	ffffffff ffffffff ffffffff ffffffff     ................
   bc0ac:	ffffffff 9cffffff f3f10763 7c3ef8fc     ........c.....>|
   bc0bc:	0c301e1f 9c31c67f 607cc0ff ff01f0c1     ..0...1...|`....
   bc0cc:	ffffffff ffffffff ffffffff ffffffff     ................
   bc0dc:	ffffffff ffffffff 0763bcff f8fcf3f1     ..........c.....
   bc0ec:	1e1f7c3e c67f0c30 c0ff9c31 f0c1607c     >|..0...1...|`..
   bc0fc:	ffffff0f ffffffff ffffffff ffffffff     ................
   bc10c:	ffffffff ffffffff 3cffffff f3f10763     ...........<c...
   bc11c:	7c3ef8fc 0c301e1f 9c31c67f 607cc0ff     ..>|..0...1...|`
   bc12c:	fffff0c1 ffffffff ffffffff ffffffff     ................
   bc13c:	ffffffff ffffffff ffffffff 07637cff     .............|c.
   bc14c:	f8fcf3f1 1e1f7c3e c67f0c30 c0ff9c31     ....>|..0...1...
   bc15c:	87c1607c ffffffff ffffffff ffffffff     |`..............
   bc16c:	ffffffff ffffffff ffffffff 7cfeffff     ...............|
   bc17c:	f3f10763 7c3ef8fc 0c301e1f 9c31c67f     c.....>|..0...1.
   bc18c:	607cc0ff ffff7fc0 ffffffff ffffffff     ..|`............
   bc19c:	ffffffff ffffffff ffffffff ffffffff     ................
   bc1ac:	0763fcfe f8fcf3f1 1e1f7c3e c67f0c30     ..c.....>|..0...
   bc1bc:	c0ff9c31 ffc3607c ffffffff ffffffff     1...|`..........
   bc1cc:	ffffffff ffffffff ffffffff ffffffff     ................
   bc1dc:	fcfdffff f3f10763 7c3ef8fc 0c301e1f     ....c.....>|..0.
   bc1ec:	9c31c67f 607cc0ff ffffff1f ffffffff     ..1...|`........
   bc1fc:	ffffffff ffffffff ffffffff ffffffff     ................
   bc20c:	ffffffff 07633cf8 f8fcf3f1 1e1f7c3e     .....<c.....>|..
   bc21c:	c67f0c30 c0ff9c31 ffff617c ffffffff     0...1...|a......
   bc22c:	ffffffff ffffffff ffffffff ffffffff     ................
   bc23c:	ffffffff 00f0ffff f3f10763 7c3ef8fc     ........c.....>|
   bc24c:	0c301e1f 9c31c67f 0f7cc0ff ffffffff     ..0...1...|.....
   bc25c:	ffffffff ffffffff ffffffff ffffffff     ................
   bc26c:	ffffffff ffffffff 07230080 f8fcf3f1     ..........#.....
   bc27c:	1e1f7c3e c67f0c30 c0ff9c31 ffff7f7c     >|..0...1...|...
   bc28c:	ffffffff ffffffff ffffffff ffffffff     ................
   bc29c:	ffffffff ffffffff f81fffff f3f10703     ................
   bc2ac:	7c3ef8fc 0c301e1f 9c31c67f ff63c0ff     ..>|..0...1...c.
   bc2bc:	ffffffff ffffffff ffffffff ffffffff     ................
   bc2cc:	ffffffff ffffffff fcffffff 0703ff7f     ................
   bc2dc:	f8fcf3f1 1e1f7c3e c67f0c30 c0ff9c31     ....>|..0...1...
   bc2ec:	ffffff0f ffffffff ffffffff ffffffff     ................
   bc2fc:	ffffffff ffffffff ffffffff fffff9ff     ................
   bc30c:	f3f10783 7c3ef8fc 0c301e1f 9c31c67f     ......>|..0...1.
   bc31c:	ffffc0ff ffffffff ffffffff ffffffff     ................
   bc32c:	ffffffff ffffffff ffffffff f7ffffff     ................
   bc33c:	07e1ffff f8fcf3f1 1e1f7c3e c67f0c30     ........>|..0...
   bc34c:	c3ff9c31 ffffffff ffffffff ffffffff     1...............
   bc35c:	ffffffff ffffffff ffffffff ffffffff     ................
   bc36c:	ffffefff f3f107f1 7c3ef8fc 0c301e1f     ..........>|..0.
   bc37c:	9c31c67f ffffcfff ffffffff ffffffff     ..1.............
   bc38c:	ffffffff ffffffff ffffffff ffffffff     ................
   bc39c:	ffffffff 07f8ffff f8fcf3f1 1e1f7c3e     ............>|..
   bc3ac:	c67f0c30 3fff9c31 ffffffff ffffffff     0...1..?........
   bc3bc:	ffffffff ffffffff ffffffff ffffffff     ................
   bc3cc:	ffffffff ffffffff f3f107fc 7c3ef8fc     ..............>|
   bc3dc:	0c301e1f 9c31c67f fffffffc ffffffff     ..0...1.........
   bc3ec:	ffffffff ffffffff ffffffff ffffffff     ................
   bc3fc:	ffffffff ffffffff 07fcffff f8fcf3f1     ................
   bc40c:	1e1f7c3e c67f0c30 fff39c31 ffffffff     >|..0...1.......
   bc41c:	ffffffff ffffffff ffffffff ffffffff     ................
   bc42c:	ffffffff ffffffff ffffffff f3f107fe     ................
   bc43c:	7c3ef8fc 0c301e1f 9c31c67f ffffffe7     ..>|..0...1.....
   bc44c:	ffffffff ffffffff ffffffff ffffffff     ................
   bc45c:	ffffffff ffffffff ffffffff 07feffff     ................
   bc46c:	f8fcf3f1 1e1f7c3e c67f0c30 ff1f9c31     ....>|..0...1...
   bc47c:	ffffffff ffffffff ffffffff ffffffff     ................
   bc48c:	ffffffff ffffffff ffffffff ffffffff     ................
   bc49c:	f3f107ff 7c3ef8fc 0c301e1f 9c31c67f     ......>|..0...1.
   bc4ac:	ffffff7f ffffffff ffffffff ffffffff     ................
   bc4bc:	ffffffff ffffffff ffffffff ffffffff     ................
   bc4cc:	07ffffff f8fcf3f1 1e1f7c3e c67f0c30     ........>|..0...
   bc4dc:	e7ff9931 07e007fc fff3fffc ff03fcc7     1...............
   bc4ec:	e17ff8bf 0fffc7ff ffff03e0 ffffffff     ................
   bc4fc:	ffffffff f3f187ff 7c3ef8fc 0c301e1f     ..........>|..0.
   bc50c:	8331c67f 07fcc7ff fff803e0 f801ffe3     ..1.............
   bc51c:	e01fff03 01ff803f 03e007fe ffffffff     ....?...........
   bc52c:	ffffffff 87ffffff f8fcf3f1 1e1f7c3e     ............>|..
   bc53c:	c67f0c30 c7ff8f31 e3ff7ffc fec3fff0     0...1...........
   bc54c:	ffc3ff00 8c1fe23f 63fc007e ffffe3ff     ....?...~..c....
   bc55c:	ffffffff ffffffff f3f187ff 7c3ef8fc     ..............>|
   bc56c:	0c301e1f 3f31c67f fffc8fff ffc0e7ff     ..0...1?........
   bc57c:	ff7cfe03 c73ffec7 7c7ebe9f e7fff1f8     ..|...?...~|....
   bc58c:	ffffffff ffffffff 87ffffff f8fcf3f1     ................
   bc59c:	1e1f7c3e c67f0c30 9fff7f30 cffffffc     >|..0...0.......
   bc5ac:	fc03ffc0 fc8f7f7c fe8fcf7f f9797c7c     ....|.......||y.
   bc5bc:	ffffc7ff ffffffff ffffffff f3f187ff     ................
   bc5cc:	7c3ef8fc 0c301e1f ff31c67f fffc1fff     ..>|..0...1.....
   bc5dc:	fffc8fff 7ffefcf3 cffff81f fe7cfe8f     ..............|.
   bc5ec:	cffff979 ffffffff ffffffff 87ffffff     y...............
   bc5fc:	f8fcf3f1 1e1f7c3e c67f0c30 37feff27     ....>|..0...'..7
   bc60c:	1fff1ffc fcf3fffc f81f7efe fccfcf1f     .........~......
   bc61c:	f979fe7c ffff8fff ffffffff ffffffff     |.y.............
   bc62c:	f3f187ff 7c3ef8fc 0c301e1f ff1fc67f     ......>|..0.....
   bc63c:	0ffc67fe fffc3fff 7e7cfcf3 8f0ff007     .g...?....|~....
   bc64c:	7cfcf8cf 1ffff979 ffffffff ffffffff     ...|y...........
   bc65c:	87ffffff f8fcf3f1 1e1f7c3e c67f0c30     ........>|..0...
   bc66c:	67fcff3f 3ffec7ff fef3fffc f1e3ff38     ?..g...?....8...
   bc67c:	f1cf8fc7 f9f938fe ffff3fff ffffffff     .....8...?......
   bc68c:	ffffffff f30180ff 7c3ef8fc 0c301e1f     ..........>|..0.
   bc69c:	ffffc47f e3ffe7fc fffc7ffc ff00fef3     ................
   bc6ac:	8fe7e3f3 00ffe3cf 7ffef9f9 ffffffff     ................
   bc6bc:	ffffffff 80ffffff f8fcf301 1e1f7c3e     ............>|..
   bc6cc:	c17f0c30 e3f8ffff 7ffcf3ff fff3fffc     0...............
   bc6dc:	e7f3ff81 e3cfcfe3 f9f981ff ffff7ffc     ................
   bc6ec:	ffffffff ffffffff f3c1ffff 7c3ef8fc     ..............>|
   bc6fc:	0c301e1f ffffc77f f3ff00f0 fffcfff8     ..0.............
   bc70c:	ffe3fff3 cfe3e7f3 e3ffc78f fffcf9f9     ................
   bc71c:	ffffffff ffffffff ffffffff f8fcf3f0     ................
   bc72c:	1e1f7c3e 9f7f0c30 00f8ffff fff9e3ff     >|..0...........
   bc73c:	fff3fffc e7f3ffe3 8f8fcfe3 f9f9e3ff     ................
   bc74c:	fffffff8 ffffffff ffffffff 73f8ffff     ...............s
   bc75c:	7c3ef8fc 0c301e1f ffff3f7f e7ffe7ff     ..>|..0..?......
   bc76c:	fffcfff9 fdc7fff3 cfe7e3e3 c7ff9f9f     ................
   bc77c:	fff9f1f8 ffffffff ffffffff ffffffff     ................
   bc78c:	f8fc33fc 1e1f7c3e ff7c0c30 e7ffffff     .3..>|..0.|.....
   bc79c:	fff9c7f1 fff3fffc f1c7f88f 9f1fe387     ................
   bc7ac:	63fc8fff fffffff9 ffffffff ffffffff     ...c............
   bc7bc:	33feffff 7c3ef8fc 0c301e1f ffffff7b     ...3..>|..0.{...
   bc7cc:	0ff8e7ff fffcfff9 fc9ffff3 e00ff80f     ................
   bc7dc:	9f3f803f fff907fe ffffffff ffffffff     ?.?.............
   bc7ec:	ffffffff f8fc13ff 1e1f7c3e ff670c30     ........>|..0.g.
   bc7fc:	f7ffffff fff91ffc fff3fffc fc1ffe9f     ................
   bc80c:	807ff83f 0fff9f7f fffffff9 ffffffff     ?...............
   bc81c:	ffffffff 13ffffff 7c3ef8fc 0c301e1f     ..........>|..0.
   bc82c:	ffffff1f ffffffff ffffffff ffffffff     ................
   bc83c:	ffffffff ffffffff ffffffff ffffffff     ................
   bc84c:	ffffffff ffffffff f8fc83ff 1e1f7c3e     ............>|..
   bc85c:	ff7f0830 ffffffff ffffffff ffffffff     0...............
   bc86c:	ffffffff ffffffff ffffffff ffffffff     ................
   bc87c:	ffffffff ffffffff 83ffffff 7c3ef8fc     ..............>|
   bc88c:	03301e1f ffffffff ffffffff ffffffff     ..0.............
   bc89c:	ffffffff ffffffff ffffffff ffffffff     ................
   bc8ac:	ffffffff ffffffff ffffffff f8fc83ff     ................
   bc8bc:	1e1f7c3e ffff3f30 ffffffff ffffffff     >|..0?..........
   bc8cc:	ffffffff ffffffff ffffffff ffffffff     ................
   bc8dc:	ffffffff ffffffff ffffffff c3ffffff     ................
   bc8ec:	7c3ef8fc ff231e1f ffffffff ffffffff     ..>|..#.........
   bc8fc:	ffffffff ffffffff ffffffff ffffffff     ................
   bc90c:	ffffffff ffffffff ffffffff ffffffff     ................
   bc91c:	f8fcc3ff 1e1f7c3e ffffff1f ffffffff     ....>|..........
   bc92c:	ffffffff ffffffff ffffffff ffffffff     ................
   bc93c:	ffffffff ffffffff ffffffff ffffffff     ................
   bc94c:	c3ffffff 7c3ef8fc ffff011f ffffffff     ......>|........
   bc95c:	ffffffff ffffffff ffffffff ffffffff     ................
   bc96c:	ffffffff ffffffff ffffffff ffffffff     ................
   bc97c:	ffffffff f8fcc3ff 1f1e7c3e ffffffff     ........>|......
   bc98c:	ffffffff ffffffff ffffffff ffffffff     ................
   bc99c:	ffffffff ffffffff ffffffff ffffffff     ................
   bc9ac:	ffffffff 83ffffff 7c3ef8fc ffffff00     ..........>|....
   bc9bc:	ffffffff ffffffff ffffffff ffffffff     ................
   bc9cc:	ffffffff ffffffff ffffffff ffffffff     ................
   bc9dc:	ffffffff ffffffff f8fc93ff ff1f7c3e     ............>|..
   bc9ec:	ffffffff ffffffff ffffffff ffffffff     ................
   bc9fc:	ffffffff ffffffff ffffffff ffffffff     ................
   bca0c:	ffffffff ffffffff 93ffffff 013ef8fc     ..............>.
   bca1c:	ffffffff ffffffff ffffffff ffffffff     ................
   bca2c:	ffffffff ffffffff ffffffff ffffffff     ................
   bca3c:	ffffffff ffffffff ffffffff f8fc33ff     .............3..
   bca4c:	ffff0f3c ffffffff ffffffff ffffffff     <...............
   bca5c:	ffffffff ffffffff ffffffff ffffffff     ................
   bca6c:	ffffffff ffffffff ffffffff 73ffffff     ...............s
   bca7c:	ff01f8fc ffffffff ffffffff ffffffff     ................
   bca8c:	ffffffff ffffffff ffffffff ffffffff     ................
   bca9c:	ffffffff ffffffff ffffffff 00e0ffff     ................
   bcaac:	f0f80100 ffffff1f ffffffff ffffffff     ................
   bcabc:	ffffffff ffffffff ffffffff ffffffff     ................
   bcacc:	ffffffff ffffffff ffffffff 00ffffff     ................
   bcadc:	feffff3f ffff0f00 ffffffff ffffffff     ?...............
   bcaec:	ffffffff ffffffff ffffffff ffffffff     ................
   bcafc:	ffffffff ffffffff ffffffff ffffffff     ................
   bcb0c:	ffff7f80 ffffffff ffffffff ffffffff     ................
   bcb1c:	ffffffff ffffffff ffffffff ffffffff     ................
   bcb2c:	ffffffff ffffffff ffffffff ffffffff     ................
   bcb3c:	ffffffff ffffffff ffffffff ffffffff     ................
   bcb4c:	ffffffff ffffffff ffffffff ffffffff     ................
   bcb5c:	ffffffff ffffffff ffffffff ffffffff     ................
   bcb6c:	ffffffff ffffffff ffffffff ffffffff     ................
   bcb7c:	ffffffff ffffffff ffffffff ffffffff     ................
   bcb8c:	ffffffff ffffffff ffffffff ffffffff     ................
   bcb9c:	ffffffff ffffffff ffffffff ffffffff     ................
   bcbac:	ffffffff ffffffff ffffffff ffffffff     ................
   bcbbc:	ffffffff ffffffff ffffffff ffffffff     ................
   bcbcc:	ffffffff ffffffff ffffffff ffffffff     ................
   bcbdc:	ffffffff ffffffff ffffffff ffffffff     ................
   bcbec:	ffffffff ffffffff ffffffff ffffffff     ................
   bcbfc:	ffffffff ffffffff ffffffff ffffffff     ................
   bcc0c:	ffffffff ffffffff ffffffff ffffffff     ................
   bcc1c:	ffffffff ffffffff ffffffff ffffffff     ................
   bcc2c:	ffffffff ffffffff ffffffff e0ffffff     ................
	...
   bcc5c:	0f000000 ffffffff ffffffff ffffffff     ................
   bcc6c:	0000e0ff 00000000 00000000 00000000     ................
	...
   bcc90:	ffff0f00 ffffffff ffffffff e0ffffff     ................
	...
   bccc0:	0f000000 ffffffff ffffffff ffffffff     ................
   bccd0:	0000e0ff 00000000 00000000 00000000     ................
	...
   bccf4:	ffff0f00 ffffffff ffffffff e0ffffff     ................
	...
   bcd24:	0f000000 ffffffff ffffffff ffffffff     ................
   bcd34:	0000e0ff 00000000 00000100 00000000     ................
   bcd44:	00400000 03000000 00000000 00000000     ..@.............
   bcd54:	00000000 ffff0f00 ffffffff ffffffff     ................
   bcd64:	e0ffffff 00000000 03000001 808101fc     ................
   bcd74:	00c0ff00 fd030060 01fe7f01 0000fcf3     ....`...........
   bcd84:	803f0080 0f000000 ffffffff ffffffff     ..?.............
   bcd94:	ffffffff 0000e0ff 00010000 03fcff03     ................
   bcda4:	c003f8cf 40ff1130 ff01ff1f 08f2c3ff     ....0..@........
   bcdb4:	03c02000 0000f8ff ffff0f00 ffffffff     . ..............
   bcdc4:	ffffffff e0ffffff 00000000 df030001     ................
   bcdd4:	f89f0fc0 3fe0bf03 0e1fc0ff 8307e601     .......?........
   bcde4:	e00008e2 f8ff0370 0f000000 ffffffff     ....p...........
   bcdf4:	ffffffff ffffffff 0000e0ff fc1f0000     ................
   bce04:	0f400203 ff01801d c0e13fc0 0f009801     ..@......?......
   bce14:	f82301f8 037cc001 000010c0 ffff0f00     ..#...|.........
   bce24:	ffffffff ffffffff e0ffffff 00000000     ................
   bce34:	ce01fe7f f001037c 1c408001 70008061     ....|.....@.a..p
   bce44:	01fc0f00 c407f043 90ff003e 0f000000     ....C...>.......
   bce54:	ffffffff ffffffff ffffffff 0000e0ff     ................
   bce64:	fe7f0000 01fc8f03 7f01f81f 00ff1dc0     ................
   bce74:	3e007000 10e20108 1f1e8c07 000090ff     .p.>............
   bce84:	ffff0f00 ffffffff ffffffff e0ffffff     ................
   bce94:	00000000 0e000073 301f0140 1fc0e703     ....s...@..0....
   bcea4:	ff1f00ff 01f8f7e1 0e071032 20001f1c     ........2...... 
   bceb4:	0f000000 ffffffff ffffffff ffffffff     ................
   bcec4:	0000e0ff 80030000 01fec101 e4030001     ................
   bced4:	00e11f80 e7e1ff7f f02301f8 00000f00     ..........#.....
   bcee4:	000020ff ffff0f00 ffffffff ffffffff     . ..............
   bcef4:	e0ffffff 00000000 0f03c002 f00701fc     ................
   bcf04:	1c002400 217e0061 0108c4c1 1b00f043     .$..a.~!....C...
   bcf14:	20ff0700 0f000000 ffffffff ffffffff     ... ............
   bcf24:	ffffffff 0000e0ff 60060000 01c04e00     ...........`.N..
   bcf34:	a603f01f 00fe1860 07012070 50c201f8     ....`...p .....P
   bcf44:	07803100 00002002 ffff0f00 ffffffff     .1... ..........
   bcf54:	ffffffff e0ffffff 00000000 8001300c     .............0..
   bcf64:	801d0180 1f60a603 200000fe 01f80700     ......`.... ....
   bcf74:	60005802 203e06c0 0f000000 ffffffff     .X.`..> ........
   bcf84:	ffffffff ffffffff 0000e0ff 381c0000     ...............8
   bcf94:	01c0fe03 26008001 00c03e00 0c002000     .......&.>... ..
   bcfa4:	98060218 0fe0e000 000020fe ffff0f00     ......... ......
   bcfb4:	ffffffff ffffffff e0ffffff 00000000     ................
   bcfc4:	ff031e38 fe0f01e0 00c0ff01 600030c0     8............0.`
   bcfd4:	02181c00 ff01fc07 60000ff0 0f000000     ...........`....
   bcfe4:	ffffffff ffffffff ffffffff 0000e0ff     ................
   bcff4:	1ff00100 01ff03c2 ff1ffc7f f0ff00fc     ................
   bd004:	38006000 ef1f0208 00f8ff03 0000e03f     .`.8........?...
   bd014:	ffff0f00 ffffffff ffffffff e0ffffff     ................
   bd024:	01000000 00800fc0 3c78013f 00f8001e     ........?.x<....
   bd034:	c001f0ff 0208f000 00030f30 c03f0030     ........0...0.?.
   bd044:	0f000000 ffffffff ffffffff ffffffff     ................
   bd054:	0000e0ff 07000000 011e0000 00000000     ................
   bd064:	e0030038 00008007 06000208 00000000     8...............
   bd074:	0000c007 ffff0f00 ffffffff ffffffff     ................
   bd084:	e0ffffff 00000000 00000000 00000000     ................
   bd094:	00000000 0000c000 00000000 00000000     ................
   bd0a4:	00000000 0f000000 ffffffff ffffffff     ................
   bd0b4:	ffffffff 0000e0ff 00000000 00000000     ................
	...
   bd0dc:	ffff0f00 ffffffff ffffffff e0ffffff     ................
	...
   bd10c:	0f000000 ffffffff ffffffff ffffffff     ................
   bd11c:	0000e0ff 00000000 00000000 00000000     ................
	...
   bd140:	ffff0f00 ffffffff ffffffff e0ffffff     ................
	...
   bd170:	0f000000 ffffffff ffffffff ffffffff     ................
   bd180:	ffffffff ffffffff ffffffff ffffffff     ................
   bd190:	ffffffff ffffffff ffffffff ffffffff     ................
   bd1a0:	ffffffff ffffffff ffffffff ffffffff     ................
   bd1b0:	ffffffff ffffffff ffffffff ffffffff     ................
   bd1c0:	ffffffff ffffffff ffffffff ffffffff     ................
   bd1d0:	ffffffff ffffffff ffffffff ffffffff     ................
   bd1e0:	ffffffff ffffffff ffffffff ffffffff     ................
   bd1f0:	ffffffff ffffffff ffffffff ffffffff     ................
   bd200:	ffffffff ffffffff ffffffff ffffffff     ................

000bd210 <_ZL15Bitmap400x300_2>:
   bd210:	ffffffff ffffffff ffffffff ffffffff     ................
   bd220:	ffffffff ffffffff ffffffff ffffffff     ................
   bd230:	ffffffff ffffffff ffffffff ffffffff     ................
   bd240:	ffffffff ffffffff ffffffff ffffffff     ................
   bd250:	ffffffff ffffffff ffffffff ffffffff     ................
   bd260:	ffffffff ffffffff ffffffff ffffffff     ................
   bd270:	ffffffff ffffffff ffffffff ffffffff     ................
   bd280:	ffffffff ffffffff ffffffff ffffffff     ................
   bd290:	ffffffff ffffffff ffffffff ffffffff     ................
   bd2a0:	ffffffff ffffffff ffffffff ffffffff     ................
   bd2b0:	ffffffff ffffffff ffffffff ffffffff     ................
   bd2c0:	ffffffff ffffffff ffffffff ffffffff     ................
   bd2d0:	ffffffff ffffffff ffffffff ffffffff     ................
   bd2e0:	ffffffff ffffffff ffffffff ffffffff     ................
   bd2f0:	ffffffff ffffffff ffffffff ffffffff     ................
   bd300:	ffffffff ffffffff ffffffff ffffffff     ................
   bd310:	ffffffff ffffffff ffffffff ffffffff     ................
   bd320:	ffffffff ffffffff ffffffff ffffffff     ................
   bd330:	ffffffff ffffffff ffffffff ffffffff     ................
   bd340:	ffffffff ffffffff ffffffff ffffffff     ................
   bd350:	ffffffff ffffffff ffffffff ffffffff     ................
   bd360:	ffffffff ffffffff ffffffff ffffffff     ................
   bd370:	ffffffff ffffffff ffffffff ffffffff     ................
   bd380:	ffffffff ffffffff ffffffff ffffffff     ................
   bd390:	ffffffff ffffffff ffffffff ffffffff     ................
   bd3a0:	ffffffff ffffffff ffffffff ffffffff     ................
   bd3b0:	ffffffff ffffffff ffffffff ffffffff     ................
   bd3c0:	ffffffff ffffffff ffffffff ffffffff     ................
   bd3d0:	ffffffff ffffffff ffffffff ffffffff     ................
   bd3e0:	ffffffff ffffffff ffffffff ffffffff     ................
   bd3f0:	ffffffff ffffffff ffffffff ffffffff     ................
   bd400:	ffffffff ffffffff ffffffff ffffffff     ................
   bd410:	ffffffff ffffffff ffffffff ffffffff     ................
   bd420:	ffffffff ffffffff ffffffff ffffffff     ................
   bd430:	ffffffff ffffffff ffffffff ffffffff     ................
   bd440:	ffffffff ffffffff ffffffff ffffffff     ................
   bd450:	ffffffff ffffffff ffffffff ffffffff     ................
   bd460:	ffffffff ffffffff ffffffff ffffffff     ................
   bd470:	ffffffff ffffffff ffffffff ffffffff     ................
   bd480:	ffffffff ffffffff ffffffff ffffffff     ................
   bd490:	ffffffff ffffffff ffffffff ffffffff     ................
   bd4a0:	ffffffff ffffffff ffffffff ffffffff     ................
   bd4b0:	ffffffff ffffffff ffffffff ffffffff     ................
   bd4c0:	ffffffff ffffffff ffffffff ffffffff     ................
   bd4d0:	ffffffff ffffffff ffffffff ffffffff     ................
   bd4e0:	ffffffff ffffffff ffffffff ffffffff     ................
   bd4f0:	e1ffffff ffffffff ffffffff ffffffff     ................
   bd500:	ffffffff ffffffff ffffffff ffffffff     ................
   bd510:	ffffffff ffffffff ffffffff ffffffff     ................
   bd520:	ffffffff ffff0fff ffffffff ffffffff     ................
   bd530:	ffffffff ffffffff ffffffff ffffffff     ................
   bd540:	ffffffff ffffffff ffffffff ffffffff     ................
   bd550:	ffffffff 3ffeffff ffffffff ffffffff     .......?........
   bd560:	ffffffff ffffffff ffffffff ffffffff     ................
   bd570:	ffffffff ffffffff ffffffff ffffffff     ................
   bd580:	ffffffff ffffffff ffff70fe ffffffff     .........p......
   bd590:	ffffffff ffffffff ffffffff ffffffff     ................
   bd5a0:	ffffffff ffffffff ffffffff ffffffff     ................
   bd5b0:	ffffffff ffffffff 67feffff ffff01f3     ...........g....
   bd5c0:	ffffffff ffffffff ffffffff ffffffff     ................
   bd5d0:	ffffffff ffffffff fff373c3 ffffffdf     .........s......
   bd5e0:	ffffffff ffffffff f8ffffff fd93ff3e     ............>...
   bd5f0:	ffffffff ffffffff ffffffff ffffffff     ................
   bd600:	ffffffff ffffffff 009fffff ff7cee7c     ............|.|.
   bd610:	ffffffff ffffffff ffffffff ff0cffff     ................
   bd620:	ffffffff ffffffff ffffffff ffffffff     ................
   bd630:	ffffffff ffffffff ffffffff 677ee038     ............8.~g
   bd640:	ffffffef ffffffff ffffffff ffffffff     ................
   bd650:	ffffffcd ffffffff ffffffff ffffffff     ................
   bd660:	ffffffff ffffffff ffffffff 38e7feff     ...............8
   bd670:	ffff333f ffffff07 ffffffff ffffffff     ?3..............
   bd680:	ef6dfeff ff7f1efc ffffffff ffffffff     ..m.............
   bd690:	ffffffff ffffffff ffffffff fcffffff     ................
   bd6a0:	fbbfbfff fff1f8ff ffffffff ffffffff     ................
   bd6b0:	f0ffffff ffffff0b ffffff9f ffffffff     ................
   bd6c0:	ffffffff ffffffff ffffffff ffffffff     ................
   bd6d0:	ff3f84ff ffffffff ffff7ffe ffffffff     ..?.............
   bd6e0:	ffffffff ff0bfeff ff3fccfb ffffffff     ..........?.....
   bd6f0:	ffffffff ffffffff ffffffff ffffffff     ................
   bd700:	7ffcffff ffffffdf 3fffffff ffffffff     ...........?....
   bd710:	ffffffff ffffffff fe1ffe1f ffffff03     ................
   bd720:	ffffffff ffffffff ffffffff ffffffff     ................
   bd730:	ffffffff ffe7cff9 ffffffff ffff8fff     ................
   bd740:	ffffffff ffffffff fe9fffff ff03ff7f     ................
   bd750:	ffffffff ffffffff ffffffff ffffffff     ................
   bd760:	ffffffff f1e3ffff ffffffff 01f8ffff     ................
   bd770:	ffffffff ffffffff ff1dc0ff 3fe4fb1f     ...............?
   bd780:	ffffffe1 ffffffff ffffffff ffffffff     ................
   bd790:	ffffffff ffffffff fffffce0 fffffdff     ................
   bd7a0:	ff7ff8ff ffffffff 00f8ffff f33fdf00     ..............?.
   bd7b0:	fff0cfff ffffffff ffffffff ffffffff     ................
   bd7c0:	ffffffff ffffffff beffffff ffffffff     ................
   bd7d0:	ffffffe7 ffffff3f ffffffff 000000e0     ....?...........
   bd7e0:	fbffff7f ffff3f38 ffffffff ffffffff     ....8?..........
   bd7f0:	ffffffff ffffffff ffffffff ffffffff     ................
   bd800:	ffffffff ff9fffff ffffffff 0000feff     ................
   bd810:	ff070000 1f0cffff ffffffff ffffffff     ................
   bd820:	ffffffff ffffffff ffffffff ffffffff     ................
   bd830:	ffffffff ffffffff ffffffcf 80ffffff     ................
   bd840:	e4983903 ffffff01 ffff9f25 ffffffff     .9......%.......
   bd850:	ffffffff ffffffff ffffffff ffffffff     ................
   bd860:	ffffffff ffffffff ffefffff ffffffff     ................
   bd870:	ff6700ff 7f30cefd dfc4ff0f ffffffff     ..g...0.........
   bd880:	ffffffff ffffffff ffffffff ffffffff     ................
   bd890:	ffff4ffc ffffffff ffffffff ffffffff     .O..............
   bd8a0:	61fcffff fcff1fec fe070ff0 ffff4fe2     ...a.........O..
   bd8b0:	ffffffff ffffffff ffffffff ffffffff     ................
   bd8c0:	87f9ffff ffffffff ffffffef ffffffff     ................
   bd8d0:	ffffffff 3f860fe0 03fff7b9 0f73ffe1     .......?......s.
   bd8e0:	ffffffff ffffffff ffffffff ffffffff     ................
   bd8f0:	ffffffff fffffffb ffffffff ffffffff     ................
   bd900:	ffffffff 3ec3ffff c1a37f1e ffe1017e     .......>....~...
   bd910:	ffff8fb9 ffffffff ffffffff ffffffff     ................
   bd920:	ffffffff ffffffff ffffffff f7fffffe     ................
   bd930:	ffffffff feffffff fffc713f 00fefbcf     ........?q......
   bd940:	8fddfffc ffffffff ffffffff ffffffff     ................
   bd950:	ffffffff ffffffff ff7fffff ffffffff     ................
   bd960:	fffffbff ffffffff c33ffcff ffffffff     ..........?.....
   bd970:	7f3e00ce ffff07fc ffffffff ffffffff     ..>.............
   bd980:	ffffffff ffffffff ffffffff ffffff3f     ............?...
   bd990:	fdffffff ffcfffff fdffffff ffff8efd     ................
   bd9a0:	fcffffff 8fec9f0f ffffffff ffffffff     ................
   bd9b0:	ffffffff ffffffff ffffffff ef1fffff     ................
   bd9c0:	ffffffff fffffdff ffffffe7 1effffff     ................
   bd9d0:	ffffffff cf077cf8 ffffc7fe ffffffff     .....|..........
   bd9e0:	ffffffff ffffffff ffffffff 7ffeffff     ................
   bd9f0:	fffffb0f fefffffb fffbffff f1ffffff     ................
   bda00:	fffbff1f fcffffff 47f6cf06 ffffffff     ...........G....
   bda10:	ffffffff ffffffff ffffffff ffffffff     ................
   bda20:	ff0fffe1 ffffffff dfffefff ffffdfff     ................
   bda30:	ff0100fc ffffffff e704c0ff ffff67fe     .............g..
   bda40:	ffffffff ffffffff ffffffff ffffffff     ................
   bda50:	ef07ffff ff7fff01 effffffd effee77f     ................
   bda60:	00e0ffff ffffff00 f4ffffff 63fff780     ...............c
   bda70:	ffffffff ffffffff ffffffff ffffffff     ................
   bda80:	feffffff ff80ff1f ffffffff f7ffffff     ................
   bda90:	fffff7fe 3f4000c0 7fffffff f300ffff     ......@?........
   bdaa0:	ffff43fb ffffffff ffffffff ffffffff     .C..............
   bdab0:	ffffffff 7f3ffeff ffff7b80 f7ffffff     ......?..{......
   bdac0:	7bfff3ff 0000ffff fdff1f04 f3fffff6     ...{............
   bdad0:	03fbfbe0 ffffffff ffffffff ffffffff     ................
   bdae0:	ffffffff 3cf9ffff 3980ff3f ffffffff     .......<?..9....
   bdaf0:	fbdff7ff fefff9ff 0f0e0010 b7a7ffff     ................
   bdb00:	5cfcffff ffffc3fb ffffffff ffffffff     ...\............
   bdb10:	ffffffff ffffffff ffff00fc ffff1480     ................
   bdb20:	ffffffff fdfff9df 00e0f8ff fbff0f1e     ................
   bdb30:	ffff0703 e1fb3e82 ffffffff ffffffff     .....>..........
   bdb40:	ffffffff ffffffff 01feffff 1680ffff     ................
   bdb50:	bffffffb fdefffff f1fff0ff 0f7e00c0     ..............~.
   bdb60:	0f06fbff 3e08ffff ffffe1ff ffffffff     .......>........
   bdb70:	ffffffff ffffffff ffffffff ffff03fe     ................
   bdb80:	ff7b1b00 fffffffd f0fdfcef 0000e3ff     ..{.............
   bdb90:	ffff2f3e ffff380c f9ff3ffc ffffffff     >/...8...?......
   bdba0:	ffffffff ffffffff ffffffff 07ffffff     ................
   bdbb0:	1b00ffff ffffff7f fcefffff e77ff8fe     ................
   bdbc0:	0fce0100 6308ffff 1feeffff fffff9ff     .......c........
   bdbd0:	ffffffff ffffffff ffffffff ffffffff     ................
   bdbe0:	feff0fff ffbf0d00 ffffffff 7c7ffeff     ...............|
   bdbf0:	0000ce07 ffff3f7e ffbf8f81 edff0ff3     ....~?..........
   bdc00:	ffffffff ffffffff ffffffff ffffffff     ................
   bdc10:	0fffffff 0d20feff fffeff9f feffffff     ...... .........
   bdc20:	fe81bc3f 6f3e0200 1ff0ffff 87fdffff     ?.....>o........
   bdc30:	ffffe0f7 ffffffff ffffffff ffffffff     ................
   bdc40:	ffffffff fcff1ffe ffdf0c60 fdfdffff     ........`.......
   bdc50:	bebffeff 0000fcc0 ffff4f0e ffff6ffc     .........O...o..
   bdc60:	e0f707f6 ffffffff ffffffff ffffffff     ................
   bdc70:	ffffffff 1ffcffff 1ec0fcff f7ffffff     ................
   bdc80:	feeffdfe 3860dedf 4f6e0000 ffffffff     ......`8..nO....
   bdc90:	43f0ffff ff7fe0f7 ffffffff ffffffff     ...C............
   bdca0:	ffffffff ffffffff fcff2ff8 ffef1ec0     ........./......
   bdcb0:	fdff7fff dfdffec7 03000000 ffff1f3e     ............>...
   bdcc0:	fffff3ff e0f763fc ffffff3f ffffffff     .....c..?.......
   bdcd0:	ffffffff ffffffff 3ff0ffff 9ac7fcff     ...........?....
   bdce0:	ffffffef fee7ffff 0020fcdf 1ffec531     .......... .1...
   bdcf0:	f7ffffff 73ffff7f ff1fe0f7 ffffffff     .......s........
   bdd00:	ffffffff ffffffff ffffffff fcff7ff0     ................
   bdd10:	ff6f9b87 fdffbbff e8cffee7 72000030     ..o.........0..r
   bdd20:	ffff3ffc ff9ffdff ecf7f1ff ffffff80     .?..............
   bdd30:	ffffffff ffffffff ffffffff fff8ffff     ................
   bdd40:	9f83fcff bbffff6f fff7fdfe 0318e9ef     ....o...........
   bdd50:	3ffc3909 ffffffff e8feffff ffe1ccf7     .9.?............
   bdd60:	ffffffff ffffffff ffffffff ffffffff     ................
   bdd70:	fdfffff9 fdff1f8c fdfebbff e8effff7     ................
   bdd80:	0fcc0d2e ffff7ff8 ff7ff0ff cce764fe     .............d..
   bdd90:	ffffff71 ffffffff ffffffff ffffffff     q...............
   bdda0:	fff3ffff 369ffdff bbfffd7f fff77dff     .......6.....}..
   bddb0:	0633fcef fff80ff7 ffffffff 30ffff8f     ..3............0
   bddc0:	ff1fcce7 ffffffff ffffffff ffffffff     ................
   bddd0:	ffffffff fdffffe7 fe7fbe9f 7fffb9ff     ................
   bdde0:	fce7ffff cf7f873d fffffff1 ffcfffff     ....=...........
   bddf0:	cc7798ff ffffff3f ffffffff ffffffff     ..w.?...........
   bde00:	ffffffff ffefffff b69ffdff f9fffe7f     ................
   bde10:	fffffdff c71ef8e7 ffe3ffff feffffff     ................
   bde20:	ecffff3f ff5f8c77 ffffffff ffffffff     ?...w._.........
   bde30:	ffffffff ffffffff fcfdffcf fe7f36df     .............6..
   bde40:	bfffffff f8e7ffff 9fff6307 ffffff87     .........c......
   bde50:	ff1fffff 9c77feff ffffffef ffffffff     ......w.........
   bde60:	ffffffff ffffffff ffdfffff 33cefcff     ...............3
   bde70:	feffffff ffffbfff b37bfce7 ff0ffeff     ..........{.....
   bde80:	ffffffff feffff4f ff799c77 ffffffff     ....O...w.y.....
   bde90:	ffffffff ffffffff ffffffff fcffff9f     ................
   bdea0:	ffff3bc0 ff7ffe6f feeffff7 fcffe139     .;..o.......9...
   bdeb0:	ffffff0f ffc7fffe dc3fddfd ffffff7f     ..........?.....
   bdec0:	ffffffff ffffffff ffffffff ff9fffff     ................
   bded0:	3bc0fcff ff6fffff ffe7df7e e01cfedf     ...;..o.~.......
   bdee0:	ff8ff807 3ffeffff edffffc3 ff7ffc3f     .......?....?...
   bdef0:	ffffffff ffffffff ffffffff ffffffff     ................
   bdf00:	fcffff3f ffff19c0 df7eff6f fedf7fe7     ?.......o.~.....
   bdf10:	0100780e ffffffc7 ffcf0fff fcbfffff     .x..............
   bdf20:	ffffff7f ffffffff ffffffff ffffffff     ................
   bdf30:	ffbfffff dc40fcbf ff6fffff 7ff74f7f     ......@...o..O..
   bdf40:	3867ffdf ffc70300 83ffffff dfffffaf     ..g8............
   bdf50:	ff7ff61f ffffffff ffffffff ffffffff     ................
   bdf60:	ffffffff fcbbff9f ffefce63 4fbfff6f     ........c...o..O
   bdf70:	ffdffff7 333fd863 fcffffe7 fff7f17f     ....c.?3........
   bdf80:	f21fffff ffffff7f ffffffff ffffffff     ................
   bdf90:	ffffffff ff9fffff e667fcbb bfefff77     ..........g.w...
   bdfa0:	7ff76fbf ee71ffb7 fff3bb1f feffffff     .o....q.........
   bdfb0:	ffffffdb ff7fe31f ffffffff ffffffff     ................
   bdfc0:	ffffffff ffffffff fcffff9f fb37ff7f     ..............7.
   bdfd0:	afbfff7f f9b77fff 991ffe3c fffffff1     ........<.......
   bdfe0:	ffdf9fff c39ffcff ffffff7f ffffffff     ................
   bdff0:	ffffffff ffffffff ff9bffff ff7ffc7f     ................
   be000:	ff7fff9a ffffafbf 7b3ef8bd fff89c1f     ..........>{....
   be010:	8fffffff fcffffef ff3fe71f ffffffff     ..........?.....
   be020:	ffffffff ffffffff ffffffff f87fff9f     ................
   be030:	ffdaffb7 bfbfffff fc6dffff 8c8fff1f     ..........m.....
   be040:	ffff7f98 fff7f3ff e71feeff ffffff3f     ............?...
   be050:	ffffffff ffffffff ffffffff fb9fffff     ................
   be060:	ffbffc7f ffff7cc9 ffffdfbf 7f9fff6d     .....|......m...
   be070:	7f988ccf f97fffff f7effffb ffbf0f1f     ................
   be080:	ffffffff ffffffff ffffffff ffffffff     ................
   be090:	fc7ffb9b 7dc5fff7 dfbfffdf fefdfeef     .......}........
   be0a0:	c6cf7f1c ffff3f1f fbcffc9f 0e0ffff7     .....?..........
   be0b0:	ffffff9f ffffffff ffffffff ffffffff     ................
   be0c0:	ffdbffff fffff87b ffdf7fe5 feffdf7f     ....{...........
   be0d0:	1f9ffefd 8f1fc6e7 e6efffff fcffff67     ............g...
   be0e0:	ff0f6e1f ffffffff ffffffff ffffffff     .n..............
   be0f0:	ffffffff fc7bfbd7 3fe13ffe df7fffdf     ......{..?.?....
   be100:	feddfeff c2e78f0f ffff8f43 ff37f3ff     ........C.....7.
   be110:	4e1ffeff ffffff07 ffffffff ffffffff     ...N............
   be120:	ffffffff fbf3ffff 0ff8fc7b ffffbde1     ........{.......
   be130:	feffdf7f ff0dfedf 0f7063e5 f9dfffff     .........cp.....
   be140:	f6ffef3f ff734f1f ffffffff ffffffff     ?....Os.........
   be150:	ffffffff ffffffff fd7bfbf3 bff1e3ff     ..........{.....
   be160:	dfffffff fefbffdf e3e77f0e ffffef7e     ............~...
   be170:	f73ffccf 6f0ffbf7 ffffffff ffffffff     ..?....o........
   be180:	ffffffff ffffffff fbf3ffff fbfffffb     ................
   be190:	febfbbf1 ffdfdfff 3fcffcbb e7ffe3f3     ...........?....
   be1a0:	fef7ffff dbf3ff1f ffff6f1e ffffffff     .........o......
   be1b0:	ffffffff ffffffff ffffffff fffffbfb     ................
   be1c0:	b331f8ff 9ffffe9f fcbaffde b1f3dccf     ..1.............
   be1d0:	ffffe3bf ff1fffff 0f1efcf9 ffffffff     ................
   be1e0:	ffffffff ffffffff ffffffff fbfbffff     ................
   be1f0:	f0ffffff ffbbb371 fd9c1fff ee07f8be     ....q...........
   be200:	d3bbb1f3 f9ffffff f6fddf8f ffffe71f     ................
   be210:	ffffffff ffffffff ffffffff ffffffff     ................
   be220:	fe7ffff3 bbf1013e 1ffffd3f f8fbff9c     ....>...?.......
   be230:	f1f1f713 ffff719f ff0ff8e3 e71ef6fe     .....q..........
   be240:	ffffffff ffffffff ffffffff ffffffff     ................
   be250:	fff3ffff 0100ffff fd3fbbf1 ff9c7fef     ..........?.....
   be260:	f33ff8f7 699fd9f9 fcf9ffff faffff0f     ..?....i........
   be270:	ffffe71f ffffffff ffffffff ffffffff     ................
   be280:	ffffffff fffffff3 baf139c0 5ffffd7f     .........9....._
   be290:	f8f7ff9e d8f91b3f ffffadcb ff9ffefb     ....?...........
   be2a0:	c31fdfff ffffffff ffffffff ffffffff     ................
   be2b0:	ffffffff f6f7ffff 39e0ef1f fdffb9f1     ...........9....
   be2c0:	7f9f3fff cf3ff8f5 acddf8f9 feffffff     .?....?.........
   be2d0:	f8ffffcf ffffc31f ffffffff ffffffff     ................
   be2e0:	ffffffff ffffffff df3fc0cf b9f303e0     ..........?.....
   be2f0:	3ffffbff f8ed3fdf 78f8e7f3 ffff94c9     ...?.?.....x....
   be300:	ff4ffeff 190ef9e7 ffffffff ffffffff     ..O.............
   be310:	ffffffff ffffffff e09fffff 03f0ffbf     ................
   be320:	fb7fb3fb 3d9f7fff f3fdf0ed d4401cf8     .......=......@.
   be330:	ffffffff fdf3ff27 ffff781e ffffffff     ....'....x......
   be340:	ffffffff ffffffff ffffffff ff17ecbf     ................
   be350:	33fb07f8 7ffffb77 f1efbd9d 0cf87bff     ...3w........{..
   be360:	ffffd060 ff07fdff 781ffcfd ffffffff     `..........x....
   be370:	ffffffff ffffffff ffffffff eefffeff     ................
   be380:	0ffeff06 fb7772fb bc9dff6f ddfff3ef     .....rw.o.......
   be390:	580080fc f8efff7f fcffff8f ff7f7c3f     ...X........?|..
   be3a0:	ffffffff ffffffff ffffffff ffffffff     ................
   be3b0:	7fe6cfff f2f7ffff fffefb73 f3ffbc9d     ........s.......
   be3c0:	03fce6ff ff7f4804 ff47bcf7 7e3ff8ff     .....H....G...?~
   be3d0:	ffffff7f ffffffff ffffffff ffffffff     ................
   be3e0:	cfffffff ffff3ffe f77ff2f7 bcddfffe     .....?..........
   be3f0:	f6fdf3ff 480e037c fefbff7f fcffff07     ....|..H........
   be400:	ffff1f3f ffffffff ffffffff ffffffff     ?...............
   be410:	ffffffff 1fecdfff eef8ffff fffcf673     ............s...
   be420:	f7dbbcdd 03fcfbff ff7f2806 ff03fefc     .........(......
   be430:	1f3ffcfd ffffffff ffffffff ffffffff     ..?.............
   be440:	ffffffff dfffffff ffff9fed f673cef8     ..............s.
   be450:	bcedfffc effff7db 280302fc 7eceff7f     ...........(...~
   be460:	f4ffff07 ffff0f3e ffffffff ffffffff     ....>...........
   be470:	ffffffff ffffffff cfffbfff c6f1ffff     ................
   be480:	fffcfed3 e3fbbefd 02fefcff ff7f8061     ............a...
   be490:	ff07fbe7 0f3ef0f7 ffffffff ffffffff     ......>.........
   be4a0:	ffffffff ffffffff bffbffff ffffefdb     ................
   be4b0:	ffc3c9f1 bef7fffd fcfff7fb 804000fe     ..............@.
   be4c0:	b9f3ff7f f8f7ff87 ffff0f3e ffffffff     ........>.......
   be4d0:	ffffffff ffffffff ffffffff e7ff7fff     ................
   be4e0:	f9f3ffff fffdffe3 f37bbefd 007efeff     ..........{...~.
   be4f0:	ff7f8060 ff83dff9 6f3cf8f3 ffffffff     `.........<o....
   be500:	ffffffff ffffffff ffffffff fff7ffff     ................
   be510:	fffff7ff bf63e8f3 3ff8fffd 7ffff37b     ......c....?{...
   be520:	844001fe ffddff7f f8fbff8b ffff777c     ..@.........|w..
   be530:	ffffffff ffffffff ffffffff ffffffff     ................
   be540:	f37fffef e8f7ffff ffffbe73 b3fb3ffc     ........s....?..
   be550:	00bebdff ff7f0400 fdcff4ff fb7ef8db     ..............~.
   be560:	ffffffff ffffffff ffffffff ffffffff     ................
   be570:	ffffffff fffff97f bff3fcff 3ffefffb     ...............?
   be580:	dffff3ff 800700de b0efff7f f8cfff47     ............G...
   be590:	fffff87f ffffffff ffffffff ffffffff     ................
   be5a0:	ffffffff f93fffff ecdcffff ff79bff1     ......?.......y.
   be5b0:	f1f36dff 006feeff ff7fc001 ff03fce7     .m....o.........
   be5c0:	fcffb8ff ffffffff ffffffff ffffffff     ................
   be5d0:	ffffffff fffffeff fffffcff bff16cf0     .............l..
   be5e0:	ecffff79 fbffd971 00c4003f d8b7ffff     y...q...?.......
   be5f0:	c0feff03 fffffffe ffffffff ffffffff     ................
   be600:	ffffffff fdffffff fcffffff 6ce0ffff     ...............l
   be610:	ff7bfbf9 fc31e6ff 00bff9ff ffff10ec     ..{...1.........
   be620:	ff1feff7 fffec1fe ffffffff ffffffff     ................
   be630:	ffffffff ffffffff fdffffff fffffeff     ................
   be640:	fbf30cc0 66ffff7f ec7fee39 200000df     .......f9...... 
   be650:	e7dfffff c1fbff9f fffffff4 ffffffff     ................
   be660:	ffffffff ffffffff ffffffff fcfffbff     ................
   be670:	0e01feff fffdfbf3 f33967ff 80cff61f     .........g9.....
   be680:	ffff0100 ff0fe0ff fffce3ff ffffffff     ................
   be690:	ffffffff ffffffff ffffffff ffffffff     ................
   be6a0:	f87ffcff f9f14e03 77feffbd f3ffff18     .....N.....w....
   be6b0:	0121c06f f4ffffff e3ffff4f fffffffc     o.!.....O.......
   be6c0:	ffffffff ffffffff ffffffff ffffffff     ................
   be6d0:	f8ffffff 6e01207e ffbcd971 ff9a73fc     ....~ .nq....s..
   be6e0:	c1b7f9ff ffff03a1 ff4fbe7f ffecc3ff     ..........O.....
   be6f0:	ffffffff ffffffff ffffffff ffffffff     ................
   be700:	ffffffff 0000f0ff cd70d700 73fcff9c     ..........p....s
   be710:	fdff7f9b 07a1e19b f6bfffff c7feff0f     ................
   be720:	ffffffec ffffffff ffffffff ffffffff     ................
   be730:	ffffffff f8ffffff 33040000 ff9ccd74     ...........3t...
   be740:	7f9bf3fc f0dffcff ffff0f81 ff0fe69f     ................
   be750:	ffcdc7ff ffffffff ffffffff ffffffff     ................
   be760:	ffffffff ffffffff 0000f8ff 6ff43b21     ............!;.o
   be770:	fbf87fde feff3f9b 1f00f06f e7efffff     .....?..o.......
   be780:	0fffff1f ffffffcd ffffffff ffffffff     ................
   be790:	ffffffff ffffffff fcffffff 1ff00000     ................
   be7a0:	7fda66f0 3fdffbfd f82ff3ff ffff3f00     .f.....?../..?..
   be7b0:	ff1f73ff ffcf0efe ffffffff ffffffff     .s..............
   be7c0:	ffffffff ffffffff ffffffff 0700fcff     ................
   be7d0:	b6f01ff0 fdff7fca fbffbfdf ff00ff17     ................
   be7e0:	f97fffff 8efcff1f ffff7fdb ffffffff     ................
   be7f0:	ffffffff ffffffff ffffffff feffffff     ................
   be800:	0fe71f00 3fcb36e0 7fdffcff ff7bfcff     .....6.?......{.
   be810:	ffffffe0 ff1bb9ff 7ffb6ebc ffffffff     .........n......
   be820:	ffffffff ffffffff ffffffff ffffffff     ................
   be830:	fb3fffff 7fe18fe3 f3ff1fcb feff7fdf     ..?.............
   be840:	fff0ff7d b8fdffff 7fbcfe5f fffffffb     }......._.......
   be850:	ffffffff ffffffff ffffffff ffffffff     ................
   be860:	ffffffff 0fe1fb7f bfcb7ec1 7fdbc3bf     .........~......
   be870:	ff3dfeff fffffff0 fe3fd83f ffffffdc     ..=.....?.?.....
   be880:	ffffffff ffffffff ffffffff ffffffff     ................
   be890:	ffffffff fd7ffeff 36c11fe0 dbfdffc3     ...........6....
   be8a0:	ffffffff fff0ff37 d0bf7fff fec8ee3b     ....7.......;...
   be8b0:	ffffbfcf ffffffff ffffffff ffffffff     ................
   be8c0:	ffffffff feffffff 1fe8fcff ffd13fc0     .............?..
   be8d0:	ffd8ffff ffb7f7ff 7ffffff0 7efbf89f     ...............~
   be8e0:	bffffe09 ffffffff ffffffff ffffffff     ................
   be8f0:	ffffffff ffffffff 7efefcff 1fc03f48     ...........~H?..
   be900:	fffff7d1 fefffff9 fff0ff9f f8df9ff7     ................
   be910:	fe097e1b ffffbff3 ffffffff ffffffff     .~..............
   be920:	ffffffff ffffffff f9ffffff 1f00ffff     ................
   be930:	ffd906e0 fffbffe7 ff1ffeff 9ff3fff0     ................
   be940:	6e1970fb bff3ff03 ffffffff ffffffff     .p.n............
   be950:	ffffffff ffffffff ffffffff fffff9ff     ................
   be960:	07c01fc4 ffe7fbb8 ffffffb7 fff0ff0f     ................
   be970:	10fb8fbb ff032419 ffffff73 ffffffff     .....$..s.......
   be980:	ffffffff ffffffff ffffffff fbffffff     ................
   be990:	0feee1ff 7bb80fc0 ffffffc7 ffb7ffff     .......{........
   be9a0:	ce9bfff0 200908c9 ff7fff03 ffffffff     ....... ........
   be9b0:	ffffffff ffffffff ffffffff ffffffff     ................
   be9c0:	c09ff3ff 0dc00f66 ffc37ff0 ffffffff     ....f...........
   be9d0:	ffe1ff93 0cc8e698 ff032002 ffffff6f     ......... ..o...
   be9e0:	ffffffff ffffffff ffffffff ffffffff     ................
   be9f0:	f3ffffff 0736800f 3ff40de0 ffffffc7     ......6....?....
   bea00:	ff1bffff e699ffe0 00010fec df6bff43     ............C.k.
   bea10:	ffffffff ffffffff ffffffff ffffffff     ................
   bea20:	ffffffff 8009f1ff 03e00738 ffc73fb6     ........8....?..
   bea30:	ffffffff fee1ff1d 0ffc77d9 ff030080     .........w......
   bea40:	ffffffe3 ffffffff ffffffff ffffffff     ................
   bea50:	ffffffff f8ffffff 07388001 3fa601e2     ..........8....?
   bea60:	ffffffcf ff9dffff 73dbfbf1 00c00ffc     ...........s....
   bea70:	df63ff07 ffffffff ffffffff ffffffff     ..c.............
   bea80:	ffffffff ffffffff 8001fcff 21e20730     ............0..!
   bea90:	ff8f1f67 ffffffff f9f1ff9f 0ff8f3d9     g...............
   beaa0:	ff0780c1 ffff9f43 ffffffff ffffffff     ....C...........
   beab0:	ffffffff ffffffff fcffffff 0f329001     ..............2.
   beac0:	074739f0 ffffff1f ffcfffff b7fdd971     .9G.........q...
   bead0:	80e11fd8 8fc7ff07 ffffffff ffffffff     ................
   beae0:	ffffffff ffffffff ffffffff b001feff     ................
   beaf0:	04f01f30 ff1f007f ffffffff b971ffcf     0.............q.
   beb00:	3fd8b3f7 ff0700e0 ffff8fcf ffffffff     ...?............
   beb10:	ffffffff ffffffff ffffffff ffffffff     ................
   beb20:	3f70f3c0 806704f0 ffffff1f ffcfffff     ..p?..g.........
   beb30:	b3b7bde1 00e03fc8 8f477f0f ffffffff     .....?....G.....
   beb40:	ffffffff ffffffff ffffffff ffffffff     ................
   beb50:	7ff0ffff 04f83fc0 ff1fc067 ffffffff     .....?..g.......
   beb60:	bce1ffc7 1f40b2b7 7f3e04e0 ffffdf87     ......@...>.....
   beb70:	ffffffff ffffffff ffffffff ffffffff     ................
   beb80:	ffffffff 3fc00dfe e00704f8 ffffff3f     .......?....?...
   beb90:	ff05ffff b0978cc3 46f01f60 d7877f7e     ........`..F~...
   beba0:	ffffffff ffffffff ffffffff ffffffff     ................
   bebb0:	ffffffff 00ffffff 04f83fc6 ff3ff003     .........?....?.
   bebc0:	ffffffff 8c83ff81 1f40b09b 7f7f00f0     ..........@.....
   bebd0:	ffffc783 ffffffff ffffffff ffffffff     ................
   bebe0:	ffffffff ffffffff 3f0e80ff f80212fc     ...........?....
   bebf0:	ffffff7f ff87ffff b19b8603 00f00f00     ................
   bec00:	e7937dff ffffffff ffffffff ffffffff     .}..............
   bec10:	ffffffff ffffffff c0ffffff 12fe3f1e     .............?..
   bec20:	ff7f3806 ffffffff c606ffc7 0f00b91b     .8..............
   bec30:	7cfe00f0 fffff393 ffffffff ffffffff     ...|............
   bec40:	ffffffff ffffffff ffffffff 3f1fe0ff     ...............?
   bec50:	380412ff ffffff7d ffcbfeff 981f7604     ...8}........v..
   bec60:	01f00700 ff937cbe ffffffff ffffffff     .....|..........
   bec70:	ffffffff ffffffff ffffffff f8ffffff     ................
   bec80:	0aff3f7f ff7f1800 ffffffff 7b04fc0f     .?.............{
   bec90:	03048827 7cfc01f0 ffffff93 ffffffff     '......|........
   beca0:	ffffffff ffffffff ffffffff ffffffff     ................
   becb0:	3f7ffcff 1c0080ff ffffff7f fc0fffff     ...?............
   becc0:	98243b0e 03f0010c ff93d8fc ffffffff     .;$.............
   becd0:	ffffffff ffffffff ffffffff ffffffff     ................
   bece0:	fcffffff c0ff3f7f ff3f1c40 ffffffff     .....?..@.?.....
   becf0:	9b0fec8f 0000582c 997c03f0 ffffff91     ....,X....|.....
   bed00:	ffffffff ffffffff ffffffff ffffffff     ................
   bed10:	ffffffff 1f7ffcff 1800e0ff ffffdf3f     ............?...
   bed20:	e08effff 016c1819 03700080 ff9b13dc     ......l...p.....
   bed30:	ffffffff ffffffff ffffffff ffffffff     ................
   bed40:	ffffffff fcffffff f0ff1f6f df370000     ........o.....7.
   bed50:	fbffffff 1008600e 00c0016c 03bc01e1     .....`..l.......
   bed60:	ffffff9b ffffffff ffffffff ffffffff     ................
   bed70:	ffffffff ffffffff 1f6ffcff 0400f8ff     ..........o.....
   bed80:	ffffff07 200efbff 07600200 00e100e0     ....... ..`.....
   bed90:	ffff83b0 ffffffff ffffffff ffffffff     ................
   beda0:	ffffffff ffffffff fcffffff feff1f6f     ............o...
   bedb0:	ff030c00 ffffffff 920c0006 00e00f40     ............@...
   bedc0:	a2b180c1 ffffbffd ffffffff ffffffff     ................
   bedd0:	ffffffff ffffffff ffffffff 1f7ffcff     ................
   bede0:	0800ffff ffffff03 0007ffff 1fc0930c     ................
   bedf0:	81c800f0 ff3f26f1 ffffffff ffffffff     .....&?.........
   bee00:	ffffffff ffffffff ffffffff fcffffff     ................
   bee10:	ffff1f6f ff030880 ffffffff c16c0007     o.............l.
   bee20:	00f07f00 07f381c8 ffffff3f ffffffff     ........?.......
   bee30:	ffffffff ffffffff ffffffff ffffffff     ................
   bee40:	1f6ffcff 0880ffff ffffff23 0007feff     ..o.....#.......
   bee50:	ff00806c 01c801f8 ff3f07e3 ffffffff     l.........?.....
   bee60:	ffffffff ffffffff ffffffff ffffffff     ................
   bee70:	fcffffff ffff1f6f bf0100e0 feffffff     ....o...........
   bee80:	00600067 01f8ff01 2fe701c8 ffffff3f     g.`......../?...
   bee90:	ffffffff ffffffff ffffffff ffffffff     ................
   beea0:	ffffffff 1f6ffcff 00f0ffff ffffcf01     ......o.........
   beeb0:	0102f8ff ff0f0020 07e000f8 ff9f2fc3     .... ......../..
   beec0:	ffffffff ffffffff ffffffff ffffffff     ................
   beed0:	ffffffff fcffffff ffff0f6f ed0008f8     ........o.......
   beee0:	e0ffffff 0003038b 00fcff1f 0fe707e0     ................
   beef0:	ffffff9f ffffffff ffffffff ffffffff     ................
   bef00:	ffffffff ffffffff 8f6ffcff 00fcffff     ..........o.....
   bef10:	ffff7100 078c61ff ff7f0003 06e001fc     .q...a..........
   bef20:	ff9f4ff6 ffffffff ffffffff ffffffff     .O..............
   bef30:	ffffffff ffffffff fcffffff ffff8f4f     ............O...
   bef40:	710000ff e1ffffbf 0082078c 01feffff     ...q............
   bef50:	4fc604e0 ffffffcf ffffffff ffffffff     ...O............
   bef60:	ffffffff ffffffff ffffffff 8f6ffcff     ..............o.
   bef70:	00ffffff ffbf390c 0f0000ff ffff0380     .....9..........
   bef80:	0ef003fe ffef4fc6 ffffffff ffffffff     .....O..........
   bef90:	ffffffff ffffffff ffffffff fcffffff     ................
   befa0:	ffff8f6f 090e80ff 00ffff2f 07001b00     o......./.......
   befb0:	03feffff 4fc60ff0 fffffff7 ffffffff     .......O........
   befc0:	ffffffff ffffffff ffffffff ffffffff     ................
   befd0:	8f7ffcff 80ffffff ff060006 1b0000ff     ................
   befe0:	ffff1f00 0ff003fe ffffefc6 ffffffff     ................
   beff0:	ffffffff ffffffff ffffffff ffffffff     ................
   bf000:	fcffffff ffff8f7f 0203c2ff 04f8ff37     ............7...
   bf010:	7f002600 03feffff efce0ff0 ffffffff     .&..............
   bf020:	ffffffff ffffffff ffffffff ffffffff     ................
   bf030:	ffffffff 8f7ffcff c0ffffff fb3d0300     ..............=.
   bf040:	00030238 ffffff0f 0ff803fe ffffefce     8...............
   bf050:	ffffffff ffffffff ffffffff ffffffff     ................
   bf060:	ffffffff fcffffff ffff8f7f 0300c0ff     ................
   bf070:	0018bb84 ffff0100 03feffff ef6e0ff8     ..............n.
   bf080:	ffffffff ffffffff ffffffff ffffffff     ................
   bf090:	ffffffff ffffffff 877ffcff c0ffffff     ................
   bf0a0:	17000000 0f000080 ffffffff 9ff807fe     ................
   bf0b0:	ffffef6f ffffffff ffffffff ffffffff     o...............
   bf0c0:	ffffffff ffffffff fcffffff ffff877f     ................
   bf0d0:	0000c0ff 00c07f00 ffffff01 07feffff     ................
   bf0e0:	effe9ff8 ffffffff ffffffff ffffffff     ................
   bf0f0:	ffffffff ffffffff ffffffff 877ffcff     ................
   bf100:	e0ffffff 7b000000 ffff0fc0 ffffffff     .......{........
   bf110:	9ff807fe ffff67fe ffffffff ffffffff     .....g..........
   bf120:	ffffffff ffffffff ffffffff fcffffff     ................
   bf130:	ffff877f 0000e0ff 7fe25f80 ffffffff     ........._......
   bf140:	07feffff 67fe9ff8 ffffffff ffffffff     .......g........
   bf150:	ffffffff ffffffff ffffffff ffffffff     ................
   bf160:	877ffcff e0ffffff 7ff00000 ffff7fe2     ................
   bf170:	ffffffff 9ff807fe ffff67fe ffffffff     .........g......
   bf180:	ffffffff ffffffff ffffffff ffffffff     ................
   bf190:	fcffffff ffff877f 0100f0ff 7fe07ffe     ................
   bf1a0:	ffffffff 07feffff 77fe9ff9 ffffffff     ...........w....
   bf1b0:	ffffffff ffffffff ffffffff ffffffff     ................
   bf1c0:	ffffffff 877ffeff f8ffffff 3ffe0103     ...............?
   bf1d0:	ffff7ff8 ffffffff 9ff907fe ffff77fe     .............w..
   bf1e0:	ffffffff ffffffff ffffffff ffffffff     ................
   bf1f0:	ffffffff feffffff ffff877f 0003f8ff     ................
   bf200:	7ffc3f20 ffffffff 07feffff 7bff9ff9      ?.............{
   bf210:	ffffffff ffffffff ffffffff ffffffff     ................
   bf220:	ffffffff ffffffff 877ffeff fcffffff     ................
   bf230:	3f00c003 ffff7ffc ffffffff 9ff807fe     ...?............
   bf240:	ffff7fff ffffffff ffffffff ffffffff     ................
   bf250:	ffffffff ffffffff feffffff ffff877f     ................
   bf260:	c300feff 7fe41f83 ffffffff 03feffff     ................
   bf270:	ffffdff8 ffffffff ffffffff ffffffff     ................
   bf280:	ffffffff ffffffff ffffffff 877ffeff     ................
   bf290:	ffffffff 9fff8330 ffff7ff6 ffffffff     ....0...........
   bf2a0:	dff003fc ffffffff ffffffff ffffffff     ................
   bf2b0:	ffffffff ffffffff ffffffff feffffff     ................
   bf2c0:	ffff877f 8300ffff 7ffc8fff ffffffff     ................
   bf2d0:	03fcffff ffffcff0 ffffffff ffffffff     ................
   bf2e0:	ffffffff ffffffff ffffffff ffffffff     ................
   bf2f0:	877ffeff ffffffff cfff838c ffff7ffc     ................
   bf300:	ffffffff cff103fc ffffffff ffffffff     ................
   bf310:	ffffffff ffffffff ffffffff ffffffff     ................
   bf320:	feffffff ffff877f 0385ffff ffd8cdff     ................
   bf330:	ffffffff 03f8ffff ffffcfe3 ffffffff     ................
   bf340:	ffffffff ffffffff ffffffff ffffffff     ................
   bf350:	fff3ffff 877ffeff ffffffff e7ff03c3     ................
   bf360:	fffffff0 ffffffff cfe303f1 ffffffff     ................
   bf370:	ffffffff ffffffff ffffffff ffffffff     ................
   bf380:	ffffffff feff6f77 ffff877f 07e3ffff     ....wo..........
   bf390:	ff60e6ff ffffffff 01f3ffff ffffcfe2     ..`.............
   bf3a0:	ffffffff ffffffff ffffffff ffffffff     ................
   bf3b0:	ffffffff ff76ffff 877ffaff ffffffff     ......v.........
   bf3c0:	e6ff43e2 ffffff63 ffffffff efc783e3     .C..c...........
   bf3d0:	ffffffff ffffffff ffffffff ffffffff     ................
   bf3e0:	ffffffff f9ffffff fafffbff ffff873f     ............?...
   bf3f0:	43e0ffff ff33f6ff ffffffff 83c1ffff     ...C..3.........
   bf400:	ffffe7c7 ffffffff ffffffff ffffffff     ................
   bf410:	ffffffff ffffffff ffffffff 833fceff     ..............?.
   bf420:	ffffffff f6ff03f0 ffffff23 ffffffff     ........#.......
   bf430:	e7cf81c9 ffffffff ffffffff ffffffff     ................
   bf440:	ffffffff ffffffff dffffbff eeffffff     ................
   bf450:	ffbf813f 03f8ffff ff43f6ff ffffffff     ?.........C.....
   bf460:	8185bfff ffffe3c3 ffffffff ffffffff     ................
   bf470:	ffffffff ffffffff ffffffff ffffffff     ................
   bf480:	837ffeff ffffffef f6ff19f8 ffffff63     ............c...
   bf490:	3ff7ffff 07c38187 ffffffff ffffffff     ...?............
   bf4a0:	ffffffff ffffffff ffffffff ffffffff     ................
   bf4b0:	beffffff fd7f837c 19f8ffff ff23f6ff     ....|.........#.
   bf4c0:	ffffffff 00803ff7 ffff0740 ffffffff     .....?..@.......
   bf4d0:	ffffffff ffffffff ffffffff ffffffff     ................
   bf4e0:	ffffffff 0319beff ffffedff f6ff18f8     ................
   bf4f0:	ffffff03 fef7ffff 47c40300 ffffffff     ...........G....
   bf500:	ffffffff ffffffff ffffffff ffffffff     ................
   bf510:	ffffffff feffffff ffff837f 08f8ffff     ................
   bf520:	ff63e67f ffffffff 0700fcfb ffff0f86     ..c.............
   bf530:	ffffffff ffffffff ffffffff ffffffff     ................
   bf540:	ffffffff ffffffff 833ffeff ffffffff     ..........?.....
   bf550:	c27f06f8 ffffff23 fcfbffff 8f370700     ....#.........7.
   bf560:	ffffffff ffffffff ffffffff ffffffff     ................
   bf570:	ffffffff ffffffff 7effff7f ffffc73f     ...........~?...
   bf580:	06f8ffff ff13c07f ffffffff 0f00fcfb     ................
   bf590:	fffff724 ffffffff ffffffff ffffffff     $...............
   bf5a0:	ffffffff ffffffff ff7fffff c73ffeff     ..............?.
   bf5b0:	ffffffff c67f06f8 ffffff13 fcf9ffff     ................
   bf5c0:	37000e00 ffffffff ffffffff ffffffff     ...7............
   bf5d0:	ffffffff ffffffff f4ffffff feffffff     ................
   bf5e0:	ffffc33f 00f8ffff ff01c67f ffffffff     ?...............
   bf5f0:	0f00b8fd ffff0700 ffffffff ffffffff     ................
   bf600:	ffffffff ffffffff ffffffff ffffffff     ................
   bf610:	c73ffef7 ffffffff c07f10fc ffffff01     ..?.............
   bf620:	f8ecffff 0f001f00 fffffffe ffffffff     ................
   bf630:	ffffffff ffffffff ff7fc0ff dfff7f80     ................
   bf640:	fee7ffff ffff873f 00fcffff ff01c07f     ....?...........
   bf650:	ffffffff be01f0e4 ffddc700 ffffffff     ................
   bf660:	ffffffff ffffffff ceffffff 3f78fc1f     ..............x?
   bf670:	ffffffff 873ffeef fffffbff c07f00fc     ......?.........
   bf680:	ffffff01 13f0ffff 0100feff ffffff99     ................
   bf690:	ffffffff ffffffff ffffffff ffe1cfff     ................
   bf6a0:	ffff3ffc feffffff e7ff873f 00fcfff9     .?......?.......
   bf6b0:	ff01c0ff ffffffff fcf01bf0 ffb90100     ................
   bf6c0:	ffffffff ffffffff ffffffff e1ffffff     ................
   bf6d0:	bff10ffd ffffffff 873ffeff cffbefff     ..........?.....
   bf6e0:	e0ff02fe ffffff01 1efcffff 0700dc07     ................
   bf6f0:	ffffffb7 ffffffff ffffffff ffffffff     ................
   bf700:	973ffeff ffffbf1f feffffff ffff833f     ..?.........?...
   bf710:	00fecfff ff01f0ff ffffffff befd7ff6     ................
   bf720:	ff7f0700 ffffffff ffffffff ffffffff     ................
   bf730:	ffffffff 3f1ffec7 ffffffff 833ffeff     .......?......?.
   bf740:	ffffffff f0ff00fe ffffff01 fff6ffff     ................
   bf750:	7f00beff ffffff3f ffffffff ffffffff     ....?...........
   bf760:	ffffffff 1fc4ffff ffff3fe1 feffffff     .........?......
   bf770:	ffff833f 00feffff ff01f0ff ffffffff     ?...............
   bf780:	fffffff9 ff3ffeff ffffffff ffffffff     ......?.........
   bf790:	ffffffff feffffff 1fff037e ffffffff     ........~.......
   bf7a0:	833ffeff fffcffff f0ff00ff ffffff01     ..?.............
   bf7b0:	ff79efff feffffff ffffff7f ffffffff     ..y.............
   bf7c0:	ffffffff ffffffff 1ffcfbff fffff83f     ............?...
   bf7d0:	feffffff ffff833f 01fffff8 ff01f8ff     ....?...........
   bf7e0:	f7ffffff dffbff7f ffffffff fffffff9     ................
   bf7f0:	ffffffff ffffffff ffffffff fff33ff8     .............?..
   bf800:	ffffff8f 833ffeff ffffffff f8ff01ff     ......?.........
   bf810:	ffffff03 ffbff7ff ffff7ffb ffffffff     ................
   bf820:	ffffffff ffffffff ffffffff 3ffe3ffc     .............?.?
   bf830:	fff07ffe feffffff ffff833f 01ffffff     ........?.......
   bf840:	ff07f8ff ffffffff fffb7fdf ffffffff     ................
   bf850:	ffffffff ffffffff ffffffff 01f8ffff     ................
   bf860:	cfff7ffc ffff0fff 833ffeff ffffffff     ..........?.....
   bf870:	fcff01ff ffffff07 77feffff ffffffbf     ...........w....
   bf880:	ffffffff ffffffff ffffffff ffffffff     ................
   bf890:	fffce1fd f0fffcff feffff7f ffff833f     ............?...
   bf8a0:	01ffffff ff4ffcff ffffffff ff9fe7f2     ......O.........
   bf8b0:	ffffffff ffffffff ffffffff ffffffff     ................
   bf8c0:	fbfdffff ffffffff ff07fec7 831ffeff     ................
   bf8d0:	ffffffff fcff10ff ffffff4f cfa6ffff     ........O.......
   bf8e0:	ffffff9f ffffffff ffffffff ffffffff     ................
   bf8f0:	ffffffff fbfffbfd 7ffcffff fefffff0     ................
   bf900:	ffffc31f 00ffffff ff0ffcff ffffffff     ................
   bf910:	ffffb7ac ffffffff ffffffff ffffffff     ................
   bf920:	ffffffff fbfdffff fffff9ff 0ffec1ff     ................
   bf930:	c31ffeff ffffffff fcff00ff ffffff0f     ................
   bf940:	b7ad7fff ffffffff ffffffff ffffffff     ................
   bf950:	ffffffff feffffff d9fffb7d fcffffff     ........}.......
   bf960:	feffe03f ffffc31f 20ffffff ff07fcff     ?.......... ....
   bf970:	fff7ffff fdff7fa9 ffffffff ffffffff     ................
   bf980:	ffffffff ffffffff fb39ffff ffffcfff     ..........9.....
   bf990:	fe83ffff c71ffe1f ffffffff fc7f20fe     ............. ..
   bf9a0:	fbffff67 6f33fe7f fffffcff ffffffff     g.....3o........
   bf9b0:	ffffffff ffffffff ffffffff fffffbd9     ................
   bf9c0:	ffffffff fec03ff8 ffffc71f 10feffff     .....?..........
   bf9d0:	ff67fc7f 7c3ffbff fcffff33 ffffffff     ..g...?|3.......
   bf9e0:	ffffffff ffffffff ffffffff ffe1fbff     ................
   bf9f0:	ffffffef 83ffffff c71f1efc ffffffff     ................
   bfa00:	fc7f18fe dfdfffe7 f77fff3c ff3fffff     ........<.....?.
   bfa10:	ffffffff ffffffff ffffffff fcffffff     ................
   bfa20:	ffcffff0 ffffffff c07ff8ff ffffc31f     ................
   bfa30:	48feffff ffe3fc7f ffe0dfff ffffff7f     ...H............
   bfa40:	ffffffff ffffffff ffffffff ffffffff     ................
   bfa50:	fcfdfeff ffffff3f ffffffff c31ffc07     ....?...........
   bfa60:	ffffffff fc7f6cfc 9bfe77f3 ffffff61     .....l...w..a...
   bfa70:	ffff7fff ffffffff ffffffff ffffffff     ................
   bfa80:	ffffffff ff7fc8ff ffffffff 7ef0ffff     ...............~
   bfa90:	ffffc303 24f8ffff c7f3fc7f ff6953fe     .......$.....Si.
   bfaa0:	ffffffff ffffffff ffffffff ffffffff     ................
   bfab0:	ffffffff e9ffffff 83ffffff ffffffff     ................
   bfac0:	031806ff ffffffff fd7fb6f9 c3fec7fb     ................
   bfad0:	fffff94b ffffffff ffffffff ffffffff     K...............
   bfae0:	ffffffff ffffffff ffffffff ffff01fe     ................
   bfaf0:	e0ffffff ffff831f 92f9ffff 87f97d7f     .............}..
   bfb00:	f0dbd7fe ffffff7f ffffffff ffffffff     ................
   bfb10:	ffffffff ffffffff ffffffff 00f0ffff     ................
   bfb20:	ffffff3f c00ffeff ffffff3f f97648f8     ?.......?....Hv.
   bfb30:	dfdf86f9 ffffe43f ffffffff ffffffff     ....?...........
   bfb40:	ffffffff ffffffff ffffffff ffffffff     ................
   bfb50:	ff1f00c0 feffffff ff830310 20f8ffff     ............... 
   bfb60:	b4f93be0 ed0fce3f ffffffff ffffffff     .;..?...........
   bfb70:	ffffffff ffffffff ffffffff ffffffff     ................
   bfb80:	0000ffff ffffff07 031efeff f7ff7ff0     ................
   bfb90:	7be031f8 c8ffb0f9 ffffef1f ffe3ffff     .1.{............
   bfba0:	ffffffff ffffffff ffffffff ffffffff     ................
   bfbb0:	feffffff ff030000 feffffff 03fec01f     ................
   bfbc0:	b9e3f7ff 30f977e6 ffffc9ee ffffffff     .....w.0........
   bfbd0:	ffffffe7 ffffffff ffffffff ffffffff     ................
   bfbe0:	ffffffff 0000fcff ffffff01 c03fffff     ..............?.
   bfbf0:	773fe01f 0766faef c2ac61f8 ffffff7f     ..?w..f..a......
   bfc00:	ffffffff ffffffff ffffffff ffffffff     ................
   bfc10:	ffffffff 00f0ffff ff000000 ffffffff     ................
   bfc20:	ffc1c33f fbc72707 65f827f6 ffff4c2c     ?....'...'.e,L..
   bfc30:	ffffffff ffffffff ffffffff ffffffff     ................
   bfc40:	ffffffff ffffffff 000000c0 ffffff00     ................
   bfc50:	c331fdff 27f01ffc 67e7f9c1 0d4c3bf8     ..1....'...g.;L.
   bfc60:	fffffffe ffffffcf ffffffff ffffffff     ................
   bfc70:	ffffffff fbffffff 00c0ffff 7f000000     ................
   bfc80:	f3ffffff c1ffc7fc 39c003fe 32f9e3c3     ...........9...2
   bfc90:	ffff0f1c ffcfffff ffffffff ffffffff     ................
   bfca0:	ffffffff ffffffff ffffffff 000000e0     ................
   bfcb0:	ffff3f00 e7f8cfff f01ffcff e3830100     .?..............
   bfcc0:	dfbc74f0 ffffffff ffffffff ffffffff     .t..............
   bfcd0:	ffffffff ffffffff f7ffffff 00e0ffff     ................
   bfce0:	1f000000 3effffff ffffe700 0100ff83     .......>........
   bfcf0:	fcc3f3f3 ffffffe4 ffffffff ffffffff     ................
   bfd00:	ffffffff ffffffff ffffffff fffff7ff     ................
   bfd10:	000000f0 ffff1f00 c000f8fc 7ff8ff07     ................
   bfd20:	e7ff07f0 ffe3edc7 ffffffff ffffffff     ................
   bfd30:	ffffffff ffffffff ffffffff b6ffffff     ................
   bfd40:	00f8ffff 1f000000 e0f9ffff fffdc003     ................
   bfd50:	03ff01fc 27dfbfff ffffffe7 ffffffff     .......'........
   bfd60:	ffffffff ffffffff ffffffff f7ffffff     ................
   bfd70:	ff3fec7c 000000fc ffff1f00 8f7f80f9     |.?.............
   bfd80:	d0fe7ffe 3f1fe41f ff7fa6ef ffffffff     .......?........
   bfd90:	ffffffff ffffffff ffffffff ffffffff     ................
   bfda0:	cc7ce7ff 01feff7f 0f0000f8 00f8ffff     ..|.............
   bfdb0:	3fc20ffc ff0158fe cce33f03 ffffffff     ...?.X...?......
   bfdc0:	ffffffff ffffffff ffffffff ffffffff     ................
   bfdd0:	e3ffffff ffff0d7c 00ff03fc ffff0f00     ....|...........
   bfde0:	08f000f8 6cf73f00 00f01f00 ffffe971     .....?.l....q...
   bfdf0:	ffffffff ffffffff ffffffff ffffffff     ................
   bfe00:	ffffffff 797ef3ff 0fe0fff3 0f0080ff     ......~y........
   bfe10:	00fcffff 3f0080f3 e101fffb f90180ff     .......?........
   bfe20:	ffffffff ffffffff ffffffff ffffffff     ................
   bfe30:	ffffffff bbffffff ffe7ff3f e0ff1fc2     ........?.......
   bfe40:	ffff0f00 80631efc ffff7f00 f83ffeff     ......c.......?.
   bfe50:	ffffff03 ffffffff ffffffff ffffffff     ................
   bfe60:	ffffffff ffffffff ffffbdff 3efcffef     ...............>
   bfe70:	0700f89f 7ffcffff ffff0120 ffffffff     ........ .......
   bfe80:	ffc3ffe1 ffffffff f3ffffff ffffffff     ................
   bfe90:	ffffffff ffffffff fdffffff ffdfffff     ................
   bfea0:	fc1f3e9c ffff0700 03b007ff fffffdff     .>..............
   bfeb0:	1ff8ffff ffff7ff8 ffffffff ffffffff     ................
   bfec0:	ffffffff ffffffff ffffffff fffff7ff     ................
   bfed0:	3e00ffff 0700fe3f 0fffffff ffff03c0     ...>?...........
   bfee0:	ffffffff 83ff00f8 ffffffff ffffffff     ................
   bfef0:	ffffffff ffffffff ffffffff ffffffff     ................
   bff00:	fcffffff bf3f800f ffff0700 3bc01fff     ......?........;
   bff10:	ffffffff 00f8f7ff ff3ff80f ffffffff     ..........?.....
   bff20:	ffffffff ffffffff ffffffff ffffffff     ................
   bff30:	ffffffff 805ffcff 07003f1f 9fffffff     ......_..?......
   bff40:	fffff9e1 f6ffffff ff0100fe ffffff83     ................
   bff50:	ffffffff ffffffff ffffffff ffffffff     ................
   bff60:	ffffffff ffffff9f 7f86f0ff ffff0700     ................
   bff70:	d9f1cfff ffffffff 00dff7ff 7ff81f7e     ............~...
   bff80:	ffffffff ffffffff ffffffff ffffffff     ................
   bff90:	ffffffff ff9fffff 79ffffff 0700ffc0     ...........y....
   bffa0:	c7ffffff fffffcfb bffbffff e0ffffff     ................
   bffb0:	ffff83ff ffffffff ffffffff ffffffff     ................
   bffc0:	ffffffff ffffffff ffffffff ff8107ed     ................
   bffd0:	ff7f0780 fcf9e3ff ffffffff ffff3fbb     .............?..
   bffe0:	f803feff f8ffff1f ffffff3f ffffffff     ........?.......
   bfff0:	ffffffff ffffffff ffffffff 3fecefff     ...............?
   c0000:	0480ffa1 f3ffffff ff7ffefc 0fb3ffff     ................
   c0010:	ff0fffff ff837ff0 7f00f0ff ffffffff     ................
   c0020:	ffffffff ffffffff ffffffff ffffffff     ................
   c0030:	fff97ffe ffff0183 7efefbff ffffff7f     ...........~....
   c0040:	ffffcfb2 03ffff0f c7ff3ff8 ffff7ff8     .........?......
   c0050:	ffffffff ffffffff ffffffff ffffffff     ................
   c0060:	3dffffff ff93ffb9 7901c0ff ff3f7fbe     ...=.......y..?.
   c0070:	dfdaffff ff4ffeff 871ff0ff fff81ffe     ......O.........
   c0080:	ffffffff ffffffff ffffffff ffffffff     ................
   c0090:	ffffffff ffb9e6ff 3f7e7c0c 3f3700e0     .........|~?..7?
   c00a0:	ffffff9f feffdfc9 ffffffcf ff18fc03     ................
   c00b0:	ffff7fe2 ffffffff ffffffff ffffffff     ................
   c00c0:	ffffffff c1fbffff 000eff83 0ec1ff7c     ............|...
   c00d0:	ff9f3f7f cefcfeff ffcff7ff 3ff8ffff     .?.............?
   c00e0:	7f1fff81 ffffffff ffffffff ffffffff     ................
   c00f0:	ffffffff ffffffff ffe7ddfb fffb0307     ................
   c0100:	1fbfd13f ffffffcf feffce3c ffffff9f     ?.......<.......
   c0110:	1cfc03ff ffff3f3e ffffffff ffffffff     ....>?..........
   c0120:	ffffffff ffffffff dffbffff 8719ffff     ................
   c0130:	f0fffff7 ffe71ffb cfffffff ffffbfff     ................
   c0140:	f0ffffff 3f66803f ffffffff ffffffff     ....?.f?........
   c0150:	ffffffff ffffffff ffffffff fefffffb     ................
   c0160:	ff6f4036 4f38feff f9fffff3 bfffffff     6@o...8O........
   c0170:	ffffffff fcc3f0ff ffff7f07 ffffffff     ................
   c0180:	ffffffff ffffffff ffffffff fffbffff     ................
   c0190:	f873feff ffffffef fff1cf8f fffffdff     ..s.............
   c01a0:	ffffffff c3ffffff 7fc03ff8 ffffffff     .........?......
   c01b0:	ffffffff ffffffff ffffffff ffffffff     ................
   c01c0:	fcfffffb ff4fff40 c4e3ffff fffffff9     ....@.O.........
   c01d0:	ffffffff ffffffff 03fc9fff ffff0ffc     ................
   c01e0:	ffffffff ffffffff ffffffff ffffffff     ................
   c01f0:	cffbffff 0686fcff ffff3f07 ff1c08f8     .........?......
   c0200:	ffffffff ffffffff 7ffeffff e33f20f0     ............. ?.
   c0210:	ffffffff ffffffff ffffffff ffffffff     ................
   c0220:	ffffffff ffffc7ff 5fff0783 3fffffff     ..........._...?
   c0230:	ffffff1c ffffffff ffffffff 01e0fff8     ................
   c0240:	ffcfffe3 ffffffff ffffffff ffffffff     ................
   c0250:	ffffffff e3fb80ff 8f80ffff ffffffff     ................
   c0260:	379effff ffffffff ffffffff ffc3ffff     ...7............
   c0270:	1ff80f84 ffffffcf ffffffff ffffffff     ................
   c0280:	ffffffff 00feffff ffffe379 fcff0784     ........y.......
   c0290:	ffffffff ffff77dc ffffffff ffffffff     .....w..........
   c02a0:	7f3cff83 ffef83ff ffffffff ffffffff     ..<.............
   c02b0:	ffffffff ffffffff e37d64fe 0706ffff     .........d}.....
   c02c0:	ff7ff6ff fffcffff ffffffff ffffffff     ................
   c02d0:	3880ffff f07f7ef0 ffffff4f ffffffff     ...8.~..O.......
   c02e0:	ffffffff ffffffff 44feffff feffc13d     ...........D=...
   c02f0:	fbff0f19 fbffff7f fffffff9 ffffffff     ................
   c0300:	ffffffff f8e001ce ff1fffef ffffffff     ................
   c0310:	ffffffff ffffffff ffffffff c13dccfc     ..............=.
   c0320:	ff39fcff ffbffdff ff83f3ff ffffffff     ..9.............
   c0330:	ffffffff c7cfffff ffcfe181 ffffffff     ................
   c0340:	ffffffff ffffffff ffffffff 86fcffff     ................
   c0350:	fcffc11c ffffffff e3ffff9f ffffff01     ................
   c0360:	ffffffff ffffffff a700efcf ffffff8f     ................
   c0370:	ffffffff ffffffff ffffffff ffffffff     ................
   c0380:	f10e16fc ffbff9ff ffdffeff ff33e0ff     ..............3.
   c0390:	ffffffff ffffffff eecfffff ff9f3b30     ............0;..
   c03a0:	ffffffff ffffffff ffffffff ffffffff     ................
   c03b0:	73fcffff f3ff7bce ffffff7d c0ffffcf     ...s.{..}.......
   c03c0:	ffffffff ffffffff ffffffff db30eccf     ..............0.
   c03d0:	fffffffb ffffffff ffffffff ffffffff     ................
   c03e0:	ffffffff 3fc68ffc ff7bceff ff4fffff     .......?..{...O.
   c03f0:	ffffc3ff ffffffff feffffff eccfffff     ................
   c0400:	ffff8f01 ffffffff ffffffff ffffffff     ................
   c0410:	ffffffff 8ffcffff 9cff9fd1 ffffffe7     ................
   c0420:	c7ffff2f ffffffff ffffffff ffff9dff     /...............
   c0430:	8f07eccf ffffffdf ffffffff ffffffff     ................
   c0440:	ffffffff ffffffff cfdbcffc ffef79ff     .............y..
   c0450:	ffafffff ffffcfff ffffffff 9bffffff     ................
   c0460:	eecfffbf ffffcf1e ffffffff ffffffff     ................
   c0470:	ffffffff ffffffff dffcffff e3f0c7c3     ................
   c0480:	ffffffcf cfffffaf ffffffff ffffffff     ................
   c0490:	ff379bff ff7eefcf ffffffff ffffffff     ..7...~.........
   c04a0:	ffffffff ffffffff ffffffff f8e3dffe     ................
   c04b0:	ff8f0f00 ff87ffff ffff9fff ffffffff     ................
   c04c0:	f7fdffff ef67ff77 ffff7ffe ffffffff     ....w.g.........
   c04d0:	ffffffff ffffffff ffffffff 7ffeffff     ................
   c04e0:	fffffff7 ffffff81 1fffff87 ffffffff     ................
   c04f0:	ffffffff ff7f1ffe fffdef87 ffffffff     ................
   c0500:	ffffffff ffffffff ffffffff ffffffff     ................
   c0510:	fff77ffe ff1cffff ffcfffff ffff1ffe     ................
   c0520:	ffffffff 1fffffff ef87fbff ffffff1f     ................
   c0530:	ffffffff ffffffff ffffffff ffffffff     ................
   c0540:	4ffeffff fefffde7 7bff7f0e 3ff8ff80     ...O.......{...?
   c0550:	feffffff ffffffff 99fe8ffb ff6fee83     ..............o.
   c0560:	ffffffff ffffffff ffffffff ffffffff     ................
   c0570:	ffffffff fce76ffe ff77fcff 0380fbff     .....o....w.....
   c0580:	ffff7f7e fffffcff cffdffff e0fcdfff     ~...............
   c0590:	ffffffff ffffffff ffffffff ffffffff     ................
   c05a0:	ffffffff 6ffe7ffb f83ff0f7 ffffffff     .......o..?.....
   c05b0:	ff000000 fdfffeff ffffffff fff37f7e     ............~...
   c05c0:	ff7fc3f8 ffffffff ffffffff ffffffff     ................
   c05d0:	ffffffff ffdbffff e0e767fc fffff90f     .........g......
   c05e0:	f360f8ff feffffc7 ff7bfdff ff1fdfff     ..`.......{.....
   c05f0:	fff9fffb ffffffff ffffffff ffffffff     ................
   c0600:	ffffffff ffffffff 177cfedf e301c4f7     ..........|.....
   c0610:	c8fff3ff ffffff31 ecdffeff dfffff77     ....1.......w...
   c0620:	1fffffcf ffffffff ffffffff ffffffff     ................
   c0630:	ffffffff ffffffff fecfffff 80f3fbfd     ................
   c0640:	e7ff471c ff7bc0ff f6ffff7f 7ffeecdf     .G....{.........
   c0650:	ffffffff ffff1fff ffffffff ffffffff     ................
   c0660:	ffffffff ffffffff ffffffff f1f9ffdf     ................
   c0670:	0f7d20f8 80ff9fff ffffffff 2fdff5ff     . }............/
   c0680:	ffffffff ffefffff ffffffff ffffffff     ................
   c0690:	ffffffff ffffffff ffffffff ffffffff     ................
   c06a0:	7ff8e6fb 1fff9fff ffff83ff f4ffffff     ................
   c06b0:	dfff3fdf ffffffff ffffffc3 ffffffff     .?..............
   c06c0:	ffffffff ffffffff ffffffff ffffffff     ................
   c06d0:	e6e7ffff 3fff7f70 8fdf3ffc ffffffff     ....p..?.?......
   c06e0:	9f9ff6ff ffffbfff ffc3ffff ffffffff     ................
   c06f0:	ffffffff ffffffff ffffffff ffffffff     ................
   c0700:	dfffffff 3f87e3e7 1cf87ffe ffff1f00     .......?........
   c0710:	fbffffff ffffdffe ffffffff ffffffcf     ................
   c0720:	ffffffff ffffffff ffffffff ffffffff     ................
   c0730:	ffffffff c7e7ffff fffc8f8f 3f0000e0     ...............?
   c0740:	ffffffff 7ffe9bff fffff3ff ffffffff     ................
   c0750:	ffffffff ffffffff ffffffff ffffffff     ................
   c0760:	ffffffff ffffffff e7c5cf67 01e0fff9     ........g.......
   c0770:	ffffff00 0dffffff e4ffffdf ffffffff     ................
   c0780:	ffffffff ffffffff ffffffff ffffffff     ................
   c0790:	ffffffff ffffffff cdcfffff fff3fbe3     ................
   c07a0:	ff1f00de ffffffff ffdd8cff fffbcdfe     ................
   c07b0:	ffffffff ffffffff ffffffff ffffffff     ................
   c07c0:	ffffffff ffffffff fffeffff fde7d9cf     ................
   c07d0:	ff3fffc7 ffffffff ffffffff dffeffce     ..?.............
   c07e0:	ffffffef ffffffff ffffffff ffffffff     ................
   c07f0:	ffffffff ffffffff ffffffff d90f73ff     .............s..
   c0800:	fe07fff3 ffffff7f ffffffff 7fffffff     ................
   c0810:	ffdfd3fc ffffffff ffffffff ffffffff     ................
   c0820:	ffffffff ffffffff ffffffff 1bf7ffff     ................
   c0830:	fff9f30f fffffc07 ffffffff ffffffff     ................
   c0840:	b7fdffff ffffffff ffffffff ffffffff     ................
   c0850:	ffffffff ffffffff ffffffff ffffffff     ................
   c0860:	7f0f9aff ffdbfffc ffffffff ffffffff     ................
   c0870:	ffffffff ffffb7dd ffffffff ffffffff     ................
   c0880:	ffffffff ffffffff ffffffff ffffffff     ................
   c0890:	e3ffffff 7ffeff3f ffffe7db ffffffff     ....?...........
   c08a0:	ffffffff bfdfffff ffffffff ffffffff     ................
   c08b0:	ffffffff ffffffff ffffffff ffffffff     ................
   c08c0:	ffffffff ffbff3fe cfef3fff ffffffff     .........?......
   c08d0:	ffffffff ffffffff ffffffef ffffffff     ................
   c08e0:	ffffffff ffffffff ffffffff ffffffff     ................
   c08f0:	ffffffff fffeffff 9fffffff ffff9fff     ................
   c0900:	ffffffff ffffffff ff7ffeff ffffffff     ................
   c0910:	ffffffff ffffffff ffffffff ffffffff     ................
   c0920:	ffffffff ffffffff fffffffe b3ffcfff     ................
   c0930:	ffffffff ffffffff ffffffff ffffffff     ................
   c0940:	ffffffff ffffffff ffffffff ffffffff     ................
   c0950:	ffffffff ffffffff fffffeff e7ffffff     ................
   c0960:	ffff0ff8 ffffffff ffffffff ffffffff     ................
   c0970:	ffffffff ffffffff ffffffff ffffffff     ................
   c0980:	ffffffff ffffffff ffffffff ffffffff     ................
   c0990:	1ff8e3ff ffffffff ffffffff ffffffff     ................
   c09a0:	ffffffff ffffffff ffffffff ffffffff     ................
   c09b0:	ffffffff ffffffff ffffffff ffffffff     ................
   c09c0:	f9ffffff ffff3ff8 ffffffff ffffffff     .....?..........
   c09d0:	ffffffff ffffffff ffffffff ffffffff     ................
   c09e0:	ffffffff ffffffff ffffffff ffffffff     ................
   c09f0:	ffffffff 7ff8fcff ffffffff ffffffff     ................
   c0a00:	ffffffff ffffffff ffffffff ffffffff     ................
   c0a10:	ffffffff ffffffff ffffffff ffffffff     ................
   c0a20:	ffffffff feffffff ffffff7f ffffffff     ................
   c0a30:	ffffffff ffffffff ffffffff ffffffff     ................
   c0a40:	ffffffff ffffffff ffffffff ffffffff     ................
   c0a50:	ffffffff ffffffff ffffffff ffffffff     ................
   c0a60:	ffffffff ffffffff ffffffff ffffffff     ................
   c0a70:	ffffffff ffffffff ffffffff ffffffff     ................
   c0a80:	ffffffff ffffffff ffffffff ffffffff     ................
   c0a90:	ffffffff ffffffff ffffffff ffffffff     ................
   c0aa0:	ffffffff ffffffff ffffffff ffffffff     ................
   c0ab0:	ffffffff ffffffff ffffffff ffffffff     ................
   c0ac0:	ffffffff ffffffff ffffffff ffffffff     ................
   c0ad0:	ffffffff ffffffff ffffffff ffffffff     ................
   c0ae0:	ffffffff ffffffff ffffffff ffffffff     ................
   c0af0:	ffffffff ffffffff ffffffff ffffffff     ................
   c0b00:	ffffffff ffffffff ffffffff ffffffff     ................
   c0b10:	ffffffff ffffffff ffffffff ffffffff     ................
   c0b20:	ffffffff ffffffff ffffffff ffffffff     ................
   c0b30:	ffffffff ffffffff ffffffff ffffffff     ................
   c0b40:	ffffffff ffffffff ffffffff ffffffff     ................
   c0b50:	ffffffff ffffffff ffffffff ffffffff     ................
   c0b60:	ffffffff ffffffff ffffffff ffffffff     ................
   c0b70:	ffffffff ffffffff ffffffff ffffffff     ................
   c0b80:	ffffffff ffffffff ffffffff ffffffff     ................
   c0b90:	ffffffff ffffffff ffffffff ffffffff     ................
   c0ba0:	ffffffff ffffffff ffffffff ffffffff     ................
   c0bb0:	ffffffff ffffffff ffffffff ffffffff     ................
   c0bc0:	ffffffff ffffffff ffffffff ffffffff     ................
   c0bd0:	ffffffff ffffffff ffffffff ffffffff     ................
   c0be0:	ffffffff ffffffff ffffffff ffffffff     ................
   c0bf0:	ffffffff ffffffff ffffffff ffffffff     ................
   c0c00:	ffffffff ffffffff ffffffff ffffffff     ................
   c0c10:	ffffffff ffffffff ffffffff ffffffff     ................
   c0c20:	ffffffff ffffffff ffffffff ffffffff     ................
   c0c30:	ffffffff ffffffff ffffffff ffffffff     ................
   c0c40:	ffffffff ffffffff ffffffff ffffffff     ................
   c0c50:	ffffffff ffffffff ffffffff ffffffff     ................
   c0c60:	ffffffff ffffffff ffffffff ffffffff     ................
   c0c70:	ffffffff ffffffff ffffffff ffffffff     ................
   c0c80:	ffffffff ffffffff ffffffff ffffffff     ................
   c0c90:	ffffffff ffffffff ffffffff ffffffff     ................

000c0ca0 <_ZL21Bitmap3c400x300_1_red>:
   c0ca0:	ffffffff ffffffff ffffffff ffffffff     ................
   c0cb0:	ffffffff ffffffff ffffffff ffffffff     ................
   c0cc0:	ffffffff ffffffff ffffffff ffffffff     ................
   c0cd0:	ffffffff ffffffff ffffffff ffffffff     ................
   c0ce0:	ffffffff ffffffff ffffffff ffffffff     ................
   c0cf0:	ffffffff ffffffff ffffffff ffffffff     ................
   c0d00:	ffffffff ffffffff ffffffff ffffffff     ................
   c0d10:	ffffffff ffffffff ffffffff ffffffff     ................
   c0d20:	ffffffff ffffffff ffffffff ffffffff     ................
   c0d30:	ffffffff ffffffff ffffffff ffffffff     ................
   c0d40:	ffffffff ffffffff ffffffff ffffffff     ................
   c0d50:	ffffffff ffffffff ffffffff ffffffff     ................
   c0d60:	ffffffff ffffffff ffffffff ffffffff     ................
   c0d70:	ffffffff ffffffff ffffffff ffffffff     ................
   c0d80:	ffffffff ffffffff ffffffff ffffffff     ................
   c0d90:	ffffffff ffffffff ffffffff ffffffff     ................
   c0da0:	ffffffff ffffffff ffffffff ffffffff     ................
   c0db0:	ffffffff ffffffff ffffffff ffffffff     ................
   c0dc0:	ffffffff ffffffff ffffffff ffffffff     ................
   c0dd0:	ffffffff ffffffff ffffffff ffffffff     ................
   c0de0:	ffffffff ffffffff ffffffff ffffffff     ................
   c0df0:	ffffffff ffffffff ffffffff ffffffff     ................
   c0e00:	ffffffff ffffffff ffffffff ffffffff     ................
   c0e10:	ffffffff ffffffff ffffffff ffffffff     ................
   c0e20:	ffffffff ffffffff ffffffff ffffffff     ................
   c0e30:	ffffffff ffffffff ffffffff ffffffff     ................
   c0e40:	ffffffff ffffffff ffffffff ffffffff     ................
   c0e50:	ffffffff ffffffff ffffffff ffffffff     ................
   c0e60:	ffffffff ffffffff ffffffff ffffffff     ................
   c0e70:	ffffffff ffffffff ffffffff ffffffff     ................
   c0e80:	ffffffff ffffffff ffffffff ffffffff     ................
   c0e90:	ffffffff ffffffff ffffffff ffffffff     ................
   c0ea0:	ffffffff ffffffff ffffffff ffffffff     ................
   c0eb0:	ffffffff ffffffff ffffffff ffffffff     ................
   c0ec0:	ffffffff ffffffff ffffffff ffffffff     ................
   c0ed0:	ffffffff ffffffff ffffffff ffffffff     ................
   c0ee0:	ffffffff ffffffff ffffffff ffffffff     ................
   c0ef0:	ffffffff ffffffff ffffffff ffffffff     ................
   c0f00:	ffffffff ffffffff ffffffff ffffffff     ................
   c0f10:	ffffffff ffffffff ffffffff ffffffff     ................
   c0f20:	ffffffff ffffffff ffffffff ffffffff     ................
   c0f30:	ffffffff ffffffff ffffffff ffffffff     ................
   c0f40:	ffffffff ffffffff ffffffff ffffffff     ................
   c0f50:	ffffffff ffffffff ffffffff ffffffff     ................
   c0f60:	ffffffff ffffffff ffffffff ffffffff     ................
   c0f70:	ffffffff ffffffff ffffffff ffffffff     ................
   c0f80:	ffffffff ffffffff ffffffff ffffffff     ................
   c0f90:	ffffffff ffffffff ffffffff ffffffff     ................
   c0fa0:	ffffffff ffffffff ffffffff ffffffff     ................
   c0fb0:	ffffffff ffffffff ffffffff ffffffff     ................
   c0fc0:	ffffffff ffffffff ffffffff ffffffff     ................
   c0fd0:	ffffffff ffffffff ffffffff ffffffff     ................
   c0fe0:	ffffffff ffffffff ffffffff ffffffff     ................
   c0ff0:	ffffffff ffffffff ffffffff ffffffff     ................
   c1000:	ffffffff ffffffff ffffffff ffffffff     ................
   c1010:	ffffffff ffffffff ffffffff ffffffff     ................
   c1020:	ffffffff ffffffff ffffffff ffffffff     ................
   c1030:	ffffffff ffffffff ffffffff ffffffff     ................
   c1040:	ffffffff ffffffff ffffffff ffffffff     ................
   c1050:	ffffffff ffffffff ffffffff ffffffff     ................
   c1060:	ffffffff ffffffff ffffffff ffffffff     ................
   c1070:	ffffffff ffffffff ffffffff ffffffff     ................
   c1080:	ffffffff ffffffff ffffffff ffffffff     ................
   c1090:	ffffffff ffffffff ffffffff ffffffff     ................
   c10a0:	ffffffff ffffffff ffffffff ffffffff     ................
   c10b0:	ffffffff ffffffff ffffffff ffffffff     ................
   c10c0:	ffffffff ffffffff ffffffff ffffffff     ................
   c10d0:	ffffffff ffffffff ffffffff ffffffff     ................
   c10e0:	ffffffff ffffffff ffffffff ffffffff     ................
   c10f0:	ffffffff ffffffff ffffffff ffffffff     ................
   c1100:	ffffffff ffffffff ffffffff ffffffff     ................
   c1110:	ffffffff ffffffff ffffffff ffffffff     ................
   c1120:	ffffffff ffffffff ffffffff ffffffff     ................
   c1130:	ffffffff ffffffff ffffffff ffffffff     ................
   c1140:	ffffffff ffffffff ffffffff ffffffff     ................
   c1150:	ffffffff ffffffff ffffffff ffffffff     ................
   c1160:	ffffffff ffffffff ffffffff ffffffff     ................
   c1170:	ffffffff ffffffff ffffffff ffffffff     ................
   c1180:	ffffffff ffffffff ffffffff ffffffff     ................
   c1190:	ffffffff ffffffff ffffffff ffffffff     ................
   c11a0:	ffffffff ffffffff ffffffff ffffffff     ................
   c11b0:	ffffffff ffffffff ffffffff ffffffff     ................
   c11c0:	ffffffff ffffffff ffffffff ffffffff     ................
   c11d0:	ffffffff ffffffff ffffffff ffffffff     ................
   c11e0:	ffffffff ffffffff ffffffff ffffffff     ................
   c11f0:	ffffffff ffffffff ffffffff ffffffff     ................
   c1200:	ffffffff ffffffff ffffffff ffffffff     ................
   c1210:	ffffffff ffffffff ffffffff ffffffff     ................
   c1220:	ffffffff ffffffff ffffffff ffffffff     ................
   c1230:	ffffffff ffffffff ffffffff ffffffff     ................
   c1240:	ffffffff ffffffff ffffffff ffffffff     ................
   c1250:	ffffffff ffffffff ffffffff ffffffff     ................
   c1260:	ffffffff ffffffff ffffffff ffffffff     ................
   c1270:	ffffffff ffffffff ffffffff ffffffff     ................
   c1280:	ffffffff ffffffff ffffffff ffffffff     ................
   c1290:	ffffffff ffffffff ffffffff ffffffff     ................
   c12a0:	ffffffff ffffffff ffffffff ffffffff     ................
   c12b0:	ffffffff ffffffff ffffffff ffffffff     ................
   c12c0:	ffffffff ffffffff ffffffff ffffffff     ................
   c12d0:	ffffffff ffffffff ffffffff ffffffff     ................
   c12e0:	ffffffff ffffffff ffffffff ffffffff     ................
   c12f0:	ffffffff ffffffff ffffffff ffffffff     ................
   c1300:	ffffffff ffffffff ffffffff ffffffff     ................
   c1310:	ffffffff ffffffff ffffffff ffffffff     ................
   c1320:	ffffffff ffffffff ffffffff ffffffff     ................
   c1330:	ffffffff ffffffff ffffffff ffffffff     ................
   c1340:	ffffffff ffffffff ffffffff ffffffff     ................
   c1350:	ffffffff ffffffff ffffffff ffffffff     ................
   c1360:	ffffffff ffffffff ffffffff ffffffff     ................
   c1370:	ffffffff ffffffff ffffffff ffffffff     ................
   c1380:	ffffffff ffffffff ffffffff ffffffff     ................
   c1390:	ffffffff ffffffff ffffffff ffffffff     ................
   c13a0:	ffffffff ffffffff ffffffff ffffffff     ................
   c13b0:	ffffffff ffffffff ffffffff ffffffff     ................
   c13c0:	ffffffff ffffffff ffffffff ffffffff     ................
   c13d0:	ffffffff ffffffff ffffffff ffffffff     ................
   c13e0:	ffffffff ffffffff ffffffff ffffffff     ................
   c13f0:	ffffffff ffffffff ffffffff ffffffff     ................
   c1400:	ffffffff ffffffff ffffffff ffffffff     ................
   c1410:	ffffffff ffffffff ffffffff ffffffff     ................
   c1420:	ffffffff ffffffff ffffffff ffffffff     ................
   c1430:	ffffffff ffffffff ffffffff ffffffff     ................
   c1440:	ffffffff ffffffff ffffffff ffffffff     ................
   c1450:	ffffffff ffffffff ffffffff ffffffff     ................
   c1460:	ffffffff ffffffff ffffffff ffffffff     ................
   c1470:	ffffffff ffffffff ffffffff ffffffff     ................
   c1480:	ffffffff ffffffff ffffffff ffffffff     ................
   c1490:	ffffffff ffffffff ffffffff ffffffff     ................
   c14a0:	ffffffff cfffffff ffffffff ffffffff     ................
   c14b0:	ffffffff ffffffff ffffffff ffffffff     ................
   c14c0:	ffffffff ffffffff ffffffff ffffffff     ................
   c14d0:	ffffffff ffffffff ffff87ff ffffffff     ................
   c14e0:	ffffffff ffffffff ffffffff ffffffff     ................
   c14f0:	ffffffff ffffffff ffffffff ffffffff     ................
   c1500:	ffffffff ffffffff 03ffffff ffffffff     ................
   c1510:	ffffffff ffffffff ffffffff ffffffff     ................
   c1520:	ffffffff ffffffff ffffffff ffffffff     ................
   c1530:	ffffffff ffffffff ffffffff ffff00fe     ................
   c1540:	ffffffff ffffffff ffffffff ffffffff     ................
   c1550:	ffffffff ffffffff ffffffff ffffffff     ................
   c1560:	ffffffff ffffffff ffffffff 00fcffff     ................
   c1570:	ffffffff ffffffff ffffffff ffffffff     ................
   c1580:	ffffffff ffffffff ffffffff ffffffff     ................
   c1590:	ffffffff ffffffff ffffffff ffffffff     ................
   c15a0:	ff7f00fc ffffffff ffffffff ffffffff     ................
   c15b0:	ffffffff ffffffff ffffffff ffffffff     ................
   c15c0:	ffffffff ffffffff ffffffff ffffffff     ................
   c15d0:	00f8ffff ffffff7f ffffffff ffffffff     ................
   c15e0:	ffffffff ffffffff ffffffff ffffffff     ................
   c15f0:	ffffffff ffffffff ffffffff ffffffff     ................
   c1600:	ffffffff ff7f00f8 ffffffff ffffffff     ................
   c1610:	ffffffff ffffffff ffffffff ffffffff     ................
   c1620:	ffffffff ffffffff ffffffff ffffffff     ................
   c1630:	ffffffff 00f8ffff ffffffff ffffffff     ................
   c1640:	ffffffff ffffffff ffffffff ffffffff     ................
   c1650:	ffffffff ffffffff ffffffff ffffffff     ................
   c1660:	ffffffff ffffffff ffff00f8 ffffffff     ................
   c1670:	ffffffff ffffffff ffffffff ffffffff     ................
   c1680:	ffffffff ffffffff ffffffff ffffffff     ................
   c1690:	ffffffff ffffffff 01f8ffff ffffffff     ................
   c16a0:	ffffffff ffffffff ffffffff ffffffff     ................
   c16b0:	ffffffff ffffffff ffffffff ffffffff     ................
   c16c0:	ffffffff ffffffff ffffffff ffff03fc     ................
   c16d0:	ffffffff ffffffff ffffffff ffffffff     ................
   c16e0:	ffffffff ffffffff ffffffff ffffffff     ................
   c16f0:	ffffffff ffffffff ffffffff 67fcffff     ...............g
   c1700:	ffffffff ffffffff ffffffff ffffffff     ................
   c1710:	ffffffff ffffffff ffffffff ffffffff     ................
   c1720:	ffffffff ffffffff ffffffff ffffffff     ................
   c1730:	fffffffe ffffffff ffffffff ffffffff     ................
   c1740:	ffffffff ffffffff ffffffff ffffffff     ................
   c1750:	ffffffff ffffffff ffffffff ffffffff     ................
   c1760:	ffffffff ffffffff ffffffff ffffffff     ................
   c1770:	ffffffff ffffffff ffffffff ffffffff     ................
   c1780:	ffffffff ffffffff ffffffff ffffffff     ................
   c1790:	ffffffff ffffffff ffffffff ffffffff     ................
   c17a0:	ffffffff ffffffff ffffffff ffffffff     ................
   c17b0:	ffffffff ffffffff ffffffff ffffffff     ................
   c17c0:	ffffffff ffffffff ffffffff ffffffff     ................
   c17d0:	ffffffff ffffffff ffffffff ffffffff     ................
   c17e0:	ffffffff ffffffff ffffffff ffffffff     ................
   c17f0:	ffffffff ffffffff ffffffff ffffffff     ................
   c1800:	ffffffff ffffffff ffffffff ffffffff     ................
   c1810:	ffffffff ffffffff ffffffff ffffffff     ................
   c1820:	ffffffff ffffffff ffffffff ffffffff     ................
   c1830:	ffffffff ffffffff ffffffff ffffffff     ................
   c1840:	ffffffff ffffffff ffffffff ffffffff     ................
   c1850:	ffffffff ffffffff ffffffff ffffffff     ................
   c1860:	ffffffff ffffffff ffffffff ffffffff     ................
   c1870:	ffffffff ffffffff ffffffff ffffffff     ................
   c1880:	ffffffff ffffffff ffffffff ffffffff     ................
   c1890:	ffffffff ffffffff ffffffff ffffffff     ................
   c18a0:	ffffffff ffffffff ffffffff ffffffff     ................
   c18b0:	ffffffff ffffffff ffffffff ffffffff     ................
   c18c0:	ffffffff ffffffff ffffffff ffffffff     ................
   c18d0:	ffffffff ffffffff ffffffff ffffffff     ................
   c18e0:	ffffffff ffffffff ffffffff ffffffff     ................
   c18f0:	ffffffff ffffffff ffffffff ffffffff     ................
   c1900:	ffffffff ffffffff ffffffff ffffffff     ................
   c1910:	ffffffff ffffffff ffffffff ffffffff     ................
   c1920:	ffffffff ffffffff ffffffff ffffffff     ................
   c1930:	ffffffff ffffffff ffffffff ffffffff     ................
   c1940:	ffffffff ffffffff ffffffff ffffffff     ................
   c1950:	ffffffff ffffffff ffffffff ffffffff     ................
   c1960:	ffffffff ffffffff ffffffff ffffffff     ................
   c1970:	ffffffff ffffffff ffffffff ffffffff     ................
   c1980:	ffffffff ffffffff ffffffff ffffffff     ................
   c1990:	ffffffff ffffffff ffffffff ffffffff     ................
   c19a0:	ffffffff ffffffff ffffffff ffffffff     ................
   c19b0:	ffffffff ffffffff ffffffff ffffffff     ................
   c19c0:	ffffffff ffffffff ffffffff ffffffff     ................
   c19d0:	ffffffff ffffffff ffffffff ffffffff     ................
   c19e0:	ffffffff ffffffff ffffffff ffffffff     ................
   c19f0:	ffffffff ffffffff ffffffff ffffffff     ................
   c1a00:	ffffffff ffffffff ffffffff ffffffff     ................
   c1a10:	ffffffff ffffffff ffffffff ffffffff     ................
   c1a20:	ffffffff ffffffff ffffffff ffffffff     ................
   c1a30:	ffffffff ffffffff f8ffffff ffffff7f     ................
   c1a40:	ffffffff ffffffff ffffffff ffffffff     ................
   c1a50:	ffffffff ffffffff ffffffff ffffffff     ................
   c1a60:	ffffffff ffffffff ffffffff ff3fe0ff     ..............?.
   c1a70:	ffffffff ffffffff ffffffff ffffffff     ................
   c1a80:	ffffffff ffffffff ffffffff ffffffff     ................
   c1a90:	ffffffff ffffffff ffffffff f0ffffff     ................
   c1aa0:	ffffff1f ffffffff ffffffff ffffffff     ................
   c1ab0:	ffffffff ffffffff ffffffff ffffffff     ................
   c1ac0:	ffffffff ffffffff ffffffff ffffffff     ................
   c1ad0:	ff07f0ff ffffffff ffffffff ffffffff     ................
   c1ae0:	ffffffff ffffffff ffffffff ffffffff     ................
   c1af0:	ffffffff ffffffff ffffffff ffffffff     ................
   c1b00:	f8ffffff ffffff07 ffffffff ffffffff     ................
   c1b10:	ffffffff ffffffff ffffffff ffffffff     ................
   c1b20:	ffffffff ffffffff ffffffff ffffffff     ................
   c1b30:	ffffffff ff03f8ff ffffffff ffffffff     ................
   c1b40:	ffffffff ffffffff ffffffff ffffffff     ................
   c1b50:	ffffffff ffffffff ffffffff ffffffff     ................
   c1b60:	ffffffff fcffffff ffffff01 ffffffff     ................
   c1b70:	ffffffff ffffffff ffffffff ffffffff     ................
   c1b80:	ffffffff ffffffff ffffffff ffffffff     ................
   c1b90:	ffffffff ffffffff ff00feff ffffffff     ................
   c1ba0:	ffffffff ffffffff ffffffff ffffffff     ................
   c1bb0:	ffffffff ffffffff ffffffff ffffffff     ................
   c1bc0:	ffffffff ffffffff feffffff ffffff00     ................
   c1bd0:	ffffffff ffffffff ffffffff ffffffff     ................
   c1be0:	ffffffff ffffffff ffffffff ffffffff     ................
   c1bf0:	ffffffff ffffffff ffffffff 7f00ffff     ................
   c1c00:	ffffffff ffffffff ffffffff ffffffff     ................
   c1c10:	ffffffff ffffffff ffffffff ffffffff     ................
   c1c20:	ffffffff ffffffff ffffffff ffffffff     ................
   c1c30:	ffff7f80 ffffffff ffffffff ffffffff     ................
   c1c40:	ffffffff ffffffff ffffffff ffffffff     ................
   c1c50:	ffffffff ffffffff bfffffff ffffffff     ................
   c1c60:	3f807ffc ffffffff ffffffff ffffffff     ...?............
   c1c70:	ffffffff ffffffff ffffffff ffffffff     ................
   c1c80:	ffffffff ffffffff ffffffff ff0730ff     .............0..
   c1c90:	1ff0ffff ffff3fc0 ffffffff ffffffff     .....?..........
   c1ca0:	ffffffff ffffffff ffffffff ffffffff     ................
   c1cb0:	ffffffff ffffffff 8fffffff 00ffffff     ................
   c1cc0:	ffffff07 3fe007f0 ffffffff ffffffff     .......?........
   c1cd0:	ffffffff ffffffff ffffffff ffffffff     ................
   c1ce0:	ffffffff ffffffff ffffffff ffe301fe     ................
   c1cf0:	ff0100fe 01f0ffff ffff3fe0 ffffffff     .........?......
   c1d00:	ffffffff ffffffff ffffffff ffffffff     ................
   c1d10:	ffffffff ffffffff ffffffff 00fcffff     ................
   c1d20:	00fcfff1 ffffff00 3f7000f0 ffffffff     ..........p?....
   c1d30:	ffffffff ffffffff ffffffff ffffffff     ................
   c1d40:	ffffffff ffffffff ffffffff ffffffff     ................
   c1d50:	ffe000fc ff0000f8 00e0ffff ffff1f78     ............x...
   c1d60:	ffffffff ffffffff ffffffff ffffffff     ................
   c1d70:	ffffffff ffffffff ffffffff ffffffff     ................
   c1d80:	00fcffff 00f0ffe0 ffff7f00 1f3800e0     ..............8.
   c1d90:	ffffffff ffffffff ffffffff ffffffff     ................
   c1da0:	ffffffff ffffffff ffffffff ffffffff     ................
   c1db0:	ffffffff 7f7000f8 7f0000e0 00c0ffff     ......p.........
   c1dc0:	ffff3f18 ffffffff ffffffff ffffffff     .?..............
   c1dd0:	ffffffff ffffffff ffffffff ffffffff     ................
   c1de0:	ffffffff 00f0ffff 00e03f30 ffff7f00     ........0?......
   c1df0:	3f1c00e0 ffffffff ffffffff ffffffff     ...?............
   c1e00:	ffffffff ffffffff ffffffff ffffffff     ................
   c1e10:	ffffffff ffffffff 3f7000f0 3f0000e0     ..........p?...?
   c1e20:	00e0ffff ffff3f1c ffffffff ffffffff     .....?..........
   c1e30:	ffffffff ffffffff ffffffff ffffffff     ................
   c1e40:	ffffffff ffffffff 00f0ffff 00e03f70     ............p?..
   c1e50:	ffff3f00 331f00e0 ffffffff ffffffff     .?.....3........
   c1e60:	ffffffff ffffffff ffffffff ffffffff     ................
   c1e70:	ffffffff ffffffff ffffffff 3f7000f0     ..............p?
   c1e80:	3f0000e0 00e0ffff ffff231f ffffffff     ...?.....#......
   c1e90:	ffffffff ffffffff ffffffff ffff8fff     ................
   c1ea0:	ffffffff ffffffff ffffffff 00f0ffff     ................
   c1eb0:	00e03f78 ffff7f00 e10f00e0 ffffffff     x?..............
   c1ec0:	ffffffff ffffffff ffffffff 07fcffff     ................
   c1ed0:	ffffffff ffffffff ffffffff ffffffff     ................
   c1ee0:	077800f0 7f0000f0 00e0ffff ffffe10f     ..x.............
   c1ef0:	ffffffff ffffffff ffffffff ffffffff     ................
   c1f00:	ffff07e0 ffffffff ffffffff ffffffff     ................
   c1f10:	00f8ffff 00f0033c ffff7f00 e10f00e0     ....<...........
   c1f20:	ffffffff ffffffff ffffffff ffffffff     ................
   c1f30:	0fc0ffff 07f8ffff ffffffff ffffffff     ................
   c1f40:	ffffffff 07fe61fe 7f0000f0 00f0ffff     .....a..........
   c1f50:	ffffe007 ffffffff ffffffff ffffffff     ................
   c1f60:	ffffffff ffff0f00 ff1f00f0 ffffffff     ................
   c1f70:	ffffffff 7cffffff 00f001ff ffff7f00     .......|........
   c1f80:	f00700f8 ffffffff ffffffff ffffffff     ................
   c1f90:	ffffffff 0700fcff 00c0ffff ffffff0f     ................
   c1fa0:	ffffffff ffffffff 010e00ff 7f0000f0     ................
   c1fb0:	80ffffff fffff007 ffffffff ffffffff     ................
   c1fc0:	ffffffff f8ffffff ffff0300 ff0300c0     ................
   c1fd0:	ffffffff ffffffff 00ffffff 00700004     ..............p.
   c1fe0:	ffff7f00 f00780ff ffffffff ffffffff     ................
   c1ff0:	ffffffff ffffffff 0000f0ff 0080ff7f     ................
   c2000:	ffffff0f ffffffff ffffffff 000000ff     ................
   c2010:	ff200078 c0ffffff fffff00f ffffffff     x. .............
   c2020:	ffffffff ffffffff e0ffffff ff0f0000     ................
   c2030:	ff0f0080 ffffffff ffffffff 80ffffff     ................
   c2040:	001c0000 ffffff63 f00fd0ff ffffffff     ....c...........
   c2050:	ffffffff ffffffff ffffffff 0000e0ff     ................
   c2060:	0080ff1f ffff7f07 ffffffff ffffffff     ................
   c2070:	000000fc ff1f001e f0ffffff fffff007     ................
   c2080:	ffffffff ffffffff ffffffff f0ffffff     ................
   c2090:	ff3f0000 3f070000 ffffffff ffffffff     ..?....?........
   c20a0:	00f8ffff ff1f0000 ffffff7f f00380ff     ................
   c20b0:	ffffffff ffffffff ffffffff ffffffff     ................
   c20c0:	0000f0ff 0000ffff ffff0f06 ffffffff     ................
   c20d0:	ffffffff 000c00f0 ffffff1f 00ffffff     ................
   c20e0:	fffff103 ffffffff ffffffff ffffffff     ................
   c20f0:	f0ffffff ffff0100 01040080 ffffffff     ................
   c2100:	ffffffff 00e0ffff ff0f800f ffffffff     ................
   c2110:	f90300ff ffffffff ffffffff ffffffff     ................
   c2120:	ffffffff 0100f0ff 00c0ffff ffff0008     ................
   c2130:	ffffffff ffffffff 800f0080 feffff0f     ................
   c2140:	00feff7f fffff903 ffffffff ffffffff     ................
   c2150:	ffffffff f8ffffff ffff0700 007004e0     ..............p.
   c2160:	ffffff7f ffffffff 0080ffff ff0fc03f     ............?...
   c2170:	ff1ffcff fb0300fe ffffffff ffffffff     ................
   c2180:	ffffffff ffffffff 0f00fcff 1ff0ffff     ................
   c2190:	ff7f00e0 ffffffff ffffffff c00f0000     ................
   c21a0:	fcffff3f 00feff0f fffff701 ffffffff     ?...............
   c21b0:	ffffffff ffffffff fcffffff ffff0f00     ................
   c21c0:	00e0fffc ffffff3f ffffffff 0000ffff     ....?...........
   c21d0:	ff7f8007 ff0ffcff e00000fc ffffffff     ................
   c21e0:	ffffffff ffffffff ffffffff 3f00feff     ...............?
   c21f0:	ffffffff ff1f00e0 ffffffff ffffffff     ................
   c2200:	000f0000 fcffffff 00fcff07 ffffc100     ................
   c2210:	ffffffff ffffffff ffffffff ffffffff     ................
   c2220:	ffffff41 00f0ffff ffffff1f ffffffff     A...............
   c2230:	0000ffff ffff8007 ff03fcff 800000fe     ................
   c2240:	ffffffff ffffffff ffffffff ffffffff     ................
   c2250:	ffffffff ffffffff ff3f00fc ffffffff     ..........?.....
   c2260:	ffffffff e0030000 fcffff3f 00feff03     ........?.......
   c2270:	ffff8000 ffffffff ffffffff ffffffff     ................
   c2280:	ffffffff ffffffff feffffff ffffff7f     ................
   c2290:	ffffffff 0080ffff ff7fe001 ff03ecff     ................
   c22a0:	c00000fe ffffffff ffffffff ffffffff     ................
   c22b0:	ffffffff ffffffff ffffffff ffffffff     ................
   c22c0:	ffffffff ffffffff e0010080 c0ffff0f     ................
   c22d0:	00ffff01 ffffc000 ffffffff ffffffff     ................
   c22e0:	ffffffff ffffffff ffffffff ffffffff     ................
   c22f0:	ffffffff ffffffff 00c0ffff ff030001     ................
   c2300:	ff0100fc c00000ff ffffffff ffffffff     ................
   c2310:	ffffffff ffffffff ffffffff ffffffff     ................
   c2320:	ffffffff ffffffff ffffffff 000000c0     ................
   c2330:	0080ff01 00ffff00 ffff8001 ffffffff     ................
   c2340:	ffffffff ffffffff ffffffff ffffffff     ................
   c2350:	ffffffff ffffffff ffffffff 00e0ffff     ................
   c2360:	f800e000 ff000000 800100ff ffffffff     ................
   c2370:	ffffffff ffffffff ffffffff ffffffff     ................
   c2380:	ffffffff ffffffff ffffffff ffffffff     ................
   c2390:	800000f0 00007000 00037c00 ffff010f     .....p...|......
   c23a0:	ffffffff ffffffff ffffffff ffffffff     ................
   c23b0:	ffffffff ffffffff ffffffff ffffffff     ................
   c23c0:	00fcffff 60000000 70000000 01328001     .......`...p..2.
   c23d0:	ffffffff ffffffff ffffffff ffffffff     ................
   c23e0:	ffffffff ffffffff ffffffff ffffffff     ................
   c23f0:	ffffffff 000000ff 0000e000 80007000     .............p..
   c2400:	ffff01e0 ffffffff ffffffff ffffffff     ................
   c2410:	ffffffff ffffffff ffffffff ffffffff     ................
   c2420:	ffffffff 80ffffff c0010000 f0800000     ................
   c2430:	03e0c100 ffffffff ffffffff ffffffff     ................
   c2440:	ffffffff ffffffff ffffffff ffffffff     ................
   c2450:	ffffffff ffffffff 0002e0ff 0100c003     ................
   c2460:	c300f8e0 ffff03e0 ffffffff ffffffff     ................
   c2470:	ffffffff ffffffff ffffffff ffffffff     ................
   c2480:	ffffffff ffffffff ffffffff e00700fe     ................
   c2490:	98000100 07c06300 ffffffff ffffffff     .....c..........
   c24a0:	ffffffff ffffffff ffffffff ffffffff     ................
   c24b0:	ffffffff ffffffff ffffffff 00feffff     ................
   c24c0:	0000c01f 7f0030f8 ffff0fc0 ffffffff     .....0..........
   c24d0:	ffffffff ffffffff ffffffff ffffffff     ................
   c24e0:	ffffffff ffffffff ffffffff ffffffff     ................
   c24f0:	c03f00fe f07f0700 1f803f00 ffffffff     ..?......?......
   c2500:	ffffffff ffffffff ffffffff ffffffff     ................
   c2510:	ffffffff ffffffff ffffffff ffffffff     ................
   c2520:	00feffff 0c00e07f 3f00e011 ffff3f80     ...........?.?..
   c2530:	ffffffff ffffffff ffffffff ffffffff     ................
   c2540:	ffffffff ffffffff ffffffff ffffffff     ................
   c2550:	ffffffff f0ff00fe e0011000 7f801f00     ................
   c2560:	ffffffff ffffffff ffffffff ffffffff     ................
   c2570:	ffffffff ffffffff ffffffff ffffffff     ................
   c2580:	ffffffff 01feffff 0000f8ff 1f00e000     ................
   c2590:	ffffff80 ffffffff ffffffff ffffffff     ................
   c25a0:	ffffffff ffffffff ffffffff ffffffff     ................
   c25b0:	ffffffff ffffffff ffff01fe e0000000     ................
   c25c0:	ffc11f00 ffffffff ffffffff ffffffff     ................
   c25d0:	ffffffff ffffffff ffffffff ffffffff     ................
   c25e0:	ffffffff ffffffff 07fcffff 00f0ffff     ................
   c25f0:	0f00f800 ffffffff ffffffff ffffffff     ................
   c2600:	ffffffff ffffffff ffffffff ffffffff     ................
   c2610:	ffffffff ffffffff ffffffff ffff0ffc     ................
   c2620:	f80100f0 ffff0f00 ffffffff ffffffff     ................
   c2630:	ffffffff ffffffff ffffffff ffffffff     ................
   c2640:	ffffffff ffffffff ffffffff 7fff0ffe     ................
   c2650:	00c0ffff 3f00b001 ffffffff ffffffff     .......?........
   c2660:	ffffffff ffffffff ffffffff ffffffff     ................
   c2670:	ffffffff ffffffff ffffffff 07fcffff     ................
   c2680:	fffffff3 38000080 ffff7f00 ffffffff     .......8........
   c2690:	ffffffff ffffffff ffffffff ffffffff     ................
   c26a0:	ffffffff ffffffff ffffffff ffffffff     ................
   c26b0:	fff103fe 0080ffff ff01fc00 ffffffff     ................
   c26c0:	ffffffff ffffffff ffffffff ffffffff     ................
   c26d0:	ffffffff ffffffff ffffffff ffffffff     ................
   c26e0:	03feffff fffffff3 f8000080 ffffff01     ................
   c26f0:	ffffffff ffffffff ffffffff ffffffff     ................
   c2700:	ffffffff ffffffff ffffffff ffffffff     ................
   c2710:	ffffffff ffe101fc 0080ffff 7f00f001     ................
   c2720:	ffffffff ffffffff ffffffff ffffffff     ................
   c2730:	ffffffff ffffffff ffffffff ffffffff     ................
   c2740:	ffffffff 00fcffff ffffffe0 e0010080     ................
   c2750:	ffff7f00 ffffffff ffffffff ffffffff     ................
   c2760:	ffffffff ffffffff ffffffff ffffffff     ................
   c2770:	ffffffff ffffffff ffc000fc 0000ffff     ................
   c2780:	7f30c001 ffffffff ffffffff ffffffff     ..0.............
   c2790:	ffffffff ffffffff ffffffff ffffffff     ................
   c27a0:	ffffffff ffffffff 00fcffff ffff7fe0     ................
   c27b0:	00010000 ffffff39 ffffffff ffffffff     ....9...........
   c27c0:	ffffffff ffffffff ffffffff ffffffff     ................
   c27d0:	ffffffff ffffffff ffffffff 7f6000fc     ..............`.
   c27e0:	0000ffff ff390000 ffffffff ffffffff     ......9.........
   c27f0:	ffffffff ffffffff ffffffff ffffffff     ................
   c2800:	ffffffff ffffffff ffffffff 00feffff     ................
   c2810:	ffff7f30 00000080 ffffff3f ffffffff     0.......?.......
   c2820:	ffffffff ffffffff ffffffff ffffffff     ................
   c2830:	ffffffff ffffffff ffffffff ffffffff     ................
   c2840:	3f3000fe 0000ffff ff7f0000 ffffffff     ..0?............
   c2850:	ffffffff ffffffff ffffffff ffffffff     ................
   c2860:	ffffffff ffffffff ffffffff ffffffff     ................
   c2870:	00ffffff ffff3f38 00000000 ffffff7f     ....8?..........
   c2880:	ffffffff ffffffff ffffffff ffffffff     ................
   c2890:	ffffffff ffffffff ffffffff ffffffff     ................
   c28a0:	ffffffff 3f3800ff 0000ffff ff7f0000     ......8?........
   c28b0:	ffffffff ffffffff ffffffff ffffffff     ................
   c28c0:	ffffffff ffffffff ffffffff ffffffff     ................
   c28d0:	ffffffff 00feffff ffff3f1c 00000000     .........?......
   c28e0:	ffffff7f ffffffff ffffffff ffffffff     ................
   c28f0:	ffffffff ffffffff ffffffff ffffffff     ................
   c2900:	ffffffff ffffffff 1f1c00f8 0000ffff     ................
   c2910:	ff7f0000 ffffffff ffffffff ffffffff     ................
   c2920:	ffffffff ffffffff ffffffff ffffffff     ................
   c2930:	ffffffff ffffffff 00f0ffff ffff1f0e     ................
   c2940:	00000080 ffffff7f ffffffff ffffffff     ................
   c2950:	ffffffff ffffffff ffffffff ffffffff     ................
   c2960:	ffffffff ffffffff ffffffff 1f0600f0     ................
   c2970:	0080ffff ff7f0010 ffffffff ffffffff     ................
   c2980:	ffffffff ffffffff ffffffff ffffffff     ................
   c2990:	ffffffff ffffffff ffffffff 00f0ffff     ................
   c29a0:	ffff1f66 003000c0 ffffff7f ffffffff     f.....0.........
   c29b0:	ffffffff ffffffff ffffffff ffffffff     ................
   c29c0:	ffffffff ffffffff ffffffff ffffffff     ................
   c29d0:	1f3600f0 00c0ffff ffff0070 ffffffff     ..6.....p.......
   c29e0:	ffffffff ffffffff ffffffff ffffffff     ................
   c29f0:	ffffffff ffffffff ffffffff ffffffff     ................
   c2a00:	00f0ffff ffff033e 00f000e0 ffffffff     ....>...........
   c2a10:	ffffffff ffffffff ffffffff ffffffff     ................
   c2a20:	ffffffff ffffffff ffffffff ffffffff     ................
   c2a30:	ffffffff 117c00e0 01f0ffff ffff00f8     ......|.........
   c2a40:	ffffffff ffffffff ffffffff ffffffff     ................
   c2a50:	ffffffff ffffffff ffffffff ffffffff     ................
   c2a60:	ffffffff 00f0ffff ffff1838 01fc03f8     ........8.......
   c2a70:	ffffffff ffffffff ffffffff ffffffff     ................
   c2a80:	ffffffff ffffffff ffffffff ffffffff     ................
   c2a90:	ffffffff ffffffff 186000e0 07fcff7f     ..........`.....
   c2aa0:	ffff07fc ffffffff ffffffff ffffffff     ................
   c2ab0:	ffffffff ffffffff ffffffff ffffffff     ................
   c2ac0:	ffffffff ffffffff 00f0ffff ff7f0840     ............@...
   c2ad0:	ffff1ffe ffffffff ffffffff ffffffff     ................
   c2ae0:	ffffffff ffffffff ffffffff ffffffff     ................
   c2af0:	ffffffff ffffffff ffffffff 000000f0     ................
   c2b00:	ffffff7f ffffffff ffffffff ffffffff     ................
   c2b10:	ffffffff ffffffff ffffffff ffffffff     ................
   c2b20:	ffffffff ffffffff ffffffff 00f0ffff     ................
   c2b30:	ff7f0038 ffffffff ffffffff ffffffff     8...............
   c2b40:	ffffffff ffffffff ffffffff ffffffff     ................
   c2b50:	ffffffff ffffffff ffffffff ffffffff     ................
   c2b60:	063c00f0 ffffff7f ffffffff ffffffff     ..<.............
   c2b70:	ffffffff ffffffff ffffffff ffffffff     ................
   c2b80:	ffffffff ffffffff ffffffff ffffffff     ................
   c2b90:	00f8ffff ff7f0230 ffffffff ffffffff     ....0...........
   c2ba0:	ffffffff ffffffff ffffffff ffffffff     ................
   c2bb0:	ffffffff ffffffff ffffffff ffffffff     ................
   c2bc0:	ffffffff 032400f8 ffffff7f ffffffff     ......$.........
   c2bd0:	ffffffff ffffffff ffffffff ffffffff     ................
   c2be0:	ffffffff ffffffff ffffffff ffffffff     ................
   c2bf0:	ffffffff 00f8ffff ff7f0308 ffffffff     ................
   c2c00:	ffffffff ffffffff ffffffff ffffffff     ................
   c2c10:	ffffffff ffffffff ffffffff ffffffff     ................
   c2c20:	ffffffff ffffffff 031800f8 ffffffff     ................
   c2c30:	ffffffff ffffffff ffffffff ffffffff     ................
   c2c40:	ffffffff ffffffff ffffffff ffffffff     ................
   c2c50:	ffffffff ffffffff 00fcffff ffff0318     ................
   c2c60:	ffffffff ffffffff ffffffff ffffffff     ................
   c2c70:	ffffffff ffffffff ffffffff ffffffff     ................
   c2c80:	ffffffff ffffffff ffffffff 030800fe     ................
   c2c90:	ffffffff ffffffff ffffffff ffffffff     ................
   c2ca0:	ffffffff ffffffff ffffffff ffffffff     ................
   c2cb0:	ffffffff ffffffff ffffffff 00ffffff     ................
   c2cc0:	ffff03c0 ffffffff ffffffff ffffffff     ................
   c2cd0:	ffffffff ffffffff ffffffff ffffffff     ................
   c2ce0:	ffffffff ffffffff ffffffff ffffffff     ................
   c2cf0:	03c083ff ffffffff ffffffff ffffffff     ................
   c2d00:	ffffffff ffffffff ffffffff ffffffff     ................
   c2d10:	ffffffff ffffffff ffffffff ffffffff     ................
   c2d20:	83ffffff ffff03c0 ffffffff ffffffff     ................
   c2d30:	ffffffff ffffffff ffffffff ffffffff     ................
   c2d40:	ffffffff ffffffff ffffffff ffffffff     ................
   c2d50:	ffffffff 0380d1ff ffffffff ffffffff     ................
   c2d60:	ffffffff ffffffff ffffffff ffffffff     ................
   c2d70:	ffffffff ffffffff ffffffff ffffffff     ................
   c2d80:	ffffffff f9ffffff ffff01c0 ffffffff     ................
   c2d90:	ffffffff ffffffff ffffffff ffffffff     ................
   c2da0:	ffffffff ffffffff ffffffff ffffffff     ................
   c2db0:	ffffffff ffffffff 01c0fdff ffffffff     ................
   c2dc0:	ffffffff ffffffff ffffffff ffffffff     ................
   c2dd0:	ffffffff ffffffff ffffffff ffffffff     ................
   c2de0:	ffffffff ffffffff ffffffff ffff01c0     ................
   c2df0:	ffffffff ffffffff ffffffff ffffffff     ................
   c2e00:	ffffffff ffffffff ffffffff ffffffff     ................
   c2e10:	ffffffff ffffffff ffffffff 03e0ffff     ................
   c2e20:	ffffffff ffffffff ffffffff ffffffff     ................
   c2e30:	ffffffff ffffffff ffffffff ffffffff     ................
   c2e40:	ffffffff ffffffff ffffffff ffffffff     ................
   c2e50:	ffff03e0 ffffffff ffffffff ffffffff     ................
   c2e60:	ffffffff ffffffff ffffffff ffffffff     ................
   c2e70:	ffffffff ffffffff ffffffff ffffffff     ................
   c2e80:	07f0ffff ffffffff ffffffff ffffffff     ................
   c2e90:	ffffffff ffffffff ffffffff ffffffff     ................
   c2ea0:	ffffffff ffffffff ffffffff ffffffff     ................
   c2eb0:	ffffffff ffff07f8 ffffffff ffffffff     ................
   c2ec0:	ffffffff ffffffff ffffffff ffffffff     ................
   c2ed0:	ffffffff ffffffff ffffffff ffffffff     ................
   c2ee0:	ffffffff 0ff8ffff ffffffff ffffffff     ................
   c2ef0:	ffffffff ffffffff ffffffff ffffffff     ................
   c2f00:	ffffffff ffffffff ffffffff ffffffff     ................
   c2f10:	ffffffff ffffffff ffff0ffe ffffffff     ................
   c2f20:	ffffffff ffffffff ffffffff ffffffff     ................
   c2f30:	ffffffff ffffffff ffffffff ffffffff     ................
   c2f40:	ffffffff ffffffff ffffffff ffffffff     ................
   c2f50:	ffffffff ffffffff ffffffff ffffffff     ................
   c2f60:	ffffffff ffffffff ffffffff ffffffff     ................
   c2f70:	ffffffff ffffffff ffffffff ffffffff     ................
   c2f80:	ffffffff ffffffff ffffffff ffffffff     ................
   c2f90:	ffffffff ffffffff ffffffff ffffffff     ................
   c2fa0:	ffffffff ffffffff ffffffff ffffffff     ................
   c2fb0:	ffffffff ffffffff ffffffff ffffffff     ................
   c2fc0:	ffffffff ffffffff ffffffff ffffffff     ................
   c2fd0:	ffffffff ffffffff ffffffff ffffffff     ................
   c2fe0:	ffffffff ffffffff ffffffff ffffffff     ................
   c2ff0:	ffffffff ffffffff ffffffff ffffffff     ................
   c3000:	ffffffff ffffffff ffffffff ffffffff     ................
   c3010:	ffffffff ffffffff ffffffff ffffffff     ................
   c3020:	ffffffff ffffffff ffffffff ffffffff     ................
   c3030:	ffffffff ffffffff ffffffff ffffffff     ................
   c3040:	ffffffff ffffffff ffffffff ffffffff     ................
   c3050:	ffffffff ffffffff ffffffff ffffffff     ................
   c3060:	ffffffff ffffffff ffffffff ffffffff     ................
   c3070:	ffffffff ffffffff ffffffff ffffffff     ................
   c3080:	ffffffff ffffffff ffffffff ffffffff     ................
   c3090:	ffffffff ffffffff ffffffff ffffffff     ................
   c30a0:	ffffffff ffffffff ffffffff ffffffff     ................
   c30b0:	ffffffff ffffffff ffffffff ffffffff     ................
   c30c0:	ffffffff ffffffff ffffffff ffffffff     ................
   c30d0:	ffffffff ffffffff ffffffff ffffffff     ................
   c30e0:	ffffffff ffffffff ffffffff ffffffff     ................
   c30f0:	ffffffff ffffffff ffffffff ffffffff     ................
   c3100:	ffffffff ffffffff ffffffff ffffffff     ................
   c3110:	ffffffff ffffffff ffffffff ffffffff     ................
   c3120:	ffffffff ffffffff ffffffff ffffffff     ................
   c3130:	ffffffff ffffffff ffffffff ffffffff     ................
   c3140:	ffffffff ffffffff ffffffff ffffffff     ................
   c3150:	ffffffff ffffffff ffffffff ffffffff     ................
   c3160:	ffffffff ffffffff ffffffff ffffffff     ................
   c3170:	ffffffff ffffffff ffffffff ffffffff     ................
   c3180:	ffffffff ffffffff ffffffff ffffffff     ................
   c3190:	ffffffff ffffffff ffffffff ffffffff     ................
   c31a0:	ffffffff ffffffff ffffffff ffffffff     ................
   c31b0:	ffffffff ffffffff ffffffff ffffffff     ................
   c31c0:	ffffffff ffffffff ffffffff ffffffff     ................
   c31d0:	ffffffff ffffffff ffffffff ffffffff     ................
   c31e0:	ffffffff ffffffff ffffffff ffffffff     ................
   c31f0:	ffffffff ffffffff ffffffff ffffffff     ................
   c3200:	ffffffff ffffffff ffffffff ffffffff     ................
   c3210:	ffffffff ffffffff ffffffff ffffffff     ................
   c3220:	ffffffff ffffffff ffffffff ffffffff     ................
   c3230:	ffffffff ffffffff ffffffff ffffffff     ................
   c3240:	ffffffff ffffffff ffffffff ffffffff     ................
   c3250:	ffffffff ffffffff ffffffff ffffffff     ................
   c3260:	ffffffff ffffffff ffffffff ffffffff     ................
   c3270:	ffffffff ffffffff ffffffff ffffffff     ................
   c3280:	ffffffff ffffffff ffffffff ffffffff     ................
   c3290:	ffffffff ffffffff ffffffff ffffffff     ................
   c32a0:	ffffffff ffffffff ffffffff ffffffff     ................
   c32b0:	ffffffff ffffffff ffffffff ffffffff     ................
   c32c0:	ffffffff ffffffff ffffffff ffffffff     ................
   c32d0:	ffffffff ffffffff ffffffff ffffffff     ................
   c32e0:	ffffffff ffffffff ffffffff ffffffff     ................
   c32f0:	ffffffff ffffffff ffffffff ffffffff     ................
   c3300:	ffffffff ffffffff ffffffff ffffffff     ................
   c3310:	ffffffff ffffffff ffffffff ffffffff     ................
   c3320:	ffffffff ffffffff ffffffff ffffffff     ................
   c3330:	ffffffff ffffffff ffffffff ffffffff     ................
   c3340:	ffffffff ffffffff ffffffff ffffffff     ................
   c3350:	ffffffff ffffffff ffffffff ffffffff     ................
   c3360:	ffffffff ffffffff ffffffff ffffffff     ................
   c3370:	ffffffff ffffffff ffffffff ffffffff     ................
   c3380:	ffffffff ffffffff ffffffff ffffffff     ................
   c3390:	ffffffff ffffffff ffffffff ffffffff     ................
   c33a0:	ffffffff ffffffff ffffffff ffffffff     ................
   c33b0:	ffffffff ffffffff ffffffff ffffffff     ................
   c33c0:	ffffffff ffffffff ffffffff ffffffff     ................
   c33d0:	ffffffff ffffffff ffffffff ffffffff     ................
   c33e0:	ffffffff ffffffff ffffffff ffffffff     ................
   c33f0:	ffffffff ffffffff ffffffff ffffffff     ................
   c3400:	ffffffff ffffffff ffffffff ffffffff     ................
   c3410:	ffffffff ffffffff ffffffff ffffffff     ................
   c3420:	ffffffff ffffffff ffffffff ffffffff     ................
   c3430:	ffffffff ffffffff ffffffff ffffffff     ................
   c3440:	ffffffff ffffffff ffffffff ffffffff     ................
   c3450:	ffffffff ffffffff ffffffff ffffffff     ................
   c3460:	ffffffff ffffffff ffffffff ffffffff     ................
   c3470:	ffffffff ffffffff ffffffff ffffffff     ................
   c3480:	ffffffff ffffffff ffffffff ffffffff     ................
   c3490:	ffffffff ffffffff ffffffff ffffffff     ................
   c34a0:	ffffffff ffffffff ffffffff ffffffff     ................
   c34b0:	ffffffff ffffffff ffffffff ffffffff     ................
   c34c0:	ffffffff ffffffff ffffffff ffffffff     ................
   c34d0:	ffffffff ffffffff ffffffff ffffffff     ................
   c34e0:	ffffffff ffffffff ffffffff ffffffff     ................
   c34f0:	ffffffff ffffffff ffffffff ffffffff     ................
   c3500:	ffffffff ffffffff ffffffff ffffffff     ................
   c3510:	ffffffff ffffffff ffffffff ffffffff     ................
   c3520:	ffffffff ffffffff ffffffff ffffffff     ................
   c3530:	ffffffff ffffffff ffffffff ffffffff     ................
   c3540:	ffffffff ffffffff ffffffff ffffffff     ................
   c3550:	ffffffff ffffffff ffffffff ffffffff     ................
   c3560:	ffffffff ffffffff ffffffff ffffffff     ................
   c3570:	ffffffff ffffffff ffffffff ffffffff     ................
   c3580:	ffffffff ffffffff ffffffff ffffffff     ................
   c3590:	ffffffff ffffffff ffffffff ffffffff     ................
   c35a0:	ffffffff ffffffff ffffffff ffffffff     ................
   c35b0:	ffffffff ffffffff ffffffff ffffffff     ................
   c35c0:	ffffffff ffffffff ffffffff ffffffff     ................
   c35d0:	ffffffff ffffffff ffffffff ffffffff     ................
   c35e0:	ffffffff ffffffff ffffffff ffffffff     ................
   c35f0:	ffffffff ffffffff ffffffff ffffffff     ................
   c3600:	ffffffff ffffffff ffffffff ffffffff     ................
   c3610:	ffffffff ffffffff ffffffff ffffffff     ................
   c3620:	ffffffff ffffffff ffffffff ffffffff     ................
   c3630:	ffffffff fffffdff ffffffff ffffffff     ................
   c3640:	ffffffff ffffffff ffffffff ffffffff     ................
   c3650:	ffffffff ffffffff ffffffff ffffffff     ................
   c3660:	ffffffff f0ffffff ffffffff ffffffff     ................
   c3670:	ffffffff ffffffff ffffffff ffffffff     ................
   c3680:	ffffffff ffffffff ffffffff ffffffff     ................
   c3690:	ffffffff ffffffff ff7fe0ff ffffffff     ................
   c36a0:	ffffffff ffffffff ffffffff ffffffff     ................
   c36b0:	ffffffff ffffffff ffffffff ffffffff     ................
   c36c0:	ffffffff ffffffff e0ffffff ffffff7f     ................
   c36d0:	ffffffff ffffffff ffffffff ffffffff     ................
   c36e0:	ffffffff ffffffff ffffffff ffffffff     ................
   c36f0:	ffffffff ffffffff ffffffff ff3fe0ff     ..............?.
   c3700:	ffffffff ffffffff ffffffff ffffffff     ................
   c3710:	ffffffff ffffffff ffffffff ffffffff     ................
   c3720:	ffffffff ffffffff ffffffff f0ffffff     ................
   c3730:	ffffff7f ffffffff ffffffff ffffffff     ................
   c3740:	ffffffff ffffffff ffffffff ffffffff     ................
   c3750:	ffffffff ffffffff ffffffff ffffffff     ................
   c3760:	ff7ff0ff ffffffff ffffffff ffffffff     ................
   c3770:	ffffffff ffffffff ffffffff ffffffff     ................
   c3780:	ffffffff ffffffff ffffffff ffffffff     ................
   c3790:	ffffffff ffffffff ffffffff ffffffff     ................
   c37a0:	ffffffff ffffffff ffffffff ffffffff     ................
   c37b0:	ffffffff ffffffff ffffffff ffffffff     ................
   c37c0:	ffffffff ffffffff ffffffff ffffffff     ................
   c37d0:	ffffffff ffffffff ffffffff ffffffff     ................
   c37e0:	ffffffff ffffffff ffffffff ffffffff     ................
   c37f0:	ffffffff ffffffff ffffffff ffffffff     ................
   c3800:	ffffffff ffffffff ffffffff ffffffff     ................
   c3810:	ffffffff ffffffff ffffffff ffffffff     ................
   c3820:	ffffffff ffffffff ffffffff ffffffff     ................
   c3830:	ffffffff ffffffff ffffffff ffffffff     ................
   c3840:	ffffffff ffffffff ffffffff ffffffff     ................
   c3850:	ffffffff ffffffff ffffffff ffffffff     ................
   c3860:	ffffffff ffffffff ffffffff ffffffff     ................
   c3870:	ffffffff ffffffff ffffffff ffffffff     ................
   c3880:	ffffffff ffffffff f8ffffff fffff803     ................
   c3890:	ffffffff ffffffff ffffffff ffffffff     ................
   c38a0:	ffffffff ffffffff ffffffff ffffffff     ................
   c38b0:	ffffffff ffffffff ffffffff f803c0ff     ................
   c38c0:	ffffff1f ffffffff ffffffff ffffffff     ................
   c38d0:	ffffffff ffffffff ffffffff ffffffff     ................
   c38e0:	ffffffff ffffffff ffffffff 00feffff     ................
   c38f0:	ff07f803 ffffffff ffffffff ffffffff     ................
   c3900:	ffffffff ffffffff ffffffff ffffffff     ................
   c3910:	ffffffff ffffffff ffffffff ffffffff     ................
   c3920:	f80300fe ffffff07 ffffffff ffffffff     ................
   c3930:	ffffffff ffffffff ffffffff ffffffff     ................
   c3940:	ffffffff ffffffff ffffffff ffffffff     ................
   c3950:	00fcffff ff03f807 ffffffff ffffffff     ................
   c3960:	ffffffff ffffffff ffffffff ffffffff     ................
   c3970:	ffffffff ffffffff ffffffff ffffffff     ................
   c3980:	ffffffff f80300fe ffffff03 ffffffff     ................
   c3990:	ffffffff ffffffff ffffffff ffffffff     ................
   c39a0:	ffffffff ffffffff ffffffff ffffffff     ................
   c39b0:	ffffffff 00feffff ff03f807 ffffffff     ................
   c39c0:	ffffffff ffffffff ffffffff ffffffff     ................
   c39d0:	ffffffff ffffffff ffffffff ffffffff     ................
   c39e0:	ffffffff ffffffff fc0700fc ffffff03     ................
   c39f0:	ffffffff ffffffff ffffffff ffffffff     ................
   c3a00:	ffffffff ffffffff ffffffff ffffffff     ................
   c3a10:	ffffffff ffffffff 00fcffff ff03fc0f     ................
   c3a20:	ffffffff ffffffff ffffffff ffffffff     ................
   c3a30:	ffffffff ffffffff ffffffff ffffffff     ................
   c3a40:	ffffffff ffffffff ffffffff fe0f00fe     ................
   c3a50:	ffffff03 ffffffff ffffffff ffffffff     ................
   c3a60:	ffffffff ffffffff ffffffff ffffffff     ................
   c3a70:	ffffffff ffffffff ffffffff 03feffff     ................
   c3a80:	ff07fe0f ffffffff ffffffff ffffffff     ................
   c3a90:	ffffffff ffffffff ffffffff ffffffff     ................
   c3aa0:	ffffffff ffffffff ffffffff ffffffff     ................
   c3ab0:	ffdfdfff ffffff8f ffffffff ffffffff     ................
   c3ac0:	ffffffff ffffffff ffffffff ffffffff     ................
   c3ad0:	ffffffff ffffffff ffffffff ffffffff     ................
   c3ae0:	ffffffff ffffffff ffffffff ffffffff     ................
   c3af0:	ffffffff ffffffff ffffffff ffffffff     ................
   c3b00:	ffffffff ffffffff ffffffff ffffffff     ................
   c3b10:	ffffffff ffffffff ffffffff ffffffff     ................
   c3b20:	ffffffff ffffffff ffffffff ffffffff     ................
   c3b30:	ffffffff ffffffff ffffffff ffffffff     ................
   c3b40:	ffffffff ffffffff ffffffff ffffffff     ................
   c3b50:	ffffffff ffffffff ffffffff ffffffff     ................
   c3b60:	ffffffff ffffffff ffffffff ffffffff     ................
   c3b70:	ffffffff ffffffff ffffffff ffffffff     ................
   c3b80:	ffffffff ffffffff ffffffff ffffffff     ................
   c3b90:	ffffffff ffffffff ffffffff ffffffff     ................
   c3ba0:	ffffffff ffffffff ffffffff ffffffff     ................
   c3bb0:	ffffffff ffffffff ffffffff ffffffff     ................
   c3bc0:	ffffffff ffffffff ffffffff ffffffff     ................
   c3bd0:	ffffffff ffffffff ffffffff ffffffff     ................
   c3be0:	ffffffff ffffffff ffffffff ffffffff     ................
   c3bf0:	ffffffff ffffffff ffffffff ffffffff     ................
   c3c00:	ffffffff ffffffff ffffffff ffffffff     ................
   c3c10:	ffffffff ffffffff ffffffff ffffffff     ................
   c3c20:	ffffffff ffffffff ffffffff ffffffff     ................
   c3c30:	ffffffff ffffffff ffffffff ffffffff     ................
   c3c40:	ffffffff ffffffff ffffffff ffffffff     ................
   c3c50:	ffffffff ffffffff ffffffff ffffffff     ................
   c3c60:	ffffffff ffffffff ffffffff ffffffff     ................
   c3c70:	ffffffff ffffffff ffffffff ffffffff     ................
   c3c80:	ffffffff ffffffff ffffffff ffffffff     ................
   c3c90:	ffffffff ffffffff ffffffff ffffffff     ................
   c3ca0:	ffffffff ffffffff ffffffff ffffffff     ................
   c3cb0:	ffffffff ffffffff ffffffff ffffffff     ................
   c3cc0:	ffffffff ffffffff ffffffff ffffffff     ................
   c3cd0:	ffffffff ffffffff ffffffff ffffffff     ................
   c3ce0:	ffffffff ffffffff ffffffff ffffffff     ................
   c3cf0:	ffffffff ffffffff ffffffff ffffffff     ................
   c3d00:	ffffffff ffffffff ffffffff ffffffff     ................
   c3d10:	ffffffff ffffffff ffffffff ffffffff     ................
   c3d20:	ffffffff ffffffff ffffffff ffffffff     ................
   c3d30:	ffffffff ffffffff ffffffff ffffffff     ................
   c3d40:	ffffffff ffffffff ffffffff ffffffff     ................
   c3d50:	ffffffff ffffffff ffffffff ffffffff     ................
   c3d60:	ffffffff ffffffff ffffffff ffffffff     ................
   c3d70:	ffffffff ffffffff ffffffff ffffffff     ................
   c3d80:	ffffffff ffffffff ffffffff ffffffff     ................
   c3d90:	ffffffff ffffffff ffffffff ffffffff     ................
   c3da0:	ffffffff ffffffff ffffffff ffffffff     ................
   c3db0:	ffffffff ffffffff ffffffff ffffffff     ................
   c3dc0:	ffffffff ffffffff ffffffff ffffffff     ................
   c3dd0:	ffffffff ffffffff ffffffff ffffffff     ................
   c3de0:	ffffffff ffffffff ffffffff ffffffff     ................
   c3df0:	ffffffff ffffffff ffffffff ffffffff     ................
   c3e00:	ffffffff ffffffff ffffffff ffffffff     ................
   c3e10:	ffffffff ffffffff ffffffff ffffffff     ................
   c3e20:	ffffffff ffffffff ffffffff ffffffff     ................
   c3e30:	ffffffff ffffffff ffffffff ffffffff     ................
   c3e40:	ffffffff ffffffff ffffffff ffffffff     ................
   c3e50:	ffffffff ffffffff ffffffff ffffffff     ................
   c3e60:	ffffffff ffffffff ffffffff ffffffff     ................
   c3e70:	ffffffff ffffffff ffffffff ffffffff     ................
   c3e80:	ffffffff ffffffff ffffffff ffffffff     ................
   c3e90:	ffffffff ffffffff ffffffff ffffffff     ................
   c3ea0:	ffffffff ffffffff ffffffff ffffffff     ................
   c3eb0:	ffffffff ffffffff ffffffff ffffffff     ................
   c3ec0:	ffffffff ffffffff ffffffff ffffffff     ................
   c3ed0:	ffffffff ffffffff ffffffff ffffffff     ................
   c3ee0:	ffffffff ffffffff ffffffff ffffffff     ................
   c3ef0:	ffffffff ffffffff ffffffff ffffffff     ................
   c3f00:	ffffffff ffffffff ffffffff ffffffff     ................
   c3f10:	ffffffff ffffffff ffffffff ffffffff     ................
   c3f20:	ffffffff ffffffff ffffffff ffffffff     ................
   c3f30:	ffffffff ffffffff ffffffff ffffffff     ................
   c3f40:	ffffffff ffffffff ffffffff ffffffff     ................
   c3f50:	ffffffff ffffffff ffffffff ffffffff     ................
   c3f60:	ffffffff ffffffff ffffffff ffffffff     ................
   c3f70:	ffffffff ffffffff ffffffff ffffffff     ................
   c3f80:	ffffffff ffffffff ffffffff ffffffff     ................
   c3f90:	ffffffff ffffffff ffffffff ffffffff     ................
   c3fa0:	ffffffff ffffffff ffffffff ffffffff     ................
   c3fb0:	ffffffff ffffffff ffffffff ffffffff     ................
   c3fc0:	ffffffff ffffffff ffffffff ffffffff     ................
   c3fd0:	ffffffff ffffffff ffffffff ffffffff     ................
   c3fe0:	ffffffff ffffffff ffffffff ffffffff     ................
   c3ff0:	ffffffff ffffffff ffffffff ffffffff     ................
   c4000:	ffffffff ffffffff ffffffff ffffffff     ................
   c4010:	ffffffff ffffffff ffffffff ffffffff     ................
   c4020:	ffffffff ffffffff ffffffff ffffffff     ................
   c4030:	ffffffff ffffffff ffffffff ffffffff     ................
   c4040:	ffffffff ffffffff ffffffff ffffffff     ................
   c4050:	ffffffff ffffffff ffffffff ffffffff     ................
   c4060:	ffffffff ffffffff ffffffff ffffffff     ................
   c4070:	ffffffff ffffffff ffffffff ffffffff     ................
   c4080:	ffffffff ffffffff ffffffff ffffffff     ................
   c4090:	ffffffff ffffffff ffffffff ffffffff     ................
   c40a0:	ffffffff ffffffff ffffffff ffffffff     ................
   c40b0:	ffffffff ffffffff ffffffff ffffffff     ................
   c40c0:	ffffffff ffffffff ffffffff ffffffff     ................
   c40d0:	ffffffff ffffffff ffffffff ffffffff     ................
   c40e0:	ffffffff ffffffff ffffffff ffffffff     ................
   c40f0:	ffffffff ffffffff ffffffff ffffffff     ................
   c4100:	ffffffff ffffffff ffffffff ffffffff     ................
   c4110:	ffffffff ffffffff ffffffff ffffffff     ................
   c4120:	ffffffff ffffffff ffffffff ffffffff     ................
   c4130:	ffffffff ffffffff ffffffff ffffffff     ................
   c4140:	ffffffff ffffffff ffffffff ffffffff     ................
   c4150:	ffffffff ffffffff ffffffff ffffffff     ................
   c4160:	ffffffff ffffffff ffffffff ffffffff     ................
   c4170:	ffffffff ffffffff ffffffff ffffffff     ................
   c4180:	ffffffff ffffffff ffffffff ffffffff     ................
   c4190:	ffffffff ffffffff ffffffff ffffffff     ................
   c41a0:	ffffffff ffffffff ffffffff ffffffff     ................
   c41b0:	ffffffff ffffffff ffffffff ffffffff     ................
   c41c0:	ffffffff ffffffff ffffffff ffffffff     ................
   c41d0:	ffffffff ffffffff ffffffff ffffffff     ................
   c41e0:	ffffffff ffffffff ffffffff ffffffff     ................
   c41f0:	ffffffff ffffffff ffffffff ffffffff     ................
   c4200:	ffffffff ffffffff ffffffff ffffffff     ................
   c4210:	ffffffff ffffffff ffffffff ffffffff     ................
   c4220:	ffffffff ffffffff ffffffff ffffffff     ................
   c4230:	ffffffff ffffffff ffffffff ffffffff     ................
   c4240:	ffffffff ffffffff ffffffff ffffffff     ................
   c4250:	ffffffff ffffffff ffffffff ffffffff     ................
   c4260:	ffffffff ffffffff ffffffff ffffffff     ................
   c4270:	ffffffff ffffffff ffffffff ffffffff     ................
   c4280:	ffffffff ffffffff ffffffff ffffffff     ................
   c4290:	ffffffff ffffffff ffffffff ffffffff     ................
   c42a0:	ffffffff ffffffff ffffffff ffffffff     ................
   c42b0:	ffffffff ffffffff ffffffff ffffffff     ................
   c42c0:	ffffffff ffffffff ffffffff ffffffff     ................
   c42d0:	ffffffff ffffffff ffffffff ffffffff     ................
   c42e0:	ffffffff ffffffff ffffffff ffffffff     ................
   c42f0:	ffffffff ffffffff ffffffff ffffffff     ................
   c4300:	ffffffff ffffffff ffffffff ffffffff     ................
   c4310:	ffffffff ffffffff ffffffff ffffffff     ................
   c4320:	ffffffff ffffffff ffffffff ffffffff     ................
   c4330:	ffffffff ffffffff ffffffff ffffffff     ................
   c4340:	ffffffff ffffffff ffffffff ffffffff     ................
   c4350:	ffffffff ffffffff ffffffff ffffffff     ................
   c4360:	ffffffff ffffffff ffffffff ffffffff     ................
   c4370:	ffffffff ffffffff ffffffff ffffffff     ................
   c4380:	ffffffff ffffffff ffffffff ffffffff     ................
   c4390:	ffffffff ffffffff ffffffff ffffffff     ................
   c43a0:	ffffffff ffffffff ffffffff ffffffff     ................
   c43b0:	ffffffff ffffffff ffffffff ffffffff     ................
   c43c0:	ffffffff ffffffff ffffffff ffffffff     ................
   c43d0:	ffffffff ffffffff ffffffff ffffffff     ................
   c43e0:	ffffffff ffffffff ffffffff ffffffff     ................
   c43f0:	ffffffff ffffffff ffffffff ffffffff     ................
   c4400:	ffffffff ffffffff ffffffff ffffffff     ................
   c4410:	ffffffff ffffffff ffffffff ffffffff     ................
   c4420:	ffffffff ffffffff ffffffff ffffffff     ................
   c4430:	ffffffff ffffffff ffffffff ffffffff     ................
   c4440:	ffffffff ffffffff ffffffff ffffffff     ................
   c4450:	ffffffff ffffffff ffffffff ffffffff     ................
   c4460:	ffffffff ffffffff ffffffff ffffffff     ................
   c4470:	ffffffff ffffffff ffffffff ffffffff     ................
   c4480:	ffffffff ffffffff ffffffff ffffffff     ................
   c4490:	ffffffff ffffffff ffffffff ffffffff     ................
   c44a0:	ffffffff ffffffff ffffffff ffffffff     ................
   c44b0:	ffffffff ffffffff ffffffff ffffffff     ................
   c44c0:	ffffffff ffffffff ffffffff ffffffff     ................
   c44d0:	ffffffff ffffffff ffffffff ffffffff     ................
   c44e0:	ffffffff ffffffff ffffffff ffffffff     ................
   c44f0:	ffffffff ffffffff ffffffff ffffffff     ................
   c4500:	ffffffff ffffffff ffffffff ffffffff     ................
   c4510:	ffffffff ffffffff ffffffff ffffffff     ................
   c4520:	ffffffff ffffffff ffffffff ffffffff     ................
   c4530:	ffffffff ffffffff ffffffff ffffffff     ................
   c4540:	ffffffff ffffffff ffffffff ffffffff     ................
   c4550:	ffffffff ffffffff ffffffff ffffffff     ................
   c4560:	ffffffff ffffffff ffffffff ffffffff     ................
   c4570:	ffffffff ffffffff ffffffff ffffffff     ................
   c4580:	ffffffff ffffffff ffffffff ffffffff     ................
   c4590:	ffffffff ffffffff ffffffff ffffffff     ................
   c45a0:	ffffffff ffffffff ffffffff ffffffff     ................
   c45b0:	ffffffff ffffffff ffffffff ffffffff     ................
   c45c0:	ffffffff ffffffff ffffffff ffffffff     ................
   c45d0:	ffffffff ffffffff ffffffff ffffffff     ................
   c45e0:	ffffffff ffffffff ffffffff ffffffff     ................
   c45f0:	ffffffff ffffffff ffffffff ffffffff     ................
   c4600:	ffffffff ffffffff ffffffff ffffffff     ................
   c4610:	ffffffff ffffffff ffffffff ffffffff     ................
   c4620:	ffffffff ffffffff ffffffff ffffffff     ................
   c4630:	ffffffff ffffffff ffffffff ffffffff     ................
   c4640:	ffffffff ffffffff ffffffff ffffffff     ................
   c4650:	ffffffff ffffffff ffffffff ffffffff     ................
   c4660:	ffffffff ffffffff ffffffff ffffffff     ................
   c4670:	ffffffff ffffffff ffffffff ffffffff     ................
   c4680:	ffffffff ffffffff ffffffff ffffffff     ................
   c4690:	ffffffff ffffffff ffffffff ffffffff     ................
   c46a0:	ffffffff ffffffff ffffffff ffffffff     ................
   c46b0:	ffffffff ffffffff ffffffff ffffffff     ................
   c46c0:	ffffffff ffffffff ffffffff ffffffff     ................
   c46d0:	ffffffff ffffffff ffffffff ffffffff     ................
   c46e0:	ffffffff ffffffff ffffffff ffffffff     ................
   c46f0:	ffffffff ffffffff ffffffff ffffffff     ................
   c4700:	ffffffff ffffffff ffffffff ffffffff     ................
   c4710:	ffffffff ffffffff ffffffff ffffffff     ................
   c4720:	ffffffff ffffffff ffffffff ffffffff     ................
   c4730:	ffffffff ffffffff                       ........

000c4738 <_ZL21Bitmap3c400x300_2_red>:
   c4738:	ffffffff ffffffff ffffffff ffffffff     ................
   c4748:	ffffffff ffffffff ffffffff ffffffff     ................
   c4758:	ffffffff ffffffff ffffffff ffffffff     ................
   c4768:	ffffffff ffffffff ffffffff ffffffff     ................
   c4778:	ffffffff ffffffff ffffffff ffffffff     ................
   c4788:	ffffffff ffffffff ffffffff ffffffff     ................
   c4798:	ffffffff ffffffff ffffffff ffffffff     ................
   c47a8:	ffffffff ffffffff ffffffff ffffffff     ................
   c47b8:	ffffffff ffffffff ffffffff ffffffff     ................
   c47c8:	ffffffff ffffffff ffffffff ffffffff     ................
   c47d8:	ffffffff ffffffff ffffffff ffffffff     ................
   c47e8:	ffffffff ffffffff ffffffff ffffffff     ................
   c47f8:	ffffffff ffffffff ffffffff ffffffff     ................
   c4808:	ffffffff ffffffff ffffffff ffffffff     ................
   c4818:	ffffffff ffffffff ffffffff ffffffff     ................
   c4828:	ffffffff ffffffff ffffffff ffffffff     ................
   c4838:	ffffffff ffffffff ffffffff ffffffff     ................
   c4848:	ffffffff ffffffff ffffffff ffffffff     ................
   c4858:	ffffffff ffffffff ffffffff ffffffff     ................
   c4868:	ffffffff ffffffff ffffffff ffffffff     ................
   c4878:	ffffffff ffffffff ffffffff ffffffff     ................
   c4888:	ffffffff ffffffff ffffffff ffffffff     ................
   c4898:	ffffffff ffffffff ffffffff ffffffff     ................
   c48a8:	ffffffff ffffffff ffffffff ffffffff     ................
   c48b8:	ffffffff ffffffff ffffffff ffffffff     ................
   c48c8:	ffffffff ffffffff ffffffff ffffffff     ................
   c48d8:	ffffffff ffffffff ffffffff ffffffff     ................
   c48e8:	ffffffff ffffffff ffffffff ffffffff     ................
   c48f8:	ffffffff ffffffff ffffffff ffffffff     ................
   c4908:	ffffffff ffffffff ffffffff ffffffff     ................
   c4918:	ffffffff ffffffff ffffffff ffffffff     ................
   c4928:	ffffffff ffffffff ffffffff ffffffff     ................
   c4938:	ffffffff ffffffff ffffffff ffffffff     ................
   c4948:	ffffffff ffffffff ffffffff ffffffff     ................
   c4958:	ffffffff ffffffff ffffffff ffffffff     ................
   c4968:	ffffffff ffffffff ffffffff ffffffff     ................
   c4978:	ffffffff ffffffff ffffffff ffffffff     ................
   c4988:	ffffffff ffffffff ffffffff ffffffff     ................
   c4998:	ffffffff ffffffff ffffffff ffffffff     ................
   c49a8:	ffffffff ffffffff ffffffff ffffffff     ................
   c49b8:	ffffffff ffffffff ffffffff ffffffff     ................
   c49c8:	ffffffff ffffffff ffffffff ffffffff     ................
   c49d8:	ffffffff ffffffff ffffffff ffffffff     ................
   c49e8:	ffffffff ffffffff ffffffff ffffffff     ................
   c49f8:	ffffffff ffffffff ffffffff ffffffff     ................
   c4a08:	ffffffff ffffffff ffffffff ffffffff     ................
   c4a18:	ffffffff ffffffff ffffffff ffffffff     ................
   c4a28:	ffffffff ffffffff ffffffff ffffffff     ................
   c4a38:	ffffffff ffffffff ffffffff ffffffff     ................
   c4a48:	ffffffff ffffffff ffffffff ffffffff     ................
   c4a58:	ffffffff ffffffff ffffffff ffffffff     ................
   c4a68:	ffffffff ffffffff ffffffff ffffffff     ................
   c4a78:	ffffffff ffffffff ffffffff ffffffff     ................
   c4a88:	ffffffff ffffffff ffffffff ffffffff     ................
   c4a98:	ffffffff ffffffff ffffffff ffffffff     ................
   c4aa8:	ffffffff ffffffff ffffffff ffffffff     ................
   c4ab8:	ffffffff ffffffff ffffffff 00fcffff     ................
   c4ac8:	ffffff1f ffffffff ffffffff ffffffff     ................
   c4ad8:	ffffffff ffffffff ffffffff ffffffff     ................
   c4ae8:	ffffffff ffffffff e0ffffff ffff3f00     .............?..
   c4af8:	ff0300f0 ffffffff ffffffff ffffffff     ................
   c4b08:	ffffffff ffffffff ffffffff ffffffff     ................
   c4b18:	ffffffff ffffffff ffffffff 3f00c0ff     ...............?
   c4b28:	00c0ffff ffffff01 ffffffff ffffffff     ................
   c4b38:	ffffffff ffffffff ffffffff ffffffff     ................
   c4b48:	ffffffff ffffffff ffffffff c0ffffff     ................
   c4b58:	ffff3f00 7f000000 ffffffff ffffffff     .?..............
   c4b68:	ffffffff ffffffff ffffffff ffffffff     ................
   c4b78:	ffffffff ffffffff ffffffff ffffffff     ................
   c4b88:	3f0080ff 0000feff ffff3f00 ffffffff     ...?.....?......
   c4b98:	ffffffff ffffffff ffffffff ffffffff     ................
   c4ba8:	ffffffff ffffffff ffffffff ffffffff     ................
   c4bb8:	80ffffff fcff3f00 1f000000 ffffffff     .....?..........
   c4bc8:	ffffffff ffffffff ffffffff ffffffff     ................
   c4bd8:	ffffffff ffffffff ffffffff ffffffff     ................
   c4be8:	ffffffff 3f0000ff 0000f8ff ffff0f00     .......?........
   c4bf8:	ffffffff ff07feff ffffffff ffffffff     ................
   c4c08:	ffffffff ffffffff ffffffff ffffffff     ................
   c4c18:	ffffffff 00feffff f0ff3f00 07000000     .........?......
   c4c28:	c0ffffff fcffff1f ffffff07 ffffffff     ................
   c4c38:	ffffffff ffffffff ffffffff ffffffff     ................
   c4c48:	ffffffff ffffffff 3f0000fe 0000f0ff     ...........?....
   c4c58:	ffff0300 ff0700fe ff07fcff ffffffff     ................
   c4c68:	ffffffff ffffffff ffffffff ffffffff     ................
   c4c78:	ffffffff ffffffff 00fcffff e0ff3f00     .............?..
   c4c88:	03000000 00fcffff f8ffff01 ffffff0f     ................
   c4c98:	ffffffff ffffffff ffffffff ffffffff     ................
   c4ca8:	ffffffff ffffffff ffffffff 3f0000fc     ...............?
   c4cb8:	7f00c0ff ffff0100 ff0000f8 ff0ff8ff     ................
   c4cc8:	ffffffff ffffffff ffffffff ffffffff     ................
   c4cd8:	ffffffff ffffffff ffffffff 00f8ffff     ................
   c4ce8:	c0ff3f00 0180ff00 00f0ffff f0ff7f00     .?..............
   c4cf8:	ffffff1f ffffffff ffffffff ffffffff     ................
   c4d08:	ffffffff ffffffff ffffffff ffffffff     ................
   c4d18:	3f0000f0 ff0180ff ffff00c0 3f0000e0     ...?...........?
   c4d28:	ff3fe0ff ffffffff ffffffff ffffffff     ..?.............
   c4d38:	ffffffff ffffffff ffffffff ffffffff     ................
   c4d48:	00f0ffff 80ff3f00 00e0ff03 00c0ffff     .....?..........
   c4d58:	e0ff1f00 ffffff3f ffffffff ffffffff     ....?...........
   c4d68:	ffffffff ffffffff ffffffff ffffffff     ................
   c4d78:	ffffffff 3f0004e0 ff0780ff ff7f00f0     .......?........
   c4d88:	0f000080 ff7fc0ff ffffffff ffffffff     ................
   c4d98:	ffffffff ffffffff ffffffff ffffffff     ................
   c4da8:	ffffffff 0ce0ffff 00ff3f00 00f0ff07     .........?......
   c4db8:	1f80ff7f c0ff0f80 ffffff7f ffffffff     ................
   c4dc8:	ffffffff ffffffff ffffffff ffffffff     ................
   c4dd8:	ffffffff ffffffff 3f001cc0 ff0700ff     ...........?....
   c4de8:	ff7f00f8 07e03f00 ffff80ff ffffffff     .....?..........
   c4df8:	ffffffff ffffffff ffffffff ffffffff     ................
   c4e08:	ffffffff ffffffff 1c80ffff 00ff3f00     .............?..
   c4e18:	00f8ff0f 7f00ff7f 00ff07f0 ffffffff     ................
   c4e28:	ffffffff ffffffff ffffffff ffffffff     ................
   c4e38:	ffffffff ffffffff ffffffff 3f003c80     .............<.?
   c4e48:	ff0f00ff ff7f00f8 07f0ff00 ffff01ff     ................
   c4e58:	ffffffff ffffffff ffffffff ffffffff     ................
   c4e68:	ffffffff ffffffff ffffffff 3c00ffff     ...............<
   c4e78:	00ff3f00 00f8ff0f ff00ff3f 01fe07f8     .?......?.......
   c4e88:	ffffffff ffffffff ffffffff ffffffff     ................
   c4e98:	ffffffff ffffffff ffffffff ffffffff     ................
   c4ea8:	3f007c00 ff0f00fe ff3f00f8 07f8ff01     .|.?......?.....
   c4eb8:	ffff03fe ffffffff ffffffff ffffffff     ................
   c4ec8:	ffffffff ffffffff ffffffff ffffffff     ................
   c4ed8:	fc00feff 00fe3f00 00f8ff0f ff01ff3f     .....?......?...
   c4ee8:	07fc07f8 ffffffff ffffffff ffffffff     ................
   c4ef8:	ffffffff ffffffff ffffffff ffffffff     ................
   c4f08:	fcffffff 3f00fc00 ff0f00fe ff3f00fc     .......?......?.
   c4f18:	07f8ff01 ffff07fc ffffffff ffffffff     ................
   c4f28:	ffffffff ffffffff ffffffff ffffffff     ................
   c4f38:	ffffffff fc01fcff 00fe3f00 00fcff0f     .........?......
   c4f48:	ff00ff3f 0ff807f8 ffffffff ffffffff     ?...............
   c4f58:	ffffffff ffffffff ffffffff ffffffff     ................
   c4f68:	ffffffff f8ffffff 3f00fc03 ff0f00fe     ...........?....
   c4f78:	ff3f00fc 07f0ff00 ffff0ff8 ffffffff     ..?.............
   c4f88:	ffffffff ffffffff ffffffff ffffffff     ................
   c4f98:	ffffffff ffffffff fc03f8ff 00fe3f00     .............?..
   c4fa8:	00fcff0f 7f00ff3f 1ff007f0 ffffffff     ....?...........
   c4fb8:	ffffffff ffffffff ffffffff ffffffff     ................
   c4fc8:	ffffffff ffffffff f0ffffff 3f00fc07     ...............?
   c4fd8:	ff1f00fe ff3f00fc 07e03f00 ffff1fe0     ......?..?......
   c4fe8:	ffffffff ffffffff ffffffff ffffffff     ................
   c4ff8:	ffffffff ffffffff ffffffff fc07e0ff     ................
   c5008:	00fe3f00 00fcff1f 1f80ff1f 3fe00fc0     .?.............?
   c5018:	ffffffff ffffffff ffffffff ffffffff     ................
   c5028:	ffffffff ffffffff ffffffff e0ffffff     ................
   c5038:	3f00fc0f ff1f00fe ff1f00fc 0f000080     ...?............
   c5048:	ffff7fc0 ffffffff ffffffff ffffffff     ................
   c5058:	ffffffff ffffffff ffffffff ffffffff     ................
   c5068:	fc1fc0ff 00fe3f00 00fcff1f 00c0ff1f     .....?..........
   c5078:	7fc01f00 ffffffff ffffffff ffffffff     ................
   c5088:	ffffffff ffffffff ffffffff ffffffff     ................
   c5098:	c0ffffff 3f00fc1f ff1f00fe ff1f00fc     .......?........
   c50a8:	3f0000e0 ffffff80 ffffffff ffffffff     ...?............
   c50b8:	ffffffff ffffffff ffffffff ffffffff     ................
   c50c8:	ffffffff fc3f80ff 00fe3f00 00fcff1f     ......?..?......
   c50d8:	00e0ff1f ff807f00 ffffffff ffffffff     ................
   c50e8:	ffffffff ffffffff ffffffff ffffffff     ................
   c50f8:	ffffffff 00ffffff 3f00fc3f ff1f00fe     ........?..?....
   c5108:	ff1f00fc ff0000f8 ffffff01 ffffffff     ................
   c5118:	ffffffff ffffffff ffffffff ffffffff     ................
   c5128:	ffffffff ffffffff fc7f00ff 00fe3f00     .............?..
   c5138:	00fcff1f 00fcff1f ff01ff01 ffffffff     ................
   c5148:	ffffffff ffffffff ffffffff ffffffff     ................
   c5158:	ffffffff ffffffff 00feffff 3f00fcff     ...............?
   c5168:	ff1f00fe ff1f00fc fe0700fe ffffff03     ................
   c5178:	ffffffff ffffffff ffffffff ffffffff     ................
   c5188:	ffffffff ffffffff ffffffff fcff00fe     ................
   c5198:	00fe3f00 00fcff1f c0ffff1f ff03fc1f     .?..............
   c51a8:	ffff7f80 ffffffff ffffffff ffffffff     ................
   c51b8:	ffffffff ffffffff ffffffff 01fcffff     ................
   c51c8:	3f00fcff ff1f00fe ff1f00fc fcffffff     ...?............
   c51d8:	1f00fc07 ffffffff ffffffff ffffffff     ................
   c51e8:	ffffffff ffffffff ffffffff ffffffff     ................
   c51f8:	fcff01f8 00fe3f00 00fcff1f ffffff1f     .....?..........
   c5208:	f00ff8ff ffff0700 ffffffff ffffffff     ................
   c5218:	ffffffff ffffffff ffffffff ffffffff     ................
   c5228:	03f8ffff 3f00fcff ff1f00fe ff1f00fc     .......?........
   c5238:	f8ffffff 0300e00f ffffffff ffffffff     ................
   c5248:	ffffffff ffffffff ffffffff ffffffff     ................
   c5258:	ffffffff fcff07f0 00fe3f00 00fcff1f     .........?......
   c5268:	ffffff3f c01ff0ff ffff0000 ffffffff     ?...............
   c5278:	ffffffff ffffffff ffffffff ffffffff     ................
   c5288:	ffffffff 00f0ffff 00000000 ff0f007e     ............~...
   c5298:	ff3f00fc f0ffffff 0000801f ffffffff     ..?.............
   c52a8:	ffffffff ffffffff ffffffff ffffffff     ................
   c52b8:	ffffffff ffffffff 000000f0 007e0000     ..............~.
   c52c8:	00fcff0f ffffff3f 003fe0ff ff7f0000     ....?.....?.....
   c52d8:	ffffffff ffffffff ffffffff ffffffff     ................
   c52e8:	ffffffff ffffffff 00f0ffff 00000000     ................
   c52f8:	ff0f007e ff3f00fc c0ffffff 0000003f     ~.....?.....?...
   c5308:	ffffff3f ffffffff ffffffff ffffffff     ?...............
   c5318:	ffffffff ffffffff ffffffff 000000f0     ................
   c5328:	007e0000 00fcff0f ffffff3f 007ec0ff     ..~.....?.....~.
   c5338:	ff3f003e ffffffff ffffffff ffffffff     >.?.............
   c5348:	ffffffff ffffffff ffffffff 00f0ffff     ................
   c5358:	00000000 ff0f007e ff3f00f8 80ffffff     ....~.....?.....
   c5368:	807f007e ffffff1f ffffffff ffffffff     ~...............
   c5378:	ffffffff ffffffff ffffffff ffffffff     ................
   c5388:	000000f0 007e0000 00f8ff0f ffffff3f     ......~.....?...
   c5398:	00fc80ff ff1fc0ff ffffffff ffffffff     ................
   c53a8:	ffffffff ffffffff ffffffff ffffffff     ................
   c53b8:	00f0ffff 00000000 ff0f007f ff3f00f8     ..............?.
   c53c8:	01ffffff e0ff01fc ffffff1f ffffffff     ................
   c53d8:	ffffffff ffffffff ffffffff ffffffff     ................
   c53e8:	ffffffff 000000f0 007f0000 00f8ff0f     ................
   c53f8:	ffffff3f 03fc01ff ff0fe0ff ffffffff     ?...............
   c5408:	ffffffff ffffffff ffffffff ffffffff     ................
   c5418:	ffffffff 00f0ffff 00000000 ff0f007f     ................
   c5428:	ff7f00f8 03feffff f0ff03fc ffffff0f     ................
   c5438:	ffffffff ffffffff ffffffff ffffffff     ................
   c5448:	ffffffff ffffffff 000000f0 007f0000     ................
   c5458:	00f8ff07 ffffff7f 03fc03fc ff0ff0ff     ................
   c5468:	ffffffff ffffffff ffffffff ffffffff     ................
   c5478:	ffffffff ffffffff 00f0ffff 00000000     ................
   c5488:	ff07007f ff7f00f0 07fcffff f0ff03fc     ................
   c5498:	ffffff0f ffffffff ffffffff ffffffff     ................
   c54a8:	ffffffff ffffffff ffffffff fcffffff     ................
   c54b8:	80ff3f00 00f0ff07 ffffff7f 03fc07f8     .?..............
   c54c8:	ff0fe0ff ffffffff ffffffff ffffffff     ................
   c54d8:	ffffffff ffffffff ffffffff ffffffff     ................
   c54e8:	3f00fcff ff0380ff ffff00e0 0ff8ffff     ...?............
   c54f8:	e0ff01fc ffffff0f ffffffff ffffffff     ................
   c5508:	ffffffff ffffffff ffffffff ffffffff     ................
   c5518:	fcffffff 80ff3f00 00c0ff01 ffffffff     .....?..........
   c5528:	01fc1ff0 ff1fc0ff ffffffff ffffffff     ................
   c5538:	ffffffff ffffffff ffffffff ffffffff     ................
   c5548:	ffffffff 3f00fcff ff00c0ff ffff0080     .......?........
   c5558:	1ff0ffff c0ff00fe ffffff1f ffffffff     ................
   c5568:	ffffffff ffffffff ffffffff ffffffff     ................
   c5578:	ffffffff fcffffff c0ff3f00 01003e00     .........?...>..
   c5588:	ffffffff 00fe3fe0 ff1f007f ffffffff     .....?..........
   c5598:	ffffffff ffffffff ffffffff ffffffff     ................
   c55a8:	ffffffff ffffffff 3f00fcff 0000e0ff     ...........?....
   c55b8:	ffff0100 3fe0ffff 000c00ff ffffff3f     .......?....?...
   c55c8:	ffffffff ffffffff ffffffff ffffffff     ................
   c55d8:	ffffffff ffffffff fcffffff e0ff3f00     .............?..
   c55e8:	03000000 ffffffff 00ff7fc0 ff7f0000     ................
   c55f8:	ffffffff ffffffff ffffffff ffffffff     ................
   c5608:	ffffffff ffffffff ffffffff 3f00fcff     ...............?
   c5618:	0000f0ff ffff0700 7f80ffff 000080ff     ................
   c5628:	ffffff7f ffffffff ffffffff ffffffff     ................
   c5638:	ffffffff ffffffff ffffffff fcffffff     ................
   c5648:	f8ff3f00 0f000000 ffffffff c0ffff80     .?..............
   c5658:	ffff0000 ffffffff ffffffff ffffffff     ................
   c5668:	ffffffff ffffffff ffffffff ffffffff     ................
   c5678:	3f00fcff 0000fcff ffff0f00 ff01ffff     ...?............
   c5688:	0100e0ff ffffffff ffffffff ffffffff     ................
   c5698:	ffffffff ffffffff ffffffff ffffffff     ................
   c56a8:	fcffffff feff3f00 1f000000 ffffffff     .....?..........
   c56b8:	f0ffff01 ffff0300 ffffffff ffffffff     ................
   c56c8:	ffffffff ffffffff ffffffff ffffffff     ................
   c56d8:	ffffffff 3f00fcff 0000ffff ffff7f00     .......?........
   c56e8:	ff03feff 0f00f8ff ffffffff ffffffff     ................
   c56f8:	ffffffff ffffffff ffffffff ffffffff     ................
   c5708:	ffffffff fcffffff ffff3f00 ff000080     .........?......
   c5718:	feffffff feffff03 ffff3f00 ffffffff     .........?......
   c5728:	ffffffff ffffffff ffffffff ffffffff     ................
   c5738:	ffffffff ffffffff 3f00fcff 00e0ffff     ...........?....
   c5748:	ffffff03 ff07feff ffffffff ffffffff     ................
   c5758:	ffffffff ffffffff ffffffff ffffffff     ................
   c5768:	ffffffff ffffffff ffffffff ffffffff     ................
   c5778:	ff0f00f8 ffffffff ffffffff ffffffff     ................
   c5788:	ffffffff ffffffff ffffffff ffffffff     ................
   c5798:	ffffffff ffffffff ffffffff ffffffff     ................
   c57a8:	c0ffffff ffffffff ffffffff ffffffff     ................
   c57b8:	ffffffff ffffffff ffffffff ffffffff     ................
   c57c8:	ffffffff ffffffff ffffffff ffffffff     ................
   c57d8:	ffffffff ffffffff ffffffff ffffffff     ................
   c57e8:	ffffffff ffffffff ffffffff ffffffff     ................
   c57f8:	ffffffff ffffffff ffffffff ffffffff     ................
   c5808:	ffffffff ffffffff ffffffff ffffffff     ................
   c5818:	ffffffff ffffffff ffffffff ffffffff     ................
   c5828:	ffffffff ffffffff ffffffff ffffffff     ................
   c5838:	ffffffff ffffffff ffffffff ffffffff     ................
   c5848:	ffffffff ffffffff ffffffff ffffffff     ................
   c5858:	ffffffff ffffffff ffffffff ffffffff     ................
   c5868:	ffffffff ffffffff ffffffff ffffffff     ................
   c5878:	ffffffff ffffffff ffffffff ffffffff     ................
   c5888:	ffffffff ffffffff ffffffff ffffffff     ................
   c5898:	ffffffff ffffffff ffffffff ffffffff     ................
   c58a8:	ffffffff ffffffff ffffffff ffffffff     ................
   c58b8:	ffffffff ffffffff ffffffff ffffffff     ................
   c58c8:	ffffffff ffffffff ffffffff ffffffff     ................
   c58d8:	ffffffff ffffffff ffffffff ffffffff     ................
   c58e8:	ffffffff ffffffff ffffffff ffffffff     ................
   c58f8:	ffffffff ffffffff ffffffff ffffffff     ................
   c5908:	ffffffff ffffffff ffffffff ffffffff     ................
   c5918:	ffffffff ffffffff ffffffff ffffffff     ................
   c5928:	ffffffff ffffffff ffffffff ffffffff     ................
   c5938:	ffffffff ffffffff ffffffff ffffffff     ................
   c5948:	ffffffff ffffffff ffffffff ffffffff     ................
   c5958:	ffffffff ffffffff ffffffff ffffffff     ................
   c5968:	ffffffff ffffffff ffffffff ffffffff     ................
   c5978:	ffffffff ffffffff ffffffff ffffffff     ................
   c5988:	ffffffff ffffffff ffffffff ffffffff     ................
   c5998:	ffffffff ffffffff ffffffff ffffffff     ................
   c59a8:	ffffffff ffffffff ffffffff ffffffff     ................
   c59b8:	ffffffff ffffffff ffffffff ffffffff     ................
   c59c8:	ffffffff ffffffff ffffffff ffffffff     ................
   c59d8:	ffffffff ffffffff ffffffff ffffffff     ................
   c59e8:	ffffffff ffffffff ffffffff ffffffff     ................
   c59f8:	ffffffff ffffffff ffffffff ffffffff     ................
   c5a08:	ffffffff ffffffff ffffffff ffffffff     ................
   c5a18:	ffffffff ffffffff ffffffff ffffffff     ................
   c5a28:	ffffffff ffffffff ffffffff ffffffff     ................
   c5a38:	ffffffff ffffffff ffffffff ffffffff     ................
   c5a48:	ffffffff ffffffff ffffffff ffffffff     ................
   c5a58:	ffffffff ffffffff ffffffff ffffffff     ................
   c5a68:	ffffffff ffffffff ffffffff ffffffff     ................
   c5a78:	ffffffff ffffffff ffffffff ffffffff     ................
   c5a88:	ffffffff ffffffff ffffffff ffffffff     ................
   c5a98:	ffffffff ffffffff ffffffff ffffffff     ................
   c5aa8:	ffffffff ffffffff ffffffff ffffffff     ................
   c5ab8:	ffffffff ffffffff ffffffff ffffffff     ................
   c5ac8:	ffffffff ffffffff ffffffff ffffffff     ................
   c5ad8:	ffffffff ffffffff ffffffff ffffffff     ................
   c5ae8:	ffffffff ffffffff ffffffff ffffffff     ................
   c5af8:	ffffffff ffffffff ffffffff ffffffff     ................
   c5b08:	ffffffff ffffffff ffffffff ffffffff     ................
   c5b18:	ffffffff ffffffff ffffffff ffffffff     ................
   c5b28:	ffffffff ffffffff ffffffff ffffffff     ................
   c5b38:	ffffffff ffffffff ffffffff ffffffff     ................
   c5b48:	ffffffff ffffffff ffffffff ffffffff     ................
   c5b58:	ffffffff ffffffff ffffffff ffffffff     ................
   c5b68:	ffffffff ffffffff ffffffff ffffffff     ................
   c5b78:	ffffffff ffffffff ffffffff ffffffff     ................
   c5b88:	ffffffff ffffffff ffffffff ffffffff     ................
   c5b98:	ffffffff ffffffff ffffffff ffffffff     ................
   c5ba8:	ffffffff ffffffff ffffffff ffffffff     ................
   c5bb8:	ffffffff ffffffff ffffffff ffffffff     ................
   c5bc8:	ffffffff ffffffff ffffffff ffffffff     ................
   c5bd8:	ffffffff ffffffff ffffffff ffffffff     ................
   c5be8:	ffffffff ffffffff ffffffff ffffffff     ................
   c5bf8:	ffffffff ffffffff ffffffff ffffffff     ................
   c5c08:	ffffffff ffffffff ffffffff ffffffff     ................
   c5c18:	ffffffff ffffffff ffffffff ffffffff     ................
   c5c28:	ffffffff ffffffff ffffffff ffffffff     ................
   c5c38:	ffffffff ffffffff ffffffff ffffffff     ................
   c5c48:	ffffffff ffffffff ffffffff ffffffff     ................
   c5c58:	ffffffff ffffffff ffffffff ffffffff     ................
   c5c68:	ffffffff ffffffff ffffffff ffffffff     ................
   c5c78:	ffffffff ffffffff ffffffff ffffffff     ................
   c5c88:	ffffffff ffffffff ffffffff ffffffff     ................
   c5c98:	ffffffff ffffffff ffffffff ffffffff     ................
   c5ca8:	ffffffff ffffffff ffffffff ffffffff     ................
   c5cb8:	ffffffff ffffffff ffffffff ffffffff     ................
   c5cc8:	ffffffff ffffffff ffffffff ffffffff     ................
   c5cd8:	ffffffff ffffffff ffffffff ffffffff     ................
   c5ce8:	ffffffff ffffffff ffffffff ffffffff     ................
   c5cf8:	ffffffff ffffffff ffffffff ffffffff     ................
   c5d08:	ffffffff ffffffff ffffffff ffffffff     ................
   c5d18:	ffffffff ffffffff ffffffff ffffffff     ................
   c5d28:	ffffffff ffffffff ffffffff ffffffff     ................
   c5d38:	ffffffff ffffffff ffffffff ffffffff     ................
   c5d48:	ffffffff ffffffff ffffffff ffffffff     ................
   c5d58:	ffffffff ffffffff ffffffff ffffffff     ................
   c5d68:	ffffffff ffffffff ffffffff ffffffff     ................
   c5d78:	ffffffff ffffffff ffffffff ffffffff     ................
   c5d88:	ffffffff ffffffff ffffffff ffffffff     ................
   c5d98:	ffffffff ffffffff ffffffff ffffffff     ................
   c5da8:	ffffffff ffffffff ffffffff ffffffff     ................
   c5db8:	ffffffff ffffffff ffffffff ffffffff     ................
   c5dc8:	ffffffff ffffffff ffffffff ffffffff     ................
   c5dd8:	ffffffff ffffffff ffffffff ffffffff     ................
   c5de8:	ffffffff ffffffff ffffffff ffffffff     ................
   c5df8:	ffffffff ffffffff ffffffff ffffffff     ................
   c5e08:	ffffffff ffffffff ffffffff ffffffff     ................
   c5e18:	ffffffff ffffffff ffffffff ffffffff     ................
   c5e28:	ffffffff ffffffff ffffffff ffffffff     ................
   c5e38:	ffffffff ffffffff ffffffff ffffffff     ................
   c5e48:	ffffffff ffffffff ffffffff ffffffff     ................
   c5e58:	ffffffff ffffffff ffffffff ffffffff     ................
   c5e68:	ffffffff ffffffff ffffffff ffffffff     ................
   c5e78:	ffffffff ffffffff ffffffff ffffffff     ................
   c5e88:	ffffffff ffffffff ffffffff ffffffff     ................
   c5e98:	ffffffff ffffffff ffffffff ffffffff     ................
   c5ea8:	ffffffff ffffffff ffffffff ffffffff     ................
   c5eb8:	ffffffff ffffffff ffffffff ffffffff     ................
   c5ec8:	ffffffff ffffffff ffffffff ffffffff     ................
   c5ed8:	ffffffff ffffffff ffffffff ffffffff     ................
   c5ee8:	ffffffff ffffffff ffffffff ffffffff     ................
   c5ef8:	ffffffff ffffffff ffffffff ffffffff     ................
   c5f08:	ffffffff ffffffff ffffffff ffffffff     ................
   c5f18:	ffffffff ffffffff ffffffff ffffffff     ................
   c5f28:	ffffffff ffffffff ffffffff ffffffff     ................
   c5f38:	ffffffff ffffffff ffffffff ffffffff     ................
   c5f48:	ffffffff ffffffff ffffffff ffffffff     ................
   c5f58:	ffffffff ffffffff ffffffff ffffffff     ................
   c5f68:	ffffffff ffffffff ffffffff ffffffff     ................
   c5f78:	ffffffff ffffffff ffffffff ffffffff     ................
   c5f88:	ffffffff ffffffff ffffffff ffffffff     ................
   c5f98:	ffffffff ffffffff ffffffff ffffffff     ................
   c5fa8:	ffffffff ffffffff ffffffff ffffffff     ................
   c5fb8:	ffffffff ffffffff ffffffff ffffffff     ................
   c5fc8:	ffffffff ffffffff ffffffff ffffffff     ................
   c5fd8:	ffffffff ffffffff ffffffff ffffffff     ................
   c5fe8:	ffffffff ffffffff ffffffff ffffffff     ................
   c5ff8:	ffffffff ffffffff ffffffff ffffffff     ................
   c6008:	ffffffff ffffffff ffffffff ffffffff     ................
   c6018:	ffffffff ffffffff ffffffff ffffffff     ................
   c6028:	ffffffff ffffffff ffffffff ffffffff     ................
   c6038:	ffffffff ffffffff ffffffff ffffffff     ................
   c6048:	ffffffff ffffffff ffffffff ffffffff     ................
   c6058:	ffffffff ffffffff ffffffff ffffffff     ................
   c6068:	ffffffff ffffffff ffffffff ffffffff     ................
   c6078:	ffffffff ffffffff ffffffff ffffffff     ................
   c6088:	ffffffff ffffffff ffffffff ffffffff     ................
   c6098:	ffffffff ffffffff ffffffff ffffffff     ................
   c60a8:	ffffffff ffffffff ffffffff ffffffff     ................
   c60b8:	ffffffff ffffffff ffffffff ffffffff     ................
   c60c8:	ffffffff ffffffff ffffffff ffffffff     ................
   c60d8:	ffffffff ffffffff ffffffff ffffffff     ................
   c60e8:	ffffffff ffffffff ffffffff ffffffff     ................
   c60f8:	ffffffff ffffffff ffffffff ffffffff     ................
   c6108:	ffffffff ffffffff ffffffff ffffffff     ................
   c6118:	ffffffff ffffffff ffffffff ffffffff     ................
   c6128:	ffffffff ffffffff ffffffff ffffffff     ................
   c6138:	ffffffff ffffffff ffffffff ffffffff     ................
   c6148:	ffffffff ffffffff ffffffff ffffffff     ................
   c6158:	ffffffff ffffffff ffffffff ffffffff     ................
   c6168:	ffffffff ffffffff ffffffff ffffffff     ................
   c6178:	ffffffff ffffffff ffffffff ffffffff     ................
   c6188:	ffffffff ffffffff ffffffff ffffffff     ................
   c6198:	ffffffff ffffffff ffffffff ffffffff     ................
   c61a8:	ffffffff ffffffff ffffffff ffffffff     ................
   c61b8:	ffffffff ffffffff ffffffff ffffffff     ................
   c61c8:	ffffffff ffffffff ffffffff ffffffff     ................
   c61d8:	ffffffff ffffffff ffffffff ffffffff     ................
   c61e8:	ffffffff ffffffff ffffffff ffffffff     ................
   c61f8:	ffffffff ffffffff ffffffff ffffffff     ................
   c6208:	ffffffff ffffffff ffffffff ffffffff     ................
   c6218:	ffffffff ffffffff ffffffff ffffffff     ................
   c6228:	ffffffff ffffffff ffffffff ffffffff     ................
   c6238:	ffffffff ffffffff ffffffff ffffffff     ................
   c6248:	ffffffff ffffffff ffffffff ffffffff     ................
   c6258:	ffffffff ffffffff ffffffff ffffffff     ................
   c6268:	ffffffff ffffffff ffffffff ffffffff     ................
   c6278:	ffffffff ffffffff ffffffff ffffffff     ................
   c6288:	ffffffff ffffffff ffffffff ffffffff     ................
   c6298:	ffffffff ffffffff ffffffff ffffffff     ................
   c62a8:	ffffffff ffffffff ffffffff ffffffff     ................
   c62b8:	ffffffff ffffffff ffffffff ffffffff     ................
   c62c8:	ffffffff ffffffff ffffffff ffffffff     ................
   c62d8:	ffffffff ffffffff ffffffff ffffffff     ................
   c62e8:	ffffffff ffffffff ffffffff ffffffff     ................
   c62f8:	ffffffff ffffffff ffffffff ffffffff     ................
   c6308:	ffffffff ffffffff ffffffff ffffffff     ................
   c6318:	ffffffff ffffffff ffffffff ffffffff     ................
   c6328:	ffffffff ffffffff ffffffff ffffffff     ................
   c6338:	ffffffff ffffffff ffffffff ffffffff     ................
   c6348:	ffffffff ffffffff ffffffff ffffffff     ................
   c6358:	ffffffff ffffffff ffffffff ffffffff     ................
   c6368:	ffffffff ffffffff ffffffff ffffffff     ................
   c6378:	ffffffff ffffffff ffffffff ffffffff     ................
   c6388:	ffffffff ffffffff ffffffff ffffffff     ................
   c6398:	ffffffff ffffffff ffffffff ffffffff     ................
   c63a8:	ffffffff ffffffff ffffffff ffffffff     ................
   c63b8:	ffffffff ffffffff ffffffff ffffffff     ................
   c63c8:	ffffffff ffffffff ffffffff ffffffff     ................
   c63d8:	ffffffff ffffffff ffffffff ffffffff     ................
   c63e8:	ffffffff ffffffff ffffffff ffffffff     ................
   c63f8:	ffffffff ffffffff ffffffff ffffffff     ................
   c6408:	ffffffff ffffffff ffffffff ffffffff     ................
   c6418:	ffffffff ffffffff ffffffff ffffffff     ................
   c6428:	ffffffff ffffffff ffffffff ffffffff     ................
   c6438:	ffffffff ffffffff ffffffff ffffffff     ................
   c6448:	ffffffff ffffffff ffffffff ffffffff     ................
   c6458:	ffffffff ffffffff ffffffff ffffffff     ................
   c6468:	ffffffff ffffffff ffffffff ffffffff     ................
   c6478:	ffffffff ffffffff ffffffff ffffffff     ................
   c6488:	ffffffff ffffffff ffffffff ffffffff     ................
   c6498:	ffffffff ffffffff ffffffff ffffffff     ................
   c64a8:	ffffffff ffffffff ffffffff ffffffff     ................
   c64b8:	ffffffff ffffffff ffffffff ffffffff     ................
   c64c8:	ffffffff ffffffff ffffffff ffffffff     ................
   c64d8:	ffffffff ffffffff ffffffff ffffffff     ................
   c64e8:	ffffffff ffffffff ffffffff ffffffff     ................
   c64f8:	ffffffff ffffffff ffffffff ffffffff     ................
   c6508:	ffffffff ffffffff ffffffff ffffffff     ................
   c6518:	ffffffff ffffffff ffffffff ffffffff     ................
   c6528:	ffffffff ffffffff ffffffff ffffffff     ................
   c6538:	ffffffff ffffffff ffffffff ffffffff     ................
   c6548:	ffffffff ffffffff ffffffff ffffffff     ................
   c6558:	ffffffff ffffffff ffffffff ffffffff     ................
   c6568:	ffffffff ffffffff ffffffff ffffffff     ................
   c6578:	ffffffff ffffffff ffffffff ffffffff     ................
   c6588:	ffffffff ffffffff ffffffff ffffffff     ................
   c6598:	ffffffff ffffffff ffffffff ffffffff     ................
   c65a8:	ffffffff ffffffff ffffffff ffffffff     ................
   c65b8:	ffffffff ffffffff ffffffff ffffffff     ................
   c65c8:	ffffffff ffffffff ffffffff ffffffff     ................
   c65d8:	ffffffff ffffffff ffffffff ffffffff     ................
   c65e8:	ffffffff ffffffff ffffffff ffffffff     ................
   c65f8:	ffffffff ffffffff ffffffff ffffffff     ................
   c6608:	ffffffff ffffffff ffffffff ffffffff     ................
   c6618:	ffffffff ffffffff ffffffff ffffffff     ................
   c6628:	ffffffff ffffffff ffffffff ffffffff     ................
   c6638:	ffffffff ffffffff ffffffff ffffffff     ................
   c6648:	ffffffff ffffffff ffffffff ffffffff     ................
   c6658:	ffffffff ffffffff ffffffff ffffffff     ................
   c6668:	ffffffff ffffffff ffffffff ffffffff     ................
   c6678:	ffffffff ffffffff ffffffff ffffffff     ................
   c6688:	ffffffff ffffffff ffffffff ffffffff     ................
   c6698:	ffffffff ffffffff ffffffff ffffffff     ................
   c66a8:	ffffffff ffffffff ffffffff ffffffff     ................
   c66b8:	ffffffff ffffffff ffffffff ffffffff     ................
   c66c8:	ffffffff ffffffff ffffffff ffffffff     ................
   c66d8:	ffffffff ffffffff ffffffff ffffffff     ................
   c66e8:	ffffffff ffffffff ffffffff ffffffff     ................
   c66f8:	ffffffff ffffffff ffffffff ffffffff     ................
   c6708:	ffffffff ffffffff ffffffff ffffffff     ................
   c6718:	ffffffff ffffffff ffffffff ffffffff     ................
   c6728:	ffffffff ffffffff ffffffff ffffffff     ................
   c6738:	ffffffff ffffffff ffffffff ffffffff     ................
   c6748:	ffffffff ffffffff ffffffff ffffffff     ................
   c6758:	ffffffff ffffffff ffffffff ffffffff     ................
   c6768:	ffffffff ffffffff ffffffff ffffffff     ................
   c6778:	ffffffff ffffffff ffffffff ffffffff     ................
   c6788:	ffffffff ffffffff ffffffff ffffffff     ................
   c6798:	ffffffff ffffffff ffffffff ffffffff     ................
   c67a8:	ffffffff ffffffff ffffffff ffffffff     ................
   c67b8:	ffffffff ffffffff ffffffff ffffffff     ................
   c67c8:	ffffffff ffffffff ffffffff ffffffff     ................
   c67d8:	ffffffff ffffffff ffffffff ffffffff     ................
   c67e8:	ffffffff ffffffff ffffffff ffffffff     ................
   c67f8:	ffffffff ffffffff ffffffff ffffffff     ................
   c6808:	ffffffff ffffffff ffffffff ffffffff     ................
   c6818:	ffffffff ffffffff ffffffff ffffffff     ................
   c6828:	ffffffff ffffffff ffffffff ffffffff     ................
   c6838:	ffffffff ffffffff ffffffff ffffffff     ................
   c6848:	ffffffff ffffffff ffffffff ffffffff     ................
   c6858:	ffffffff ffffffff ffffffff ffffffff     ................
   c6868:	ffffffff ffffffff ffffffff ffffffff     ................
   c6878:	ffffffff ffffffff ffffffff ffffffff     ................
   c6888:	ffffffff ffffffff ffffffff ffffffff     ................
   c6898:	ffffffff ffffffff ffffffff ffffffff     ................
   c68a8:	ffffffff ffffffff ffffffff ffffffff     ................
   c68b8:	ffffffff ffffffff ffffffff ffffffff     ................
   c68c8:	ffffffff ffffffff ffffffff ffffffff     ................
   c68d8:	ffffffff ffffffff ffffffff ffffffff     ................
   c68e8:	ffffffff ffffffff ffffffff ffffffff     ................
   c68f8:	ffffffff ffffffff ffffffff ffffffff     ................
   c6908:	ffffffff ffffffff ffffffff ffffffff     ................
   c6918:	ffffffff ffffffff ffffffff ffffffff     ................
   c6928:	ffffffff ffffffff ffffffff ffffffff     ................
   c6938:	ffffffff ffffffff ffffffff ffffffff     ................
   c6948:	ffffffff ffffffff ffffffff ffffffff     ................
   c6958:	ffffffff ffffffff ffffffff ffffffff     ................
   c6968:	ffffffff ffffffff ffffffff ffffffff     ................
   c6978:	ffffffff ffffffff ffffffff ffffffff     ................
   c6988:	ffffffff ffffffff ffffffff ffffffff     ................
   c6998:	ffffffff ffffffff ffffffff ffffffff     ................
   c69a8:	ffffffff ffffffff ffffffff ffffffff     ................
   c69b8:	ffffffff ffffffff ffffffff ffffffff     ................
   c69c8:	ffffffff ffffffff ffffffff ffffffff     ................
   c69d8:	ffffffff ffffffff ffffffff ffffffff     ................
   c69e8:	ffffffff ffffffff ffffffff ffffffff     ................
   c69f8:	ffffffff ffffffff ffffffff ffffffff     ................
   c6a08:	ffffffff ffffffff ffffffff ffffffff     ................
   c6a18:	ffffffff ffffffff ffffffff ffffffff     ................
   c6a28:	ffffffff ffffffff ffffffff ffffffff     ................
   c6a38:	ffffffff ffffffff ffffffff ffffffff     ................
   c6a48:	ffffffff ffffffff ffffffff ffffffff     ................
   c6a58:	ffffffff ffffffff ffffffff ffffffff     ................
   c6a68:	ffffffff ffffffff ffffffff ffffffff     ................
   c6a78:	ffffffff ffffffff ffffffff ffffffff     ................
   c6a88:	ffffffff ffffffff ffffffff ffffffff     ................
   c6a98:	ffffffff ffffffff ffffffff ffffffff     ................
   c6aa8:	ffffffff ffffffff ffffffff ffffffff     ................
   c6ab8:	ffffffff ffffffff ffffffff ffffffff     ................
   c6ac8:	ffffffff ffffffff ffffffff ffffffff     ................
   c6ad8:	ffffffff ffffffff ffffffff ffffffff     ................
   c6ae8:	ffffffff ffffffff ffffffff ffffffff     ................
   c6af8:	ffffffff ffffffff ffffffff ffffffff     ................
   c6b08:	ffffffff ffffffff ffffffff ffffffff     ................
   c6b18:	ffffffff ffffffff ffffffff ffffffff     ................
   c6b28:	ffffffff ffffffff ffffffff ffffffff     ................
   c6b38:	ffffffff ffffffff ffffffff ffffffff     ................
   c6b48:	ffffffff ffffffff ffffffff ffffffff     ................
   c6b58:	ffffffff ffffffff ffffffff ffffffff     ................
   c6b68:	ffffffff ffffffff ffffffff ffffffff     ................
   c6b78:	ffffffff ffffffff ffffffff ffffffff     ................
   c6b88:	ffffffff ffffffff ffffffff ffffffff     ................
   c6b98:	ffffffff ffffffff ffffffff ffffffff     ................
   c6ba8:	ffffffff ffffffff ffffffff ffffffff     ................
   c6bb8:	ffffffff ffffffff ffffffff ffffffff     ................
   c6bc8:	ffffffff ffffffff ffffffff ffffffff     ................
   c6bd8:	ffffffff ffffffff ffffffff ffffffff     ................
   c6be8:	ffffffff ffffffff ffffffff ffffffff     ................
   c6bf8:	ffffffff ffffffff ffffffff ffffffff     ................
   c6c08:	ffffffff ffffffff ffffffff ffffffff     ................
   c6c18:	ffffffff ffffffff ffffffff ffffffff     ................
   c6c28:	ffffffff ffffffff ffffffff ffffffff     ................
   c6c38:	ffffffff ffffffff ffffffff ffffffff     ................
   c6c48:	ffffffff ffffffff ffffffff ffffffff     ................
   c6c58:	ffffffff ffffffff ffffffff ffffffff     ................
   c6c68:	ffffffff ffffffff ffffffff ffffffff     ................
   c6c78:	ffffffff ffffffff ffffffff ffffffff     ................
   c6c88:	ffffffff ffffffff ffffffff ffffffff     ................
   c6c98:	ffffffff ffffffff ffffffff ffffffff     ................
   c6ca8:	ffffffff ffffffff ffffffff ffffffff     ................
   c6cb8:	ffffffff ffffffff ffffffff ffffffff     ................
   c6cc8:	ffffffff ffffffff ffffffff ffffffff     ................
   c6cd8:	ffffffff ffffffff ffffffff ffffffff     ................
   c6ce8:	ffffffff ffffffff ffffffff ffffffff     ................
   c6cf8:	ffffffff ffffffff ffffffff ffffffff     ................
   c6d08:	ffffffff ffffffff ffffffff ffffffff     ................
   c6d18:	ffffffff ffffffff ffffffff ffffffff     ................
   c6d28:	ffffffff ffffffff ffffffff ffffffff     ................
   c6d38:	ffffffff ffffffff ffffffff ffffffff     ................
   c6d48:	ffffffff ffffffff ffffffff ffffffff     ................
   c6d58:	ffffffff ffffffff ffffffff ffffffff     ................
   c6d68:	ffffffff ffffffff ffffffff ffffffff     ................
   c6d78:	ffffffff ffffffff ffffffff ffffffff     ................
   c6d88:	ffffffff ffffffff ffffffff ffffffff     ................
   c6d98:	ffffffff ffffffff ffffffff ffffffff     ................
   c6da8:	ffffffff ffffffff ffffffff ffffffff     ................
   c6db8:	ffffffff ffffffff ffffffff ffffffff     ................
   c6dc8:	ffffffff ffffffff ffffffff ffffffff     ................
   c6dd8:	ffffffff ffffffff ffffffff ffffffff     ................
   c6de8:	ffffffff ffffffff ffffffff ffffffff     ................
   c6df8:	ffffffff ffffffff ffffffff ffffffff     ................
   c6e08:	ffffffff ffffffff ffffffff ffffffff     ................
   c6e18:	ffffffff ffffffff ffffffff ffffffff     ................
   c6e28:	ffffffff ffffffff ffffffff ffffffff     ................
   c6e38:	ffffffff ffffffff ffffffff ffffffff     ................
   c6e48:	ffffffff ffffffff ffffffff ffffffff     ................
   c6e58:	ffffffff ffffffff ffffffff ffffffff     ................
   c6e68:	ffffffff ffffffff ffffffff ffffffff     ................
   c6e78:	ffffffff ffffffff ffffffff ffffffff     ................
   c6e88:	ffffffff ffffffff ffffffff ffffffff     ................
   c6e98:	ffffffff ffffffff ffffffff ffffffff     ................
   c6ea8:	ffffffff ffffffff ffffffff ffffffff     ................
   c6eb8:	ffffffff ffffffff ffffffff ffffffff     ................
   c6ec8:	ffffffff ffffffff ffffffff ffffffff     ................
   c6ed8:	ffffffff ffffffff ffffffff ffffffff     ................
   c6ee8:	ffffffff ffffffff ffffffff ffffffff     ................
   c6ef8:	ffffffff ffffffff ffffffff ffffffff     ................
   c6f08:	ffffffff ffffffff ffffffff ffffffff     ................
   c6f18:	ffffffff ffffffff ffffffff ffffffff     ................
   c6f28:	ffffffff ffffffff ffffffff ffffffff     ................
   c6f38:	ffffffff ffffffff ffffffff ffffffff     ................
   c6f48:	ffffffff ffffffff ffffffff ffffffff     ................
   c6f58:	ffffffff ffffffff ffffffff ffffffff     ................
   c6f68:	ffffffff ffffffff ffffffff 4ff2ffff     ...............O
   c6f78:	c689271e 90249e78 c71839dc 6f3b1c11     .'..x.$..9....;o
   c6f88:	ffffffff ffffffff ffffffff ffffffff     ................
   c6f98:	ffffffff ffffffff ffffffff ffffffff     ................
   c6fa8:	271e4ff2 9e78c689 39dc9024 1c11c718     .O.'..x.$..9....
   c6fb8:	ffff6f3b ffffffff ffffffff ffffffff     ;o..............
   c6fc8:	ffffffff ffffffff ffffffff ffffffff     ................
   c6fd8:	4ff2ffff c689271e 90249e78 c71839dc     ...O.'..x.$..9..
   c6fe8:	6f3b1c11 ffffffff ffffffff ffffffff     ..;o............
   c6ff8:	ffffffff ffffffff ffffffff ffffffff     ................
   c7008:	ffffffff 271e4ff2 9e78c689 39dc9024     .....O.'..x.$..9
   c7018:	1c11c718 ffff6f3b ffffffff ffffffff     ....;o..........
   c7028:	ffffffff ffffffff ffffffff ffffffff     ................
   c7038:	ffffffff 4ff2ffff c689271e 90249e78     .......O.'..x.$.
   c7048:	c71839dc 6f3b1c11 ffffffff ffffffff     .9....;o........
   c7058:	ffffffff ffffffff ffffffff ffffffff     ................
   c7068:	ffffffff ffffffff 271e4ff2 9e78c689     .........O.'..x.
   c7078:	39dc9024 1c11c718 ffff6f3b ffffffff     $..9....;o......
   c7088:	ffffffff ffffffff ffffffff ffffffff     ................
   c7098:	ffffffff ffffffff 4ff2ffff c689271e     ...........O.'..
   c70a8:	90249e78 c71839dc 6f3b1c11 ffffffff     x.$..9....;o....
   c70b8:	ffffffff ffffffff ffffffff ffffffff     ................
   c70c8:	ffffffff ffffffff ffffffff 271e4ff2     .............O.'
   c70d8:	9e78c689 39dc9024 1c11c718 ffff6f3b     ..x.$..9....;o..
   c70e8:	ffffffff ffffffff ffffffff ffffffff     ................
   c70f8:	ffffffff ffffffff ffffffff 4ff2ffff     ...............O
   c7108:	c689271e 90249e78 c71839dc 6f3b1c11     .'..x.$..9....;o
   c7118:	ffffffff ffffffff ffffffff ffffffff     ................
   c7128:	ffffffff e3ffffff 3f3efef1 ffffffff     ..........>?....
   c7138:	271e4ff2 9e78c689 39dc9024 1c11c718     .O.'..x.$..9....
   c7148:	ffff6f3b ffffffff ffffffff ffffffff     ;o..............
   c7158:	ffffffff ffffffff fce0c1ff ffff1f1c     ................
   c7168:	4ff2ffff c689271e 90249e78 c71839dc     ...O.'..x.$..9..
   c7178:	6f3b1c11 ffffffff ffffffff ffffffff     ..;o............
   c7188:	ffffffff fee3c7ff 9cff1f3f dfd979ce     ........?....y..
   c7198:	ffffffff 271e4ff2 9e78c689 39dc9024     .....O.'..x.$..9
   c71a8:	1c11c718 ffff6f3b ffffffff ffffffff     ....;o..........
   c71b8:	ffffffff 33ffffff efdefddd 79ce9cff     .......3.......y
   c71c8:	ffffcfc9 4ff2ffff c689271e 90249e78     .......O.'..x.$.
   c71d8:	c71839dc 6f3b1c11 ffffffff ffffffff     .9....;o........
   c71e8:	ffffffff ffffffff fdbe7bff fcffefde     .........{......
   c71f8:	cfc979fe ffffffff 271e4ff2 9e78c689     .y.......O.'..x.
   c7208:	39dc9024 1c11c718 ffff6f3b ffffffff     $..9....;o......
   c7218:	ffffffff ffffffff fbffffff f7edfb9d     ................
   c7228:	79fefcff ffffcfc9 4ff2ffff c689271e     ...y.......O.'..
   c7238:	90249e78 c71839dc 6f3b1c11 ffffffff     x.$..9....;o....
   c7248:	ffffffff ffffffff ffffffff fbcbf7ff     ................
   c7258:	fdfff7ed 8f89f9fe ffffffff 271e4ff2     .............O.'
   c7268:	9e78c689 39dc9024 1c11c718 ffff6f3b     ..x.$..9....;o..
   c7278:	ffffffff ffffffff ffffffff c7ffffff     ................
   c7288:	f7edfbe3 fcfcf9ff ffff0f0c 4ff2ffff     ...............O
   c7298:	c689271e 90249e78 c71839dc 6f3b1c11     .'..x.$..9....;o
   c72a8:	ffffffff ffffffff ffffffff ffffffff     ................
   c72b8:	fbd9f3ff f3fff7ed 4f4cfcf9 ffffffff     ..........LO....
   c72c8:	271e4ff2 9e78c689 39dc9024 1c11c718     .O.'..x.$..9....
   c72d8:	ffff6f3b ffffffff ffffffff ffffffff     ;o..............
   c72e8:	fbffffff f7edfbbc fff3e7ff ffffcfcf     ................
   c72f8:	4ff2ffff c689271e 90249e78 c71839dc     ...O.'..x.$..9..
   c7308:	6f3b1c11 ffffffff ffffffff ffffffff     ..;o............
   c7318:	ffffffff fbbefbff cffff7ed cfc9f9e7     ................
   c7328:	ffffffff 271e4ff2 9e78c689 39dc9024     .....O.'..x.$..9
   c7338:	1c11c718 ffff6f3b ffffffff ffffffff     ....;o..........
   c7348:	ffffffff fbffffff efdefdbe fde7cfff     ................
   c7358:	ffff8f8d 4ff2ffff c689271e 90249e78     .......O.'..x.$.
   c7368:	c71839dc 6f3b1c11 ffffffff ffffffff     .9....;o........
   c7378:	ffffffff ffffffff bddd37ff 80ffefde     .........7......
   c7388:	1f1c4cc0 ffffffff 271e4ff2 9e78c689     .L.......O.'..x.
   c7398:	39dc9024 1c11c718 ffff6f3b ffffffff     $..9....;o......
   c73a8:	ffffffff ffffffff 0fffffff 1f3fbee3     ..............?.
   c73b8:	4ec080ff ffff3f3e 4ff2ffff c689271e     ...N>?.....O.'..
   c73c8:	90249e78 c71839dc 6f3b1c11 ffffffff     x.$..9....;o....
   c73d8:	ffffffff ffffffff ffffffff ffffffff     ................
   c73e8:	ffffffff ffffffff ffffffff 271e4ff2     .............O.'
   c73f8:	9e78c689 39dc9024 1c11c718 ffff6f3b     ..x.$..9....;o..
   c7408:	ffffffff ffffffff ffffffff ffffffff     ................
   c7418:	ffffffff ffffffff ffffffff 4ff2ffff     ...............O
   c7428:	c689271e 90249e78 c71839dc 6f3b1c11     .'..x.$..9....;o
   c7438:	ffffffff ffffffff ffffffff ffffffff     ................
   c7448:	ffffffff ffffffff ffffffff ffffffff     ................
   c7458:	271e4ff2 9e78c689 39dc9024 1c11c718     .O.'..x.$..9....
   c7468:	ffff6f3b ffffffff ffffffff ffffffff     ;o..............
   c7478:	ffffffff ffffffff ffffffff ffffffff     ................
   c7488:	4ff2ffff c689271e 90249e78 c71839dc     ...O.'..x.$..9..
   c7498:	6f3b1c11 ffffffff ffffffff ffffffff     ..;o............
   c74a8:	ffffffff ffffffff ffffffff ffffffff     ................
   c74b8:	ffffffff 271e4ff2 9e78c689 39dc9024     .....O.'..x.$..9
   c74c8:	1c11c718 ffff6f3b ffffffff ffffffff     ....;o..........
   c74d8:	ffffffff ffffffff ffffffff ffffffff     ................
   c74e8:	ffffffff 4ff2ffff c689271e 90249e78     .......O.'..x.$.
   c74f8:	c71839dc 6f3b1c11 fe0fffff 7ff8ffff     .9....;o........
   c7508:	ffffffff ffffffff ffffffff ffffffff     ................
   c7518:	ffffffff ffffffff 271e4ff2 9e78c689     .........O.'..x.
   c7528:	39dc9024 1c11c718 feff6f3b ffffffef     $..9....;o......
   c7538:	ffff7ff7 fffffeff ffffffff ffffffff     ................
   c7548:	ffffffff ffffffff 4ff2ffff c689271e     ...........O.'..
   c7558:	90249e78 c71839dc 6f3b1c11 fff7fdff     x.$..9....;o....
   c7568:	bfefffff feffffff ffffffff ffffffff     ................
   c7578:	ffffffff ffffffff ffffffff 271e4ff2     .............O.'
   c7588:	9e78c689 39dc9024 1c11c718 fdff6f3b     ..x.$..9....;o..
   c7598:	fffffff7 ffffbfef fffffeff ffffffff     ................
   c75a8:	ffffffff ffffffff ffffffff 4ff2ffff     ...............O
   c75b8:	c689271e 90249e78 c71839dc 6f3b1c11     .'..x.$..9....;o
   c75c8:	36fbfdff f1ef3fc2 84e3f0f0 ffffc763     ...6.?......c...
   c75d8:	ffffffff ffffffff ffffffff ffffffff     ................
   c75e8:	271e4ff2 9e78c689 39dc9024 1c11c718     .O.'..x.$..9....
   c75f8:	fdff6f3b bf9935fb 6ee2eeef bbdd75c3     ;o...5.....n.u..
   c7608:	ffffffff ffffffff ffffffff ffffffff     ................
   c7618:	4ff2ffff c689271e 90249e78 c71839dc     ...O.'..x.$..9..
   c7628:	6f3b1c11 357bfeff eef3bfbb f5ce5ee7     ..;o..{5.....^..
   c7638:	ffff7bdd ffffffff ffffffff ffffffff     .{..............
   c7648:	ffffffff 271e4ff2 9e78c689 39dc9024     .....O.'..x.$..9
   c7658:	1c11c718 ffff6f3b bfbbad3a 7cefdef9     ....;o..:......|
   c7668:	7fbde5df ffffffff ffffffff ffffffff     ................
   c7678:	ffffffff 4ff2ffff c689271e 90249e78     .......O.'..x.$.
   c7688:	c71839dc 6f3b1c11 addaffff c0febfbb     .9....;o........
   c7698:	15df62ef ffff9f81 ffffffff ffffffff     .b..............
   c76a8:	ffffffff ffffffff 271e4ff2 9e78c689     .........O.'..x.
   c76b8:	39dc9024 1c11c718 ffff6f3b bfbbadda     $..9....;o......
   c76c8:	5eefdffe e7bff5de ffffffff ffffffff     ...^............
   c76d8:	ffffffff ffffffff 4ff2ffff c689271e     ...........O.'..
   c76e8:	90249e78 c71839dc 6f3b1c11 9dd9fbff     x.$..9....;o....
   c76f8:	dfdebfbb e5dedcee fffff7bf ffffffff     ................
   c7708:	ffffffff ffffffff ffffffff 271e4ff2     .............O.'
   c7718:	9e78c689 39dc9024 1c11c718 fbff6f3b     ..x.$..9....;o..
   c7728:	7f779bd9 bdceddde f7baebbd ffffffff     ..w.............
   c7738:	ffffffff ffffffff ffffffff 4ff2ffff     ...............O
   c7748:	c689271e 90249e78 c71839dc 6f3b1c11     .'..x.$..9....;o
   c7758:	9bb9fbff d9dd7f77 cbbc99c5 ffff77b3     ....w........w..
   c7768:	ffffffff ffffffff ffffffff ffffffff     ................
   c7778:	271e4ff2 9e78c689 39dc9024 1c11c718     .O.'..x.$..9....
   c7788:	fcff6f3b 7f77bb7b c5d3e3e3 0fc729be     ;o..{.w......)..
   c7798:	ffffffff ffffffff ffffffff ffffffff     ................
   c77a8:	4ff2ffff c689271e 90249e78 c71839dc     ...O.'..x.$..9..
   c77b8:	6f3b1c11 ffffffff ffffffff ffffffdf     ..;o............
   c77c8:	ffffffff ffffffff ffffffff ffffffff     ................
   c77d8:	ffffffff 271e4ff2 9e78c689 39dc9024     .....O.'..x.$..9
   c77e8:	1c11c718 ffff6f3b ffffffff ffdfffff     ....;o..........
   c77f8:	ffffffff ffffffff ffffffff ffffffff     ................
   c7808:	ffffffff 4ff2ffff c689271e 90249e78     .......O.'..x.$.
   c7818:	c71839dc 6f3b1c11 ffffffff ffffffff     .9....;o........
   c7828:	ffffffdf ffffffff ffffffff ffffffff     ................
   c7838:	ffffffff ffffffff 271e4ff2 9e78c689     .........O.'..x.
   c7848:	39dc9024 1c11c718 ffff6f3b ffffffff     $..9....;o......
   c7858:	ffbfffff ffffffff ffffffff ffffffff     ................
   c7868:	ffffffff ffffffff 4ff2ffff c689271e     ...........O.'..
   c7878:	90249e78 c71839dc 6f3b1c11 ffffffff     x.$..9....;o....
   c7888:	ffffffff ffffffff ffffffff ffffffff     ................
   c7898:	ffffffff ffffffff ffffffff 271e4ff2     .............O.'
   c78a8:	9e78c689 39dc9024 1c11c718 ffff6f3b     ..x.$..9....;o..
   c78b8:	ffffffff ffffffff ffffffff ffffffff     ................
   c78c8:	ffffffff ffffffff ffffffff 4ff2ffff     ...............O
   c78d8:	c689271e 90249e78 c71839dc 6f3b1c11     .'..x.$..9....;o
   c78e8:	ffffffff ffffffff ffffffff ffffffff     ................
   c78f8:	ffffffff ffffffff ffffffff ffffffff     ................
   c7908:	271e4ff2 9e78c689 39dc9024 1c11c718     .O.'..x.$..9....
   c7918:	ffff6f3b ffffffff ffffffff ffffffff     ;o..............
   c7928:	ffffffff ffffffff ffffffff ffffffff     ................
   c7938:	4ff2ffff c689271e 90249e78 c71839dc     ...O.'..x.$..9..
   c7948:	6f3b1c11 ffffffff ffffffff ffffffff     ..;o............
   c7958:	ffffffff ffffffff ffffffff ffffffff     ................
   c7968:	ffffffff 271e4ff2 9e78c689 39dc9024     .....O.'..x.$..9
   c7978:	1c11c718 ffff6f3b ffffffff ffffffff     ....;o..........
   c7988:	ffffffff ffffffff ffffffff ffffffff     ................
   c7998:	ffffffff 4ff2ffff c689271e 90249e78     .......O.'..x.$.
   c79a8:	c71839dc 6f3b1c11 ffffffff ffffffff     .9....;o........
   c79b8:	ffffffff ffffffff ffffffff ffffffff     ................
   c79c8:	ffffffff ffffffff ffffffff ffffffff     ................
   c79d8:	ffffffff ffffffff ffffffff ffffffff     ................
   c79e8:	ffffffff ffffffff ffffffff ffffffff     ................
   c79f8:	ffffffff ffffffff ffffffff ffffffff     ................
   c7a08:	ffffffff ffffffff ffffffff ffffffff     ................
   c7a18:	ffffffff ffffffff ffffffff ffffffff     ................
   c7a28:	ffffffff ffffffff ffffffff ffffffff     ................
   c7a38:	ffffffff ffffffff ffffffff ffffffff     ................
   c7a48:	ffffffff ffffffff ffffffff ffffffff     ................
   c7a58:	ffffffff ffffffff ffffffff ffffffff     ................
   c7a68:	ffffffff ffffffff ffffffff ffffffff     ................
   c7a78:	ffffffff ffffffff ffffffff ffffffff     ................
   c7a88:	ffffffff ffffffff ffffffff ffffffff     ................
   c7a98:	ffffffff ffffffff ffffffff ffffffff     ................
   c7aa8:	ffffffff ffffffff ffffffff ffffffff     ................
   c7ab8:	ffffffff ffffffff ffffffff ffffffff     ................
   c7ac8:	ffffffff ffffffff ffffffff ffffffff     ................
   c7ad8:	ffffffff ffffffff ffffffff ffffffff     ................
   c7ae8:	ffffffff ffffffff ffffffff ffffffff     ................
   c7af8:	ffffffff ffffffff ffffffff ffffffff     ................
   c7b08:	ffffffff ffffffff ffffffff ffffffff     ................
   c7b18:	ffffffff ffffffff ffffffff ffffffff     ................
   c7b28:	ffffffff ffffffff ffffffff ffffffff     ................
   c7b38:	ffffffff ffffffff ffffffff ffffffff     ................
   c7b48:	ffffffff ffffffff ffffffff ffffffff     ................
   c7b58:	ffffffff ffffffff e3ffffdf f1f1f9f1     ................
   c7b68:	e3e3ffff ffe3f3f3 ff8fffff ffffffff     ................
   c7b78:	ffffffff ffffffff ffffffff ffffffff     ................
   c7b88:	ffffffff ffffffff ff9fffff e1eeddff     ................
   c7b98:	ffffeeee c3c3ddd9 ffffffc1 ffffff77     ............w...
   c7ba8:	ffffffff ffffffff ffffffff ffffffff     ................
   c7bb8:	ffffffff ffffffff ffffffff 9cffff1f     ................
   c7bc8:	4ece79ce 9c9cff7f ff99f3f3 ff73feff     .y.N..........s.
   c7bd8:	ffffffff ffffffff ffffffff ffffffff     ................
   c7be8:	ffffffff ffffffff ffffffff ff9ffeff     ................
   c7bf8:	79ce9cff ff7f4ece f3f39c9c fefffff9     ...y.N..........
   c7c08:	ffffff73 ffffffff ffffffff ffffffff     s...............
   c7c18:	ffffffff ffffffff ffffffff fdffffff     ................
   c7c28:	9cffff9f 4ece79ce 9c9cff7f fff9f3f3     .....y.N........
   c7c38:	ff73feff ffffffff ffffffff ffffffff     ..s.............
   c7c48:	ffffffff ffffffff ffffffff ffffffff     ................
   c7c58:	ff9ffbff 79ce9cff ff7f4ece f3f39c8c     .......y.N......
   c7c68:	fefffffb ffffff73 ffffffff ffffffff     ....s...........
   c7c78:	ffffffff ffffffff ffffffff ffffffff     ................
   c7c88:	f8ffffff 9cffff0f 4ece79ce 9cc0ff7f     .........y.N....
   c7c98:	fff3f3f3 ff73feff ffffffff ffffffff     ......s.........
   c7ca8:	ffffffff ffffffff ffffffff ffffffff     ................
   c7cb8:	ffffffff ff0ff8ff 79ce9cff ff7f4ece     ...........y.N..
   c7cc8:	f3f39cf9 fefffff7 ffffff73 ffffffff     ........s.......
   c7cd8:	ffffffff ffffffff ffffffff ffffffff     ................
   c7ce8:	ffffffff ffffffff 9cffff9f 4ece79ce     .............y.N
   c7cf8:	9cf9ff7f ffeef3f3 ff73feff ffffffff     ..........s.....
   c7d08:	ffffffff ffffffff ffffffff ffffffff     ................
   c7d18:	ffffffff ffffffff ff9fffff f9eeddff     ................
   c7d28:	ffffeeee f3f3dde3 ffffffc1 ffffff77     ............w...
   c7d38:	ffffffff ffffffff ffffffff ffffffff     ................
   c7d48:	ffffffff ffffffff ffffffff e3ffff9f     ................
   c7d58:	f171e0f1 e38fffff ff81c0c0 ff8fffff     ..q.............
   c7d68:	ffffffff ffffffff ffffffff ffffffff     ................
   c7d78:	ffffffff ffffffff ffffffff ffffffff     ................
   c7d88:	ffffffff ffffffff ffffffff ffffffff     ................
   c7d98:	ffffffff ffffffff ffffffff ffffffff     ................
   c7da8:	ffffffff ffffffff ffffffff ffffffff     ................
   c7db8:	ffffffff ffffffff ffffffff ffffffff     ................
   c7dc8:	ffffffff ffffffff ffffffff ffffffff     ................
   c7dd8:	ffffffff ffffffff ffffffff ffffffff     ................
   c7de8:	ffffffff ffffffff ffffffff ffffffff     ................
   c7df8:	ffffffff ffffffff ffffffff ffffffff     ................
   c7e08:	ffffffff ffffffff ffffffff ffffffff     ................
   c7e18:	ffffffff ffffffff ffffffff ffffffff     ................
   c7e28:	ffffffff ffffffff ffffffff ffffffff     ................
   c7e38:	ffffffff ffffffff ffffffff ffffffff     ................
   c7e48:	ffffffff ffffffff ffffffff ffffffff     ................
   c7e58:	ffffffff ffffffff ffffffff ffffffff     ................
   c7e68:	ffffffff ffffffff ffffffff ffffffff     ................
   c7e78:	ffffffff ffffffff ffffffff ffffffff     ................
   c7e88:	ffffffff ffffffff ffffffff ffffffff     ................
   c7e98:	ffffffff ffffffff ffffffff ffffffff     ................
   c7ea8:	ffffffff ffffffff ffffffff ffffffff     ................
   c7eb8:	ffffffff ffffffff ffffffff ffffffff     ................
   c7ec8:	ffffffff ffffffff ffffffff ffffffff     ................
   c7ed8:	ffffffff ffffffff ffffffff ffffffff     ................
   c7ee8:	ffffffff ffffffff ffffffff ffffffff     ................
   c7ef8:	ffffffff ffffffff ffffffff ffffffff     ................
   c7f08:	ffffffff ffffffff ffffffff ffffffff     ................
   c7f18:	ffffffff ffffffff ffffffff ffffffff     ................
   c7f28:	ffffffff ffffffff ffffffff ffffffff     ................
   c7f38:	ffffffff ffffffff ffffffff ffffffff     ................
   c7f48:	ffffffff ffffffff ffffffff ffffffff     ................
   c7f58:	ffffffff ffffffff ffffffff ffffffff     ................
   c7f68:	ffffffff ffffffff ffffffff ffffffff     ................
   c7f78:	ffffffff ffffffff ffffffff ffffffff     ................
   c7f88:	ffffffff ffffffff ffffffff ffffffff     ................
   c7f98:	ffffffff ffffffff ffffffff ffffffff     ................
   c7fa8:	ffffffff ffffffff ffffffff ffffffff     ................
   c7fb8:	ffffffff ffffffff ffffffff ffffffff     ................
   c7fc8:	ffffffff ffffffff ffffffff ffffffff     ................
   c7fd8:	ffffffff ffffffff ffffffff ffffffff     ................
   c7fe8:	ffffffff ffffffff ffffffff ffffffff     ................
   c7ff8:	ffffffff ffffffff ffffffff ffffffff     ................
   c8008:	ffffffff ffffffff ffffffff ffffffff     ................
   c8018:	ffffffff ffffffff ffffffff ffffffff     ................
   c8028:	ffffffff ffffffff ffffffff ffffffff     ................
   c8038:	ffffffff ffffffff ffffffff ffffffff     ................
   c8048:	ffffffff ffffffff ffffffff ffffffff     ................
   c8058:	ffffffff ffffffff ffffffff ffffffff     ................
   c8068:	ffffffff ffffffff ffffffff ffffffff     ................
   c8078:	ffffffff ffffffff ffffffff ffffffff     ................
   c8088:	ffffffff ffffffff ffffffff ffffffff     ................
   c8098:	ffffffff ffffffff ffffffff ffffffff     ................
   c80a8:	ffffffff ffffffff ffffffff ffffffff     ................
   c80b8:	ffffffff ffffffff ffffffff ffffffff     ................
   c80c8:	ffffffff ffffffff ffffffff ffffffff     ................
   c80d8:	ffffffff ffffffff ffffffff ffffffff     ................
   c80e8:	ffffffff ffffffff ffffffff ffffffff     ................
   c80f8:	ffffffff ffffffff ffffffff ffffffff     ................
   c8108:	ffffffff ffffffff ffffffff ffffffff     ................
   c8118:	ffffffff ffffffff ffffffff ffffffff     ................
   c8128:	ffffffff ffffffff ffffffff ffffffff     ................
   c8138:	ffffffff ffffffff ffffffff ffffffff     ................
   c8148:	ffffffff ffffffff ffffffff ffffffff     ................
   c8158:	ffffffff ffffffff ffffffff ffffffff     ................
   c8168:	ffffffff ffffffff ffffffff ffffffff     ................
   c8178:	ffffffff ffffffff ffffffff ffffffff     ................
   c8188:	ffffffff ffffffff ffffffff ffffffff     ................
   c8198:	ffffffff ffffffff ffffffff ffffffff     ................
   c81a8:	ffffffff ffffffff ffffffff ffffffff     ................
   c81b8:	ffffffff ffffffff ffffffff ffffffff     ................
   c81c8:	ffffffff ffffffff                       ........

000c81d0 <_ZL22WS_Bitmap3c400x300_red>:
   c81d0:	ffffffff ffffffff ffffffff ffffffff     ................
   c81e0:	ffffffff ffffffff ffffffff ffffffff     ................
   c81f0:	ffffffff ffffffff ffffffff ffffffff     ................
   c8200:	ffffffff ffffffff ffffffff ffffffff     ................
   c8210:	ffffffff ffffffff ffffffff ffffffff     ................
   c8220:	ffffffff ffffffff ffffffff ffffffff     ................
   c8230:	ffffffff ffffffff ffffffff ffffffff     ................
   c8240:	ffffffff ffffffff ffffffff ffffffff     ................
   c8250:	ffffffff ffffffff ffffffff ffffffff     ................
   c8260:	ffffffff ffffffff ffffffff ffffffff     ................
   c8270:	ffffffff ffffffff ffffffff ffffffff     ................
   c8280:	ffffffff ffffffff ffffffff ffffffff     ................
   c8290:	ffffffff ffffffff ffffffff ffffffff     ................
   c82a0:	ffffffff ffffffff ffffffff ffffffff     ................
   c82b0:	ffffffff ffffffff ffffffff ffffffff     ................
   c82c0:	ffffffff ffffffff ffffffff ffffffff     ................
   c82d0:	ffffffff ffffffff ffffffff ffffffff     ................
   c82e0:	ffffffff ffffffff ffffffff ffffffff     ................
   c82f0:	ffffffff ffffffff ffffffff ffffffff     ................
   c8300:	ffffffff ffffffff ffffffff ffffffff     ................
   c8310:	ffffffff ffffffff ffffffff ffffffff     ................
   c8320:	ffffffff ffffffff ffffffff ffffffff     ................
   c8330:	ffffffff ffffffff ffffffff ffffffff     ................
   c8340:	ffffffff ffffffff ffffffff ffffffff     ................
   c8350:	ffffffff ffffffff ffffffff ffffffff     ................
   c8360:	ffffffff ffffffff ffffffff ffffffff     ................
   c8370:	ffffffff ffffffff ffffffff ffffffff     ................
   c8380:	ffffffff ffffffff ffffffff ffffffff     ................
   c8390:	ffffffff ffffffff ffffffff ffffffff     ................
   c83a0:	ffffffff ffffffff ffffffff ffffffff     ................
   c83b0:	ffffffff ffffffff ffffffff ffffffff     ................
   c83c0:	ffffffff ffffffff ffffffff ffffffff     ................
   c83d0:	ffffffff ffffffff ffffffff ffffffff     ................
   c83e0:	ffffffff ffffffff ffffffff ffffffff     ................
   c83f0:	ffffffff ffffffff ffffffff ffffffff     ................
   c8400:	ffffffff ffffffff ffffffff ffffffff     ................
   c8410:	ffffffff ffffffff ffffffff ffffffff     ................
   c8420:	ffffffff ffffffff ffffffff ffffffff     ................
   c8430:	ffffffff ffffffff ffffffff ffffffff     ................
   c8440:	ffffffff ffffffff ffffffff ffffffff     ................
   c8450:	ffffffff ffffffff ffffffff ffffffff     ................
   c8460:	ffffffff ffffffff ffffffff ffffffff     ................
   c8470:	ffffffff ffffffff ffffffff ffffffff     ................
   c8480:	ffffffff ffffffff ffffffff ffffffff     ................
   c8490:	ffffffff ffffffff ffffffff ffffffff     ................
   c84a0:	ffffffff ffffffff ffffffff ffffffff     ................
   c84b0:	ffffffff ffffffff ffffffff ffffffff     ................
   c84c0:	ffffffff ffffffff ffffffff ffffffff     ................
   c84d0:	ffffffff ffffffff ffffffff ffffffff     ................
   c84e0:	ffffffff ffffffff ffffffff ffffffff     ................
   c84f0:	ffffffff ffffffff ffffffff ffffffff     ................
   c8500:	ffffffff ffffffff ffffffff ffffffff     ................
   c8510:	ffffffff ffffffff ffffffff ffffffff     ................
   c8520:	ffffffff ffffffff ffffffff ffffffff     ................
   c8530:	ffffffff ffffffff ffffffff ffffffff     ................
   c8540:	ffffffff ffffffff ffffffff ffffffff     ................
   c8550:	ffffffff ffffffff ffffffff ffffffff     ................
   c8560:	ffffffff ffffffff ffffffff ffffffff     ................
   c8570:	ffffffff ffffffff ffffffff ffffffff     ................
   c8580:	ffffffff ffffffff ffffffff ffffffff     ................
   c8590:	ffffffff ffffffff ffffffff ffffffff     ................
   c85a0:	ffffffff ffffffff ffffffff ffffffff     ................
   c85b0:	ffffffff ffffffff ffffffff ffffffff     ................
   c85c0:	ffffffff ffffffff ffffffff ffffffff     ................
   c85d0:	ffffffff ffffffff ffffffff ffffffff     ................
   c85e0:	ffffffff ffffffff ffffffff ffffffff     ................
   c85f0:	ffffffff ffffffff ffffffff ffffffff     ................
   c8600:	ffffffff ffffffff ffffffff ffffffff     ................
   c8610:	ffffffff ffffffff ffffffff ffffffff     ................
   c8620:	ffffffff ffffffff ffffffff ffffffff     ................
   c8630:	ffffffff ffffffff ffffffff ffffffff     ................
   c8640:	ffffffff ffffffff ffffffff ffffffff     ................
   c8650:	ffffffff ffffffff ffffffff ffffffff     ................
   c8660:	ffffffff ffffffff ffffffff ffffffff     ................
   c8670:	ffffffff ffffffff ffffffff ffffffff     ................
   c8680:	ffffffff ffffffff ffffffff ffffffff     ................
   c8690:	ffffffff ffffffff ffffffff ffffffff     ................
   c86a0:	ffffffff ffffffff ffffffff ffffffff     ................
   c86b0:	ffffffff ffffffff ffffffff ffffffff     ................
   c86c0:	ffffffff ffffffff ffffffff ffffffff     ................
   c86d0:	ffffffff ffffffff ffffffff ffffffff     ................
   c86e0:	ffffffff ffffffff ffffffff ffffffff     ................
   c86f0:	ffffffff ffffffff ffffffff ffffffff     ................
   c8700:	ffffffff ffffffff ffffffff ffffffff     ................
   c8710:	ffffffff ffffffff ffffffff ffffffff     ................
   c8720:	ffffffff ffffffff ffffffff ffffffff     ................
   c8730:	ffffffff ffffffff ffffffff ffffffff     ................
   c8740:	ffffffff ffffffff ffffffff ffffffff     ................
   c8750:	ffffffff ffffffff ffffffff ffffffff     ................
   c8760:	ffffffff ffffffff ffffffff ffffffff     ................
   c8770:	ffffffff ffffffff ffffffff ffffffff     ................
   c8780:	ffffffff ffffffff ffffffff ffffffff     ................
   c8790:	ffffffff ffffffff ffffffff ffffffff     ................
   c87a0:	ffffffff ffffffff ffffffff ffffffff     ................
   c87b0:	ffffffff ffffffff ffffffff ffffffff     ................
   c87c0:	ffffffff ffffffff ffffffff ffffffff     ................
   c87d0:	ffffffff ffffffff ffffffff ffffffff     ................
   c87e0:	ffffffff ffffffff ffffffff ffffffff     ................
   c87f0:	ffffffff ffffffff ffffffff ffffffff     ................
   c8800:	ffffffff ffffffff ffffffff ffffffff     ................
   c8810:	ffffffff ffffffff ffffffff ffffffff     ................
   c8820:	ffffffff ffffffff ffffffff ffffffff     ................
   c8830:	ffffffff ffffffff ffffffff ffffffff     ................
   c8840:	ffffffff ffffffff ffffffff ffffffff     ................
   c8850:	ffffffff ffffffff ffffffff ffffffff     ................
   c8860:	ffffffff ffffffff ffffffff ffffffff     ................
   c8870:	ffffffff ffffffff ffffffff ffffffff     ................
   c8880:	ffffffff ffffffff ffffffff ffffffff     ................
   c8890:	ffffffff ffffffff ffffffff ffffffff     ................
   c88a0:	ffffffff ffffffff ffffffff ffffffff     ................
   c88b0:	ffffffff ffffffff ffffffff ffffffff     ................
   c88c0:	ffffffff ffffffff ffffffff ffffffff     ................
   c88d0:	ffffffff ffffffff ffffffff ffffffff     ................
   c88e0:	ffffffff ffffffff ffffffff ffffffff     ................
   c88f0:	ffffffff ffffffff ffffffff ffffffff     ................
   c8900:	ffffffff ffffffff ffffffff ffffffff     ................
   c8910:	ffffffff ffffffff ffffffff ffffffff     ................
   c8920:	ffffffff ffffffff ffffffff ffffffff     ................
   c8930:	ffffffff ffffffff ffffffff ffffffff     ................
   c8940:	ffffffff ffffffff ffffffff ffffffff     ................
   c8950:	ffffffff ffffffff ffffffff ffffffff     ................
   c8960:	ffffffff ffffffff ffffffff ffffffff     ................
   c8970:	ffffffff ffffffff ffffffff ffffffff     ................
   c8980:	ffffffff ffffffff ffffffff ffffffff     ................
   c8990:	ffffffff ffffffff ffffffff ffffffff     ................
   c89a0:	ffffffff ffffffff ffffffff ffffffff     ................
   c89b0:	ffffffff ffffffff ffffffff ffffffff     ................
   c89c0:	ffffffff ffffffff ffffffff ffffffff     ................
   c89d0:	ffffffff ffffffff ffffffff ffffffff     ................
   c89e0:	ffffffff ffffffff ffffffff ffffffff     ................
   c89f0:	ffffffff ffffffff ffffffff ffffffff     ................
   c8a00:	ffffffff ffffffff ffffffff ffffffff     ................
   c8a10:	ffffffff ffffffff ffffffff ffffffff     ................
   c8a20:	ffffffff ffffffff ffffffff ffffffff     ................
   c8a30:	ffffffff ffffffff ffffffff ffffffff     ................
   c8a40:	ffffffff ffffffff ffffffff ffffffff     ................
   c8a50:	ffffffff ffffffff ffffffff ffffffff     ................
   c8a60:	ffffffff ffffffff ffffffff ffffffff     ................
   c8a70:	ffffffff ffffffff ffffffff ffffffff     ................
   c8a80:	ffffffff ffffffff ffffffff ffffffff     ................
   c8a90:	ffffffff ffffffff ffffffff ffffffff     ................
   c8aa0:	ffffffff ffffffff ffffffff ffffffff     ................
   c8ab0:	ffffffff ffffffff ffffffff ffffffff     ................
   c8ac0:	ffffffff ffffffff ffffffff ffffffff     ................
   c8ad0:	ffffffff ffffffff ffffffff ffffffff     ................
   c8ae0:	ffffffff ffffffff ffffffff ffffffff     ................
   c8af0:	ffffffff ffffffff ffffffff ffffffff     ................
   c8b00:	ffffffff ffffffff ffffffff ffffffff     ................
   c8b10:	ffffffff ffffffff ffffffff ffffffff     ................
   c8b20:	ffffffff ffffffff ffffffff ffffffff     ................
   c8b30:	ffffffff ffffffff ffffffff ffffffff     ................
   c8b40:	ffffffff ffffffff ffffffff ffffffff     ................
   c8b50:	ffffffff ffffffff ffffffff ffffffff     ................
   c8b60:	ffffffff ffffffff ffffffff ffffffff     ................
   c8b70:	ffffffff ffffffff ffffffff ffffffff     ................
   c8b80:	ffffffff ffffffff ffffffff ffffffff     ................
   c8b90:	ffffffff ffffffff ffffffff ffffffff     ................
   c8ba0:	ffffffff ffffffff ffffffff ffffffff     ................
   c8bb0:	ffffffff ffffffff ffffffff ffffffff     ................
   c8bc0:	ffffffff ffffffff ffffffff ffffffff     ................
   c8bd0:	ffffffff ffffffff ffffffff ffffffff     ................
   c8be0:	ffffffff ffffffff ffffffff ffffffff     ................
   c8bf0:	ffffffff ffffffff ffffffff ffffffff     ................
   c8c00:	ffffffff ffffffff ffffffff ffffffff     ................
   c8c10:	ffffffff ffffffff ffffffff ffffffff     ................
   c8c20:	ffffffff ffffffff ffffffff ffffffff     ................
   c8c30:	ffffffff ffffffff ffffffff ffffffff     ................
   c8c40:	ffffffff ffffffff ffffffff ffffffff     ................
   c8c50:	ffffffff ffffffff ffffffff ffffffff     ................
   c8c60:	ffffffff ffffffff ffffffff ffffffff     ................
   c8c70:	ffffffff ffffffff ffffffff ffffffff     ................
   c8c80:	ffffffff ffffffff ffffffff ffffffff     ................
   c8c90:	ffffffff ffffffff ffffffff ffffffff     ................
   c8ca0:	ffffffff ffffffff ffffffff ffffffff     ................
   c8cb0:	ffffffff ffffffff ffffffff ffffffff     ................
   c8cc0:	ffffffff ffffffff ffffffff ffffffff     ................
   c8cd0:	ffffffff ffffffff ffffffff ffffffff     ................
   c8ce0:	ffffffff ffffffff ffffffff ffffffff     ................
   c8cf0:	ffffffff ffffffff ffffffff ffffffff     ................
   c8d00:	ffffffff ffffffff ffffffff ffffffff     ................
   c8d10:	ffffffff ffffffff ffffffff ffffffff     ................
   c8d20:	ffffffff ffffffff ffffffff ffffffff     ................
   c8d30:	ffffffff ffffffff ffffffff ffffffff     ................
   c8d40:	ffffffff ffffffff ffffffff ffffffff     ................
   c8d50:	ffffffff ffffffff ffffffff ffffffff     ................
   c8d60:	ffffffff ffffffff ffffffff ffffffff     ................
   c8d70:	ffffffff ffffffff ffffffff ffffffff     ................
   c8d80:	ffffffff ffffffff ffffffff ffffffff     ................
   c8d90:	ffffffff ffffffff ffffffff ffffffff     ................
   c8da0:	ffffffff ffffffff ffffffff ffffffff     ................
   c8db0:	ffffffff ffffffff ffffffff ffffffff     ................
   c8dc0:	ffffffff ffffffff ffffffff ffffffff     ................
   c8dd0:	ffffffff ffffffff ffffffff ffffffff     ................
   c8de0:	ffffffff ffffffff ffffffff ffffffff     ................
   c8df0:	ffffffff ffffffff ffffffff ffffffff     ................
   c8e00:	ffffffff ffffffff ffffffff ffffffff     ................
   c8e10:	ffffffff ffffffff ffffffff ffffffff     ................
   c8e20:	ffffffff ffffffff ffffffff ffffffff     ................
   c8e30:	ffffffff ffffffff ffffffff ffffffff     ................
   c8e40:	ffffffff ffffffff ffffffff ffffffff     ................
   c8e50:	ffffffff ffffffff ffffffff ffffffff     ................
   c8e60:	ffffffff ffffffff ffffffff ffffffff     ................
   c8e70:	ffffffff ffffffff ffffffff ffffffff     ................
   c8e80:	ffffffff ffffffff ffffffff ffffffff     ................
   c8e90:	ffffffff ffffffff ffffffff ffffffff     ................
   c8ea0:	ffffffff ffffffff ffffffff ffffffff     ................
   c8eb0:	ffffffff ffffffff ffffffff ffffffff     ................
   c8ec0:	ffffffff ffffffff ffffffff ffffffff     ................
   c8ed0:	ffffffff ffffffff ffffffff ffffffff     ................
   c8ee0:	ffffffff ffffffff ffffffff ffffffff     ................
   c8ef0:	ffffffff ffffffff ffffffff ffffffff     ................
   c8f00:	ffffffff ffffffff ffffffff ffffffff     ................
   c8f10:	ffffffff ffffffff ffffffff ffffffff     ................
   c8f20:	ffffffff ffffffff ffffffff ffffffff     ................
   c8f30:	ffffffff ffffffff ffffffff ffffffff     ................
   c8f40:	ffffffff ffffffff ffffffff ffffffff     ................
   c8f50:	ffffffff ffffffff ffffffff ffffffff     ................
   c8f60:	ffffffff ffffffff ffffffff ffffffff     ................
   c8f70:	ffffffff ffffffff ffffffff ffffffff     ................
   c8f80:	ffffffff ffffffff ffffffff ffffffff     ................
   c8f90:	ffffffff ffffffff ffffffff ffffffff     ................
   c8fa0:	ffffffff ffffffff ffffffff ffffffff     ................
   c8fb0:	ffffffff ffffffff ffffffff ffffffff     ................
   c8fc0:	ffffffff ffffffff ffffffff ffffffff     ................
   c8fd0:	ffffffff ffffffff ffffffff ffffffff     ................
   c8fe0:	ffffffff ffffffff ffffffff ffffffff     ................
   c8ff0:	ffffffff ffffffff ffffffff ffffffff     ................
   c9000:	ffffffff ffffffff ffffffff ffffffff     ................
   c9010:	ffffffff ffffffff ffffffff ffffffff     ................
   c9020:	ffffffff ffffffff ffffffff ffffffff     ................
   c9030:	ffffffff ffffffff ffffffff ffffffff     ................
   c9040:	ffffffff ffffffff ffffffff ffffffff     ................
   c9050:	ffffffff ffffffff ffffffff ffffffff     ................
   c9060:	ffffffff ffffffff ffffffff ffffffff     ................
   c9070:	ffffffff ffffffff ffffffff ffffffff     ................
   c9080:	ffffffff ffffffff ffffffff ffffffff     ................
   c9090:	ffffffff ffffffff ffffffff ffffffff     ................
   c90a0:	ffffffff ffffffff ffffffff ffffffff     ................
   c90b0:	ffffffff ffffffff ffffffff ffffffff     ................
   c90c0:	ffffffff ffffffff ffffffff ffffffff     ................
   c90d0:	ffffffff ffffffff ffffffff ffffffff     ................
   c90e0:	ffffffff ffffffff ffffffff ffffffff     ................
   c90f0:	ffffffff ffffffff ffffffff ffffffff     ................
   c9100:	ffffffff ffffffff ffffffff ffffffff     ................
   c9110:	ffffffff ffffffff ffffffff ffffffff     ................
   c9120:	ffffffff ffffffff ffffffff ffffffff     ................
   c9130:	ffffffff ffffffff ffffffff ffffffff     ................
   c9140:	ffffffff ffffffff ffffffff ffffffff     ................
   c9150:	ffffffff ffffffff ffffffff ffffffff     ................
   c9160:	ffffffff ffffffff ffffffff ffffffff     ................
   c9170:	ffffffff ffffffff ffffffff ffffffff     ................
   c9180:	ffffffff ffffffff ffffffff ffffffff     ................
   c9190:	ffffffff ffffffff ffffffff ffffffff     ................
   c91a0:	ffffffff ffffffff ffffffff ffffffff     ................
   c91b0:	ffffffff ffffffff ffffffff ffffffff     ................
   c91c0:	ffffffff ffffffff ffffffff ffffffff     ................
   c91d0:	ffffffff ffffffff ffffffff ff00ffff     ................
   c91e0:	ffffffff ffffffff ffffffff ffffffff     ................
   c91f0:	ffffffff ffffffff ffffffff ffffffff     ................
   c9200:	ffffffff ffffffff ffffffff f8ffffff     ................
   c9210:	ffff0f00 ffffffff ffffffff ffffffff     ................
   c9220:	ffffffff ffffffff ffffffff ffffffff     ................
   c9230:	ffffffff ffffffff ffffffff ffffffff     ................
   c9240:	83fff1ff ffffffff ffffffff ffffffff     ................
   c9250:	ffffffff ffffffff ffffffff ffffffff     ................
   c9260:	ffffffff ffffffff ffffffff ffffffff     ................
   c9270:	e7ffffff fffff0ff ffffffff ffffffff     ................
   c9280:	ffffffff ffffffff ffffffff ffffffff     ................
   c9290:	ffffffff ffffffff ffffffff ffffffff     ................
   c92a0:	ffffffff d8ffdfff ffffff7f ffffffff     ................
   c92b0:	ffffffff ffffffff ffffffff ffffffff     ................
   c92c0:	ffffffff ffffffff ffffffff ffffffff     ................
   c92d0:	ffffffff 9fffffff ff1f1bf8 ffffffff     ................
   c92e0:	ffffffff ffffffff ffffffff ffffffff     ................
   c92f0:	ffffffff ffffffff ffffffff ffffffff     ................
   c9300:	ffffffff 7fffffff 0bf8bff3 ffffffcf     ................
   c9310:	ffffffff ffffffff ffffffff ffffffff     ................
   c9320:	ffffffff ffffffff ffffffff ffffffff     ................
   c9330:	ffffffff ffffffff 3f811ffe ffe7e3ff     ...........?....
   c9340:	ffffffff ffffffff ffffffff ffffffff     ................
   c9350:	ffffffff ffffffff ffffffff ffffffff     ................
   c9360:	ffffffff ffffffff cffeffff f3ff3f1c     .............?..
   c9370:	ffffffe3 ffffffff ffffffff ffffffff     ................
   c9380:	ffffffff ffffffff ffffffff ffffffff     ................
   c9390:	ffffffff ffffffff ffffffff 3f9ce0fe     ...............?
   c93a0:	ffcbfbff ffffffff ffffffff ffffffff     ................
   c93b0:	ffffffff ffffffff ffffffff ffffffff     ................
   c93c0:	ffffffff ffffffff ffffffff f0fcffff     ................
   c93d0:	f3ff1f9c ffffffd9 ffffffff ffffffff     ................
   c93e0:	ffffffff ffffffff ffffffff ffffffff     ................
   c93f0:	ffffffff ffffffff ffffffff ffffffff     ................
   c9400:	9fd9fe7e ff9cf7ff ffffff87 ffffffff     ~...............
   c9410:	ffffffff ffffffff ffffffff ffffffff     ................
   c9420:	ffffffff ffffffff ffffffff ffffffff     ................
   c9430:	3e3efeff e4ffcc59 ff23ff1c ffffffff     ..>>Y.....#.....
   c9440:	ffffffff ffffffff ffffffff ffffffff     ................
   c9450:	ffffffff ffffffff ffffffff ffffffff     ................
   c9460:	ffffffff cc191f7f fec6e0ff fffffff9     ................
   c9470:	ffffffff ffffffff ffffffff ffffffff     ................
   c9480:	ffffffff ffffffff ffffffff ffffffff     ................
   c9490:	ffffffff 1fffffff c7ffe419 fff97ee0     .............~..
   c94a0:	ffffffff ffffffff ffffffff ffffffff     ................
   c94b0:	ffffffff ffffffff ffffffff ffffffff     ................
   c94c0:	ffffffff ffffffff e4931fff 7fffcfff     ................
   c94d0:	fffffff9 ffffffff ffffffff ffffffff     ................
   c94e0:	ffffffff ffffffff ffffffff ffffffff     ................
   c94f0:	ffffffff ffffffff 2fffffff 9ffff493     .........../....
   c9500:	fff97dff ffffffff ffffffff ffffffff     .}..............
   c9510:	ffffffff ffffffff ffffffff ffffffff     ................
   c9520:	ffffffff ffffffff ffffffff f0c76ffe     .............o..
   c9530:	3dff3f3f fffffff9 ffffffff ffffffff     ??.=............
   c9540:	ffffffff ffffffff ffffffff ffffffff     ................
   c9550:	ffffffff ffffffff ffffffff 7fe0ffff     ................
   c9560:	7f7ef2c7 fdf93dff ffffffff ffffffff     ..~..=..........
   c9570:	ffffffff ffffffff ffffffff efffffff     ................
   c9580:	ffffffff ffffffff ffffffff ffffffff     ................
   c9590:	f0cf1f80 39fffffc fffff8f8 ffffffff     .......9........
   c95a0:	ffffffff ffffffff ffffffff ffffffff     ................
   c95b0:	ffffffff ffffffff ffffffff ffffffff     ................
   c95c0:	8f07feff fff9f1cf 78fc33ff ffffffff     .........3.x....
   c95d0:	ffffffff ffffffff ffffffff ffffffff     ................
   c95e0:	ffffffff ffffffff ffffffff ffffffff     ................
   c95f0:	f8ffffff f1e7e763 27fffff3 ffff1ffe     ....c......'....
   c9600:	ffffffff ffffffff ffffffff ffffffff     ................
   c9610:	ffffffff ffff7fff ffffffff ffffffff     ................
   c9620:	ffffffff f3f1f1ff fff7f3e7 ffff0fff     ................
   c9630:	ffffffff ffffffff ffffffff ffffffff     ................
   c9640:	ffffffff fffdffff ffffffff ffffffff     ................
   c9650:	ffffffff e7ffffff e3e3f9f9 3fffffe7     ...............?
   c9660:	fffdfff3 ffffffff ffffffff ffffffff     ................
   c9670:	ffffffff ffffffff ffffffff ffffffff     ................
   c9680:	ffffffff ffffffff fcfccfff ffc7e7e1     ................
   c9690:	fff37ffe fffffffd ffffffff ffffffff     ................
   c96a0:	ffffffff ffffffff fff7ffff ffffffff     ................
   c96b0:	ffffffff ffffffff dfffffff cf71fefc     ..............q.
   c96c0:	7ff8ffcf fffdf3f7 ffffffff ffffffff     ................
   c96d0:	ffffffff ffffffff ffffffff ffffffef     ................
   c96e0:	ffffffff ffffffff ffffffff fffe9fff     ................
   c96f0:	fccf9f70 f7ffff00 ffffffff ff87ffff     p...............
   c9700:	ffffffff 07fcffff ffffffff ffffffff     ................
   c9710:	ffffffff ffffffff ffffffff 9fffffff     ................
   c9720:	3f327ffe ff05e08f ffffffff feffffff     ..2?............
   c9730:	ffffff10 c0ffffff ffff0300 ffffffff     ................
   c9740:	ffffffbf ffffffff ffffffff ffffffff     ................
   c9750:	7ffe3fff 808f7f38 ffffff19 ffffffff     .?..8...........
   c9760:	3ffef9ff ffffffff 190000c0 ffffffff     ...?............
   c9770:	ff7fffff ffffffff ffffffff ffffffff     ................
   c9780:	3fffffff 7fbc3fff fff3038f fff3ffff     ...?.?..........
   c9790:	e7ffffff ffff8fff e000fcff ff7f0c00     ................
   c97a0:	ffffffff ffffffff ffffffff ffffffff     ................
   c97b0:	ffffffff 3fff3fff 038e7f9c ffffffc7     .....?.?........
   c97c0:	fffffff3 e7ff1fff f1ffffff 04e0ff3f     ............?...
   c97d0:	ffffff7f ffffffff ffffffff ffffffff     ................
   c97e0:	ffffffff 3fffffff 3f8d9fff ff1f078c     .......?...?....
   c97f0:	fff7ffff 7ffcffff fffff3ff ff7fc6ff     ................
   c9800:	ff7f42f8 ffffffff ffffffff ffffffff     .B..............
   c9810:	ffffffff ffffffff 8fff7fff 1c849fc1     ................
   c9820:	ff00fe7f ffffffff fd00fff3 9dffffff     ................
   c9830:	22feffff ffffffff ffffffff ffffffff     ..."............
   c9840:	ffffffff ffffffff 7fffffff 9fc1cff7     ................
   c9850:	fcff1884 ff030000 f8cfffff ffff1c0c     ................
   c9860:	ffff3bff ffff10fe ffffffff ffffffff     .;..............
   c9870:	ffffffff ffffffff ffffffff e3e37ffe     ................
   c9880:	13008fc0 00fff0ff fcff4700 c6ffe17f     .........G......
   c9890:	77fcff7f 18ffffff ffffffff ffffffff     ...w............
   c98a0:	ffffffff ffffffff ffffffff 3ffeffff     ...............?
   c98b0:	ce00f0e3 e1ff2700 03f8e3ff c7ff83ff     .....'..........
   c98c0:	ff3ff1ff ffffe7f9 ffff88ff ffffffff     ..?.............
   c98d0:	ffffffff ffffffff ffffffff ffffffff     ................
   c98e0:	fcff3ffe 27004c00 f0ff07ff 1f000000     .?...L.'........
   c98f0:	fcff9fff 8fe3ff1f 88ffffff ffffffff     ................
   c9900:	ffffffff ffffffff ffffffff ffffffff     ................
   c9910:	1ffeffff 0001ffff 0ffc6700 fc07f8ff     .........g......
   c9920:	7ffef901 ff0fffff ffff3f07 ffff80f9     .........?......
   c9930:	ffffffff ffffffff ffffffff ffffffff     ................
   c9940:	ffffffff ffff4ffe 007080c1 fcdf3f00     .....O....p..?..
   c9950:	f8ffffff fffffffc 7f3c40c0 c0fdffff     .........@<.....
   c9960:	ffffffff ffffffff ffffffff ffffffff     ................
   c9970:	ffffffff 27feffff c0c1ffff ff000008     .......'........
   c9980:	ff7ffe9f fff9fdff 00f8ffff ffffff81     ................
   c9990:	ffffe0ff ffffffff ffffffff ffffffff     ................
   c99a0:	ffffffff ffffffff ffff33fe 3800e0c0     .........3.....8
   c99b0:	febfff00 ffffff7f fffffff3 ff3fc0ff     ..............?.
   c99c0:	e0ffffff ffffffff ffffffff ffffffff     ................
   c99d0:	ffffffff ffffffff 1dfeffff 70e0ffff     ...............p
   c99e0:	7f001804 ff7fffff ffe7ffff ffffffff     ................
   c99f0:	ffffffff fffff0ff ffffffff ffffffff     ................
   c9a00:	ffffffff ffffffff ffffffff ff7f0efe     ................
   c9a10:	080400e0 ffff3f18 ffffff7f ffffffcf     .....?..........
   c9a20:	ffffffff fcffffff ffffff7f ffffffff     ................
   c9a30:	ffffffff ffffffff ffffffff 47feffff     ...............G
   c9a40:	00f0ff1f 3f8e0804 ff3fffff ff9fffff     .......?..?.....
   c9a50:	ffffffff ffffffff 8f07feff ffffffff     ................
   c9a60:	ffffffff ffffffff ffffffff ffffffff     ................
   c9a70:	ffc761ff 000c00fc ffff3f86 ffffff3f     .a.......?..?...
   c9a80:	ffffffbf ffffffff ffffffff ffffff01     ................
   c9a90:	ffffffff ffffffff ffffffff ffffffff     ................
   c9aa0:	30ffffff 82fffff1 3f870018 ffbfffff     ...0.......?....
   c9ab0:	ff3fffff ffffffff ffffffff ff8fffff     ..?.............
   c9ac0:	fffffffd ffffffff ffffffff ffffffff     ................
   c9ad0:	ffffffff c11c38ff 01f0f1ff ffff3fc7     .....8.......?..
   c9ae0:	feffff9f ffffff7f ffffffff ffffffff     ................
   c9af0:	fff3ffe3 ffffffff ffffffff ffffffff     ................
   c9b00:	ffffffff 3effffff 007f0400 3fc30301     .......>.......?
   c9b10:	ff8fffff fffffeff ffffffff ffffffff     ................
   c9b20:	7ff8ffff ffffffdf ffffffff ffffffff     ................
   c9b30:	ffffffff ffffffff 8387bfff 21000000     ...............!
   c9b40:	ffff9fc3 fdffff8f ffffffff ffffffff     ................
   c9b50:	ffffffff ffff03fe ffffffff ffffffff     ................
   c9b60:	ffffffff ffffffff 9fffffff 00e6f1ff     ................
   c9b70:	9fc361c2 ff9fffff fffff9ff ffffffff     .a..............
   c9b80:	ffffffff ffffffff ffffffff ffffffff     ................
   c9b90:	ffffffff ffffffff ffffffff f0ffdfff     ................
   c9ba0:	61820078 ffff9fe1 f3ffff9f ffffffff     x..a............
   c9bb0:	ffffffff ffffffff ffffffff ffffffff     ................
   c9bc0:	ffffffff ffffffff ffffffff ffffffff     ................
   c9bd0:	0100e0cf ffe16106 ff9fffff ffffe7ff     .....a..........
   c9be0:	ffffffff ffffffff ffffffff ffffffff     ................
   c9bf0:	ffffffff ffffffff ffffffff ffffffff     ................
   c9c00:	e4cf3fff 40000100 fffffff0 cfffff1f     .?.....@........
   c9c10:	ffffffff ffffffff ffffffff ffffffff     ................
   c9c20:	ffffffff ffffffff ffffffff ffffffff     ................
   c9c30:	79ffffff 0104feff 7fd04180 ff1fffff     ...y.....A......
   c9c40:	ffff1fff ffffffff ffffffff ffffffff     ................
   c9c50:	ffffffff ffffffff ffffffff ffffffff     ................
   c9c60:	ffffffff f87ffcff 40801300 ffff3f88     ...........@.?..
   c9c70:	3ff8ff4f ffffffff ffffffff ffffffff     O..?............
   c9c80:	ffffffff ffffffff ffffffff ffffffff     ................
   c9c90:	ffffffff ffffffff e723e00f 0f8c00c2     ..........#.....
   c9ca0:	ff4fffff fffffff8 ffffffff ffffffff     ..O.............
   c9cb0:	ffffffff ffffffff ffffffff ffffffff     ................
   c9cc0:	ffffffff ffffffff 0680ffff 00e38f4f     ............O...
   c9cd0:	feff03fe ffe1ff47 ffffffff ffffffff     ....G...........
   c9ce0:	ffffffff ffffffff ffffffff ffffffff     ................
   c9cf0:	ffffffff ffffffff ffffffff 3f9c7cfc     .............|.?
   c9d00:	80ff00f3 fc13feff ffffff07 ffffffff     ................
   c9d10:	ffffffff ffffffff ffffffff ffffffff     ................
   c9d20:	ffffffff ffffffff ffffffff f9ffffff     ................
   c9d30:	80f1ffb1 fc3fc07f ff3f0000 ffffffff     ......?...?.....
   c9d40:	ffffffff ffffffff ffffffff ffffffff     ................
   c9d50:	ffffffff ffffffff ffffffff ffffffff     ................
   c9d60:	ff07f1ff f07fc0f9 0300fc0f ffffffff     ................
   c9d70:	ffffffff ffffffff ffffffff ffffffff     ................
   c9d80:	ffffffff ffffffff ffffffff ffffffff     ................
   c9d90:	f3ffffff e0f9ff1f f001fe3f ffff7f00     ........?.......
   c9da0:	ffffffff ffffffff ffffffff ffffffff     ................
   c9db0:	ffffffff ffffffff ffffffff ffffffff     ................
   c9dc0:	ffffffff ff3fe3ff ff3ff0fc ff3f0000     ......?...?...?.
   c9dd0:	ffffffff ffffffff ffffffff ffffffff     ................
   c9de0:	ffffffff ffffffff ffffffff ffffffff     ................
   c9df0:	ffffffff e7ffffff 78fcff3f 01c0ff1f     ........?..x....
   c9e00:	ffffffff ffffffff ffffffff ffffffff     ................
   c9e10:	ffffffff ffffffff ffffffff ffffffff     ................
   c9e20:	ffffffff ffffffff ff3fc6ff ff1f7efc     ..........?..~..
   c9e30:	ffff03f0 ffffffff ffffffff ffffffff     ................
   c9e40:	ffffffff ffffffff ffffffff ffffffff     ................
   c9e50:	ffffffff ffffffff c6ffffff 3ffcff3f     ............?..?
   c9e60:	07f8ff8f ffffffff ffffffff ffffffff     ................
   c9e70:	ffffffff ffffffff ffffffff ffffffff     ................
   c9e80:	ffffffff ffffffff ffffffff ff3fceff     ..............?.
   c9e90:	ffc79ffc ffff0ffc ffffffff ffffffff     ................
   c9ea0:	ffffffff ffffffff ffffffff ffffffff     ................
   c9eb0:	ffffffff ffffffff ffffffff ccffffff     ................
   c9ec0:	9ffcff9f 1ffeffe7 ffffffff ffffffff     ................
   c9ed0:	ffffffff ffffffff ffffffff ffffffff     ................
   c9ee0:	ffffffff ffffffff ffffffff ffffffff     ................
   c9ef0:	ffcfc8ff ffe09ffd ffff3ffe ffffffff     .........?......
   c9f00:	ffffffff ffffffff ffffffff ffffffff     ................
   c9f10:	ffffffff ffffffff ffffffff ffffffff     ................
   c9f20:	c0ffffff df79fce7 3ffe7ff0 ffffffff     ......y....?....
   c9f30:	ffffffff ffffffff ffffffff ffffffff     ................
   c9f40:	ffffffff ffffffff ffffffff ffffffff     ................
   c9f50:	ffffffff f0f0c1ff 7ff0df73 ffff7ffc     ........s.......
   c9f60:	ffffffff ffffffff ffffffff ffffffff     ................
   c9f70:	ffffffff ffffffff ffffffff ffffffff     ................
   c9f80:	ffffffff c1ffffff df0703fc fff8fff0     ................
   c9f90:	ffffffff ffffffff ffffffff ffffffff     ................
   c9fa0:	ffffffff ffffffff ffffffff ffffffff     ................
   c9fb0:	ffffffff ffffffff ffffc1ff 3ff2dfdf     ...............?
   c9fc0:	ffffffe3 ffffffff ffffffff ffffffff     ................
   c9fd0:	ffffffff ffffffff ffffffff ffffffff     ................
   c9fe0:	ffffffff ffffffff c1ffffff dfffffff     ................
   c9ff0:	ff070ff3 ffffffff ffffffff ffffffff     ................
   ca000:	ffffffff ffffffff ffffffff ffffffff     ................
   ca010:	ffffffff ffffffff ffffffff ffffc1ff     ................
   ca020:	80f3dfff ffffff1f ffffffff ffffffff     ................
   ca030:	ffffffff ffffffff ffffffff ffffffff     ................
   ca040:	ffffffff ffffffff ffffffff c1ffffff     ................
   ca050:	9fffffff ffffe0f3 ffffffff ffffffff     ................
   ca060:	ffffffff ffffffff ffffffff ffffffff     ................
   ca070:	ffffffff ffffffff ffffffff ffffffff     ................
   ca080:	ffffe1ff fff39fff ffffffff ffffffff     ................
   ca090:	ffffffff ffffffff ffffffff ffffffff     ................
   ca0a0:	ffffffff ffffffff ffffffff ffffffff     ................
   ca0b0:	e1ffffff 9fffffff fffffff3 ffffffff     ................
   ca0c0:	ffffffff ffffffff ffffffff ffffffff     ................
   ca0d0:	ffffffff ffffffff ffffffff ffffffff     ................
   ca0e0:	ffffffff ffffe1ff fff39fff ffffffff     ................
   ca0f0:	ffffffff ffffffff ffffffff ffffffff     ................
   ca100:	ffffffff ffffffff ffffffff ffffffff     ................
   ca110:	ffffffff f1ffffff 9fff7ffe fffffff3     ................
   ca120:	ffffffff ffffffff ffffffff ffffffff     ................
   ca130:	ffffffff ffffffff ffffffff ffffffff     ................
   ca140:	ffffffff ffffffff 7ffff0ff ffe78fff     ................
   ca150:	ffffffff ffffffff ffffffff ffffffff     ................
   ca160:	ffffffff ffffffff ffffffff ffffffff     ................
   ca170:	ffffffff ffffffff f0ffffff 8fffff3f     ............?...
   ca180:	ffffffe7 ffffffff ffffffff ffffffff     ................
   ca190:	ffffffff ffffffff ffffffff ffffffff     ................
   ca1a0:	ffffffff ffffffff ffffffff 800ff9ff     ................
   ca1b0:	ffcf8f0f ffffffff ffffffff ffffffff     ................
   ca1c0:	ffffffff ffffffff ffffffff ffffffff     ................
   ca1d0:	ffffffff ffffffff ffffffff f8ffffff     ................
   ca1e0:	870100c0 ffffffcf ffffffff ffffffff     ................
   ca1f0:	ffffffff ffffffff ffffffff ffffffff     ................
   ca200:	ffffffff ffffffff ffffffff ffffffff     ................
   ca210:	3ff8fcff ff9f17e0 ffffffff ffffffff     ...?............
   ca220:	ffffffff ffffffff ffffffff ffffffff     ................
   ca230:	ffffffff ffffffff ffffffff ffffffff     ................
   ca240:	fcffffff 12fcffff ffffff3f ffffffff     ........?.......
   ca250:	ffffffff ffffffff ffffffff ffffffff     ................
   ca260:	ffffffff ffffffff ffffffff ffffffff     ................
   ca270:	ffffffff ff7ffeff ff7f00fe ffffffff     ................
   ca280:	ffffffff ffffffff ffffffff ffffffff     ................
   ca290:	ffffffff ffffffff ffffffff ffffffff     ................
   ca2a0:	ffffffff feffffff 81ffff7f ffffffff     ................
   ca2b0:	ffffffff ffffffff ffffffff ffffffff     ................
   ca2c0:	ffffffff ffffffff ffffffff ffffffff     ................
   ca2d0:	ffffffff ffffffff ff1fffff ffffffff     ................
   ca2e0:	ffffffff ffffffff ffffffff ffffffff     ................
   ca2f0:	ffffffff ffffffff ffffffff ffffffff     ................
   ca300:	ffffffff ffffffff ffffffff ffffff87     ................
   ca310:	ffffffff ffffffff ffffffff ffffffff     ................
   ca320:	ffffffff ffffffff ffffffff ffffffff     ................
   ca330:	ffffffff ffffffff ffffffff ffc1ffff     ................
   ca340:	ffffffff ffffffff ffffffff ffffffff     ................
   ca350:	ffffffff ffffffff ffffffff ffffffff     ................
   ca360:	ffffffff ffffffff ffffffff ffffffff     ................
   ca370:	fffffff0 ffffffff ffffffff ffffffff     ................
   ca380:	ffffffff ffffffff ffffffff ffffffff     ................
   ca390:	ffffffff ffffffff ffffffff ffffffff     ................
   ca3a0:	7ffcffff ffffffff ffffffff ffffffff     ................
   ca3b0:	ffffffff ffffffff ffffffff ffffffff     ................
   ca3c0:	ffffffff ffffffff ffffffff ffffffff     ................
   ca3d0:	ffffffff ffff7ffe ffffffff ffffffff     ................
   ca3e0:	ffffffff ffffffff ffffffff ffffffff     ................
   ca3f0:	ffffffff ffffffff ffffffff ffffffff     ................
   ca400:	ffffffff 3ffeffff ffffffff ffffff1f     .......?........
   ca410:	ffffffff ffffffff ffffffff ffffffff     ................
   ca420:	ffffffff ffffffff ffffffff ffffffff     ................
   ca430:	ffffffff ffffffff ffff3fff ff0ffcff     .........?......
   ca440:	ffffffff ffffffff ffffffff ffffffff     ................
   ca450:	ffffffff ffffffff ffffffff ffffffff     ................
   ca460:	ffffffff ffffffff bfffffff f8ffffff     ................
   ca470:	ffffff07 ffffffff ffffffff ffffffff     ................
   ca480:	ffffffff ffffffff ffffffff ffffffff     ................
   ca490:	ffffffff ffffffff ffffffff ffff9fff     ................
   ca4a0:	ffc3f1ff ffffffff ffffffff ffffffff     ................
   ca4b0:	ffffffff ffffffff ffffffff ffffffff     ................
   ca4c0:	ffffffff ffffffff ffffffff 9fffffff     ................
   ca4d0:	f3ffffff ffffffe3 ffffffff ffffffff     ................
   ca4e0:	ffffffff ffffffff ffffffff ffffffff     ................
   ca4f0:	ffffffff ffffffff ffffffff ffffffff     ................
   ca500:	ffffdfff ffe3f3ff ffffffff ffffffff     ................
   ca510:	ffffffff ffffffff ffffffff ffffffff     ................
   ca520:	ffffffff ffffffff ffffffff ffffffff     ................
   ca530:	dfffffff e4ffffff ffffff73 ffffffff     ........s.......
   ca540:	ffffffff ffffffff ffffffff ffffffff     ................
   ca550:	ffffffff ffffffff ffffffff ffffffff     ................
   ca560:	ffffffff ffffdfff ff33e0ff ffffffff     ..........3.....
   ca570:	ffffffff ffffffff ffffffff ffffffff     ................
   ca580:	ffffffff ffffffff ffffffff ffffffff     ................
   ca590:	ffffffff dfffffff c0ffffff ffffff13     ................
   ca5a0:	ffffffff ffffffff ffffffff ffffffff     ................
   ca5b0:	ffffffff ffffffff ffffffff ffffffff     ................
   ca5c0:	ffffffff ffffffff ffffcfff ff0387ff     ................
   ca5d0:	ffffffff ffffffff ffffffff ffffffff     ................
   ca5e0:	ffffffff ffffffff ffffffff ffffffff     ................
   ca5f0:	ffffffff ffffffff efffffff 1fffffff     ................
   ca600:	ffffff83 ffffffff ffffffff ffffffff     ................
   ca610:	ffffffff ffffffff ffffffff ffffffff     ................
   ca620:	ffffffff ffffffff ffffffff ffffe7ff     ................
   ca630:	ffc33ffe ffffffff ffffffff ffffffff     .?..............
   ca640:	ffffffff ffffffff ffffffff ffffffff     ................
   ca650:	ffffffff ffffffff ffffffff f7ffffff     ................
   ca660:	7ffcffff ffffffc7 ffffffff ffffffff     ................
   ca670:	ffffffff ffffffff ffffffff ffffffff     ................
   ca680:	ffffffff ffffffff ffffffff ffffffff     ................
   ca690:	fffffbff ffe7fff9 ffffffff ffffffff     ................
   ca6a0:	ffffffff ffffffff ffffffff ffffffff     ................
   ca6b0:	ffffffff ffffffff ffffffff ffffffff     ................
   ca6c0:	f9ffffff ffe3ffff ffffffe3 ffffffff     ................
   ca6d0:	ffffffff ffffffff ffffffff ffffffff     ................
   ca6e0:	ffffffff ffffffff ffffffff ffffffff     ................
   ca6f0:	ffffffff ff7ffcff ffe3ffcf ffffffff     ................
   ca700:	ffffffff ffffffff ffffffff ffffffff     ................
   ca710:	ffffffff ffffffff ffffffff ffffffff     ................
   ca720:	ffffffff ffffffff ff1fff1f fffffff3     ................
   ca730:	ffffffff ffffffff ffffffff ffffffff     ................
   ca740:	ffffffff ffffffff ffffffff ffffffff     ................
   ca750:	ffffffff ffffffff fcc7ffff fff3ff7f     ................
   ca760:	ffffffff ffffffff ffffffff ffffffff     ................
   ca770:	ffffffff ffffffff ffffffff ffffffff     ................
   ca780:	ffffffff ffffffff ffffffff ffff01f0     ................
   ca790:	fffffff3 ffffffff ffffffff ffffffff     ................
   ca7a0:	ffffffff ffffffff ffffffff ffffffff     ................
   ca7b0:	ffffffff ffffffff ffffffff efffffff     ................
   ca7c0:	fff9ffff ffffffff ffffffff ffffffff     ................
   ca7d0:	ffffffff ffffffff ffffffff ffffffff     ................
   ca7e0:	ffffffff ffffffff ffffffff ffffffff     ................
   ca7f0:	ffffffff fffffffc ffffffff ffffffff     ................
   ca800:	ffffffff ffffffff ffffffff ffffffff     ................
   ca810:	ffffffff ffffffff ffffffff ffffffff     ................
   ca820:	ffffffff fffeffff ffffffff ffffffff     ................
   ca830:	ffffffff ffffffff ffffffff ffffffff     ................
   ca840:	ffffffff ffffffff ffffffff ffffffff     ................
   ca850:	ffffffff ffffffff ffff3ffe ffffffff     .........?......
   ca860:	ffffffff ffffffff ffffffff ffffffff     ................
   ca870:	ffffffff ffffffff ffffffff ffffffff     ................
   ca880:	ffffffff ffffffff 87ffffff ffffffff     ................
   ca890:	ffffffff ffffffff ffffffff ffffffff     ................
   ca8a0:	ffffffff ffffffff ffffffff ffffffff     ................
   ca8b0:	ffffffff ffffffff ffffffff ffc1f0ff     ................
   ca8c0:	ffffffff ffffffff ffffffff ffffffff     ................
   ca8d0:	ffffffff ffffffff ffffffff ffffffff     ................
   ca8e0:	ffffffff ffffffff ffffffff ffffffff     ................
   ca8f0:	ffffffe1 ffffffff ffffffff ffffffff     ................
   ca900:	ffffffff ffffffff ffffffff ffffffff     ................
   ca910:	ffffffff ffffffff ffffffff ffffffff     ................
   ca920:	ffffffff ffffffff ffffffff ffffffff     ................
   ca930:	ffffffff ffffffff ffffffff ffffffff     ................
   ca940:	ffffffff ffffffff ffffffff ffffffff     ................
   ca950:	ffffffff ffffffff ffffffff ffffffff     ................
   ca960:	ffffffff ffffffff ffffffff ffffffff     ................
   ca970:	ffffffff ffffffff ffffffff ffffffff     ................
   ca980:	ffffffff ffffffff ffffffff ffffffff     ................
   ca990:	ffffffff ffffffff ffffffff ffffffff     ................
   ca9a0:	ffffffff ffffffff ffffffff ffffffff     ................
   ca9b0:	ffffffff ffffffff ffffffff ffffffff     ................
   ca9c0:	ffffffff ffffffff ffffffff ffffffff     ................
   ca9d0:	ffffffff ffffffff ffffffff ffffffff     ................
   ca9e0:	ffffffff ffffffff ffffffff ffffffff     ................
   ca9f0:	ffffffff ffffffff ffffffff ffffffff     ................
   caa00:	ffffffff ffffffff ffffffff ffffffff     ................
   caa10:	ffffffff ffffffff ffffffff ffffffff     ................
   caa20:	ffffffff ffffffff ffffffff ffffffff     ................
   caa30:	ffffffff ffffffff ffffffff ffffffff     ................
   caa40:	ffffffff ffffffff ffffffff ffffffff     ................
   caa50:	ffffffff ffffffff ffffffff ffffffff     ................
   caa60:	ffffffff ffffffff ffffffff ffffffff     ................
   caa70:	ffffffff ffffffff ffffffff ffffffff     ................
   caa80:	ffffffff ffffffff ffffffff ffffffff     ................
   caa90:	ffffffff ffffffff ffffffff ffffffff     ................
   caaa0:	ffffffff ffffffff ffffffff ffffffff     ................
   caab0:	ffffffff ffffffff ffffffff ffffffff     ................
   caac0:	ffffffff ffffffff ffffffff ffffffff     ................
   caad0:	ffffffff ffffffff ffffffff ffffffff     ................
   caae0:	ffffffff ffffffff ffffffff ffffffff     ................
   caaf0:	ffffffff ffffffff ffffffff ffffffff     ................
   cab00:	ffffffff ffffffff ffffffff ffffffff     ................
   cab10:	ffffffff ffffffff ffffffff ffffffff     ................
   cab20:	ffffffff ffffffff ffffffff ffffffff     ................
   cab30:	ffffffff ffffffff ffffffff ffffffff     ................
   cab40:	ffffffff ffffffff ffffffff ffffffff     ................
   cab50:	ffffffff ffffffff ffffffff ffffffff     ................
   cab60:	ffffffff ffffffff ffffffff ffffffff     ................
   cab70:	ffffffff ffffffff ffffffff ffffffff     ................
   cab80:	ffffffff ffffffff ffffffff ffffffff     ................
   cab90:	ffffffff ffffffff ffffffff ffffffff     ................
   caba0:	ffffffff ffffffff ffffffff ffffffff     ................
   cabb0:	ffffffff ffffffff ffffffff ffffffff     ................
   cabc0:	ffffffff ffffffff ffffffff ffffffff     ................
   cabd0:	ffffffff ffffffff ffffffff ffffffff     ................
   cabe0:	ffffffff ffffffff ffffffff ffffffff     ................
   cabf0:	ffffffff ffffffff ffffffff ffffffff     ................
   cac00:	ffffffff ffffffff ffffffff ffffffff     ................
   cac10:	ffffffff ffffffff ffffffff ffffffff     ................
   cac20:	ffffffff ffffffff ffffffff ffffffff     ................
   cac30:	ffffffff ffffffff ffffffff ffffffff     ................
   cac40:	ffffffff ffffffff ffffffff ffffffff     ................
   cac50:	ffffffff ffffffff ffffffff ffffffff     ................
   cac60:	ffffffff ffffffff ffffffff ffffffff     ................
   cac70:	ffffffff ffffffff ffffffff ffffffff     ................
   cac80:	ffffffff ffffffff ffffffff ffffffff     ................
   cac90:	ffffffff ffffffff ffffffff ffffffff     ................
   caca0:	ffffffff ffffffff ffffffff ffffffff     ................
   cacb0:	ffffffff ffffffff ffffffff ffffffff     ................
   cacc0:	ffffffff ffffffff ffffffff ffffffff     ................
   cacd0:	ffffffff ffffffff ffffffff ffffffff     ................
   cace0:	ffffffff ffffffff ffffffff ffffffff     ................
   cacf0:	ffffffff ffffffff ffffffff ffffffff     ................
   cad00:	ffffffff ffffffff ffffffff ffffffff     ................
   cad10:	ffffffff ffffffff ffffffff ffffffff     ................
   cad20:	ffffffff ffffffff ffffffff ffffffff     ................
   cad30:	ffffffff ffffffff ffffffff ffffffff     ................
   cad40:	ffffffff ffffffff ffffffff ffffffff     ................
   cad50:	ffffffff ffffffff ffffffff ffffffff     ................
   cad60:	ffffffff ffffffff ffffffff ffffffff     ................
   cad70:	ffffffff ffffffff ffffffff ffffffff     ................
   cad80:	ffffffff ffffffff ffffffff ffffffff     ................
   cad90:	ffffffff ffffffff ffffffff ffffffff     ................
   cada0:	ffffffff ffffffff ffffffff ffffffff     ................
   cadb0:	ffffffff ffffffff ffffffff ffffffff     ................
   cadc0:	ffffffff ffffffff ffffffff ffffffff     ................
   cadd0:	ffffffff ffffffff ffffffff ffffffff     ................
   cade0:	ffffffff ffffffff ffffffff ffffffff     ................
   cadf0:	ffffffff ffffffff ffffffff ffffffff     ................
   cae00:	ffffffff ffffffff ffffffff ffffffff     ................
   cae10:	ffffffff ffffffff ffffffff ffffffff     ................
   cae20:	ffffffff ffffffff ffffffff ffffffff     ................
   cae30:	ffffffff ffffffff ffffffff ffffffff     ................
   cae40:	ffffffff ffffffff ffffffff ffffffff     ................
   cae50:	ffffffff ffffffff ffffffff ffffffff     ................
   cae60:	ffffffff ffffffff ffffffff ffffffff     ................
   cae70:	ffffffff ffffffff ffffffff ffffffff     ................
   cae80:	ffffffff ffffffff ffffffff ffffffff     ................
   cae90:	ffffffff ffffffff ffffffff ffffffff     ................
   caea0:	ffffffff ffffffff ffffffff ffffffff     ................
   caeb0:	ffffffff ffffffff ffffffff ffffffff     ................
   caec0:	ffffffff ffffffff ffffffff ffffffff     ................
   caed0:	ffffffff ffffffff ffffffff ffffffff     ................
   caee0:	ffffffff ffffffff ffffffff ffffffff     ................
   caef0:	ffffffff ffffffff ffffffff ffffffff     ................
   caf00:	ffffffff ffffffff ffffffff ffffffff     ................
   caf10:	ffffffff ffffffff ffffffff ffffffff     ................
   caf20:	ffffffff ffffffff ffffffff ffffffff     ................
   caf30:	ffffffff ffffffff ffffffff ffffffff     ................
   caf40:	ffffffff ffffffff ffffffff ffffffff     ................
   caf50:	ffffffff ffffffff ffffffff ffffffff     ................
   caf60:	ffffffff ffffffff ffffffff ffffffff     ................
   caf70:	ffffffff ffffffff ffffffff ffffffff     ................
   caf80:	ffffffff ffffffff ffffffff ffffffff     ................
   caf90:	ffffffff ffffffff ffffffff ffffffff     ................
   cafa0:	ffffffff ffffffff ffffffff ffffffff     ................
   cafb0:	ffffffff ffffffff ffffffff ffffffff     ................
   cafc0:	ffffffff ffffffff ffffffff ffffffff     ................
   cafd0:	ffffffff ffffffff ffffffff ffffffff     ................
   cafe0:	ffffffff ffffffff ffffffff ffffffff     ................
   caff0:	ffffffff ffffffff ffffffff ffffffff     ................
   cb000:	ffffffff ffffffff ffffffff ffffffff     ................
   cb010:	ffffffff ffffffff ffffffff ffffffff     ................
   cb020:	ffffffff ffffffff ffffffff ffffffff     ................
   cb030:	ffffffff ffffffff ffffffff ffffffff     ................
   cb040:	ffffffff ffffffff ffffffff ffffffff     ................
   cb050:	ffffffff ffffffff ffffffff ffffffff     ................
   cb060:	ffffffff ffffffff ffffffff ffffffff     ................
   cb070:	ffffffff ffffffff ffffffff ffffffff     ................
   cb080:	ffffffff ffffffff ffffffff ffffffff     ................
   cb090:	ffffffff ffffffff ffffffff ffffffff     ................
   cb0a0:	ffffffff ffffffff ffffffff ffffffff     ................
   cb0b0:	ffffffff ffffffff ffffffff ffffffff     ................
   cb0c0:	ffffffff ffffffff ffffffff ffffffff     ................
   cb0d0:	ffffffff ffffffff ffffffff ffffffff     ................
   cb0e0:	ffffffff ffffffff ffffffff ffffffff     ................
   cb0f0:	ffffffff ffffffff ffffffff ffffffff     ................
   cb100:	ffffffff ffffffff ffffffff ffffffff     ................
   cb110:	ffffffff ffffffff ffffffff ffffffff     ................
   cb120:	ffffffff ffffffff ffffffff ffffffff     ................
   cb130:	ffffffff ffffffff ffffffff ffffffff     ................
   cb140:	ffffffff ffffffff ffffffff ffffffff     ................
   cb150:	ffffffff ffffffff ffffffff ffffffff     ................
   cb160:	ffffffff ffffffff ffffffff ffffffff     ................
   cb170:	ffffffff ffffffff ffffffff ffffffff     ................
   cb180:	ffffffff ffffffff ffffffff ffffffff     ................
   cb190:	ffffffff ffffffff ffffffff ffffffff     ................
   cb1a0:	ffffffff ffffffff ffffffff ffffffff     ................
   cb1b0:	ffffffff ffffffff ffffffff ffffffff     ................
   cb1c0:	ffffffff ffffffff ffffffff ffffffff     ................
   cb1d0:	ffffffff ffffffff ffffffff ffffffff     ................
   cb1e0:	ffffffff ffffffff ffffffff ffffffff     ................
   cb1f0:	ffffffff ffffffff ffffffff ffffffff     ................
   cb200:	ffffffff ffffffff ffffffff ffffffff     ................
   cb210:	ffffffff ffffffff ffffffff ffffffff     ................
   cb220:	ffffffff ffffffff ffffffff ffffffff     ................
   cb230:	ffffffff ffffffff ffffffff ffffffff     ................
   cb240:	ffffffff ffffffff ffffffff ffffffff     ................
   cb250:	ffffffff ffffffff ffffffff ffffffff     ................
   cb260:	ffffffff ffffffff ffffffff ffffffff     ................
   cb270:	ffffffff ffffffff ffffffff ffffffff     ................
   cb280:	ffffffff ffffffff ffffffff ffffffff     ................
   cb290:	ffffffff ffffffff ffffffff ffffffff     ................
   cb2a0:	ffffffff ffffffff ffffffff ffffffff     ................
   cb2b0:	ffffffff ffffffff ffffffff ffffffff     ................
   cb2c0:	ffffffff ffffffff ffffffff ffffffff     ................
   cb2d0:	ffffffff ffffffff ffffffff ffffffff     ................
   cb2e0:	ffffffff ffffffff ffffffff ffffffff     ................
   cb2f0:	ffffffff ffffffff ffffffff ffffffff     ................
   cb300:	ffffffff ffffffff ffffffff ffffffff     ................
   cb310:	ffffffff ffffffff ffffffff ffffffff     ................
   cb320:	ffffffff ffffffff ffffffff ffffffff     ................
   cb330:	ffffffff ffffffff ffffffff ffffffff     ................
   cb340:	ffffffff ffffffff ffffffff ffffffff     ................
   cb350:	ffffffff ffffffff ffffffff ffffffff     ................
   cb360:	ffffffff ffffffff ffffffff ffffffff     ................
   cb370:	ffffffff ffffffff ffffffff ffffffff     ................
   cb380:	ffffffff ffffffff ffffffff ffffffff     ................
   cb390:	ffffffff ffffffff ffffffff ffffffff     ................
   cb3a0:	ffffffff ffffffff ffffffff ffffffff     ................
   cb3b0:	ffffffff ffffffff ffffffff ffffffff     ................
   cb3c0:	ffffffff ffffffff ffffffff ffffffff     ................
   cb3d0:	ffffffff ffffffff ffffffff ffffffff     ................
   cb3e0:	ffffffff ffffffff ffffffff ffffffff     ................
   cb3f0:	ffffffff ffffffff ffffffff ffffffff     ................
   cb400:	ffffffff ffffffff ffffffff ffffffff     ................
   cb410:	ffffffff ffffffff ffffffff ffffffff     ................
   cb420:	ffffffff ffffffff ffffffff ffffffff     ................
   cb430:	ffffffff ffffffff ffffffff ffffffff     ................
   cb440:	ffffffff ffffffff ffffffff ffffffff     ................
   cb450:	ffffffff ffffffff ffffffff ffffffff     ................
   cb460:	ffffffff ffffffff ffffffff ffffffff     ................
   cb470:	ffffffff ffffffff ffffffff ffffffff     ................
   cb480:	ffffffff ffffffff ffffffff ffffffff     ................
   cb490:	ffffffff ffffffff ffffffff ffffffff     ................
   cb4a0:	ffffffff ffffffff ffffffff ffffffff     ................
   cb4b0:	ffffffff ffffffff ffffffff ffffffff     ................
   cb4c0:	ffffffff ffffffff ffffffff ffffffff     ................
   cb4d0:	ffffffff ffffffff ffffffff ffffffff     ................
   cb4e0:	ffffffff ffffffff ffffffff ffffffff     ................
   cb4f0:	ffffffff ffffffff ffffffff ffffffff     ................
   cb500:	ffffffff ffffffff ffffffff ffffffff     ................
   cb510:	ffffffff ffffffff ffffffff ffffffff     ................
   cb520:	ffffffff ffffffff ffffffff ffffffff     ................
   cb530:	ffffffff ffffffff ffffffff ffffffff     ................
   cb540:	ffffffff ffffffff ffffffff ffffffff     ................
   cb550:	ffffffff ffffffff ffffffff ffffffff     ................
   cb560:	ffffffff ffffffff ffffffff ffffffff     ................
   cb570:	ffffffff ffffffff ffffffff ffffffff     ................
   cb580:	ffffffff ffffffff ffffffff ffffffff     ................
   cb590:	ffffffff ffffffff ffffffff ffffffff     ................
   cb5a0:	ffffffff ffffffff ffffffff ffffffff     ................
   cb5b0:	ffffffff ffffffff ffffffff ffffffff     ................
   cb5c0:	ffffffff ffffffff ffffffff ffffffff     ................
   cb5d0:	ffffffff ffffffff ffffffff ffffffff     ................
   cb5e0:	ffffffff ffffffff ffffffff ffffffff     ................
   cb5f0:	ffffffff ffffffff ffffffff ffffffff     ................
   cb600:	ffffffff ffffffff ffffffff ffffffff     ................
   cb610:	ffffffff ffffffff ffffffff ffffffff     ................
   cb620:	ffffffff ffffffff ffffffff ffffffff     ................
   cb630:	ffffffff ffffffff ffffffff ffffffff     ................
   cb640:	ffffffff ffffffff ffffffff ffffffff     ................
   cb650:	ffffffff ffffffff ffffffff ffffffff     ................
   cb660:	ffffffff ffffffff ffffffff ffffffff     ................
   cb670:	ffffffff ffffffff ffffffff ffffffff     ................
   cb680:	ffffffff ffffffff ffffffff ffffffff     ................
   cb690:	ffffffff ffffffff ffffffff ffffffff     ................
   cb6a0:	ffffffff ffffffff ffffffff ffffffff     ................
   cb6b0:	ffffffff ffffffff ffffffff ffffffff     ................
   cb6c0:	ffffffff ffffffff ffffffff ffffffff     ................
   cb6d0:	ffffffff ffffffff ffffffff ffffffff     ................
   cb6e0:	ffffffff ffffffff ffffffff ffffffff     ................
   cb6f0:	ffffffff ffffffff ffffffff ffffffff     ................
   cb700:	ffffffff ffffffff ffffffff ffffffff     ................
   cb710:	ffffffff ffffffff ffffffff ffffffff     ................
   cb720:	ffffffff ffffffff ffffffff ffffffff     ................
   cb730:	ffffffff ffffffff ffffffff ffffffff     ................
   cb740:	ffffffff ffffffff ffffffff ffffffff     ................
   cb750:	ffffffff ffffffff ffffffff ffffffff     ................
   cb760:	ffffffff ffffffff ffffffff ffffffff     ................
   cb770:	ffffffff ffffffff ffffffff ffffffff     ................
   cb780:	ffffffff ffffffff ffffffff ffffffff     ................
   cb790:	ffffffff ffffffff ffffffff ffffffff     ................
   cb7a0:	ffffffff ffffffff ffffffff ffffffff     ................
   cb7b0:	ffffffff ffffffff ffffffff ffffffff     ................
   cb7c0:	ffffffff ffffffff ffffffff ffffffff     ................
   cb7d0:	ffffffff ffffffff ffffffff ffffffff     ................
   cb7e0:	ffffffff ffffffff ffffffff ffffffff     ................
   cb7f0:	ffffffff ffffffff ffffffff ffffffff     ................
   cb800:	ffffffff ffffffff ffffffff ffffffff     ................
   cb810:	ffffffff ffffffff ffffffff ffffffff     ................
   cb820:	ffffffff ffffffff ffffffff ffffffff     ................
   cb830:	ffffffff ffffffff ffffffff ffffffff     ................
   cb840:	ffffffff ffffffff ffffffff ffffffff     ................
   cb850:	ffffffff ffffffff ffffffff ffffffff     ................
   cb860:	ffffffff ffffffff ffffffff ffffffff     ................
   cb870:	ffffffff ffffffff ffffffff ffffffff     ................
   cb880:	ffffffff ffffffff ffffffff ffffffff     ................
   cb890:	ffffffff ffffffff ffffffff ffffffff     ................
   cb8a0:	ffffffff ffffffff ffffffff ffffffff     ................
   cb8b0:	ffffffff ffffffff ffffffff ffffffff     ................
   cb8c0:	ffffffff ffffffff ffffffff ffffffff     ................
   cb8d0:	ffffffff ffffffff ffffffff ffffffff     ................
   cb8e0:	ffffffff ffffffff ffffffff ffffffff     ................
   cb8f0:	ffffffff ffffffff ffffffff ffffffff     ................
   cb900:	ffffffff ffffffff ffffffff ffffffff     ................
   cb910:	ffffffff ffffffff ffffffff ffffffff     ................
   cb920:	ffffffff ffffffff ffffffff ffffffff     ................
   cb930:	ffffffff ffffffff ffffffff ffffffff     ................
   cb940:	ffffffff ffffffff ffffffff ffffffff     ................
   cb950:	ffffffff ffffffff ffffffff ffffffff     ................
   cb960:	ffffffff ffffffff ffffffff ffffffff     ................
   cb970:	ffffffff ffffffff ffffffff ffffffff     ................
   cb980:	ffffffff ffffffff ffffffff ffffffff     ................
   cb990:	ffffffff ffffffff ffffffff ffffffff     ................
   cb9a0:	ffffffff ffffffff ffffffff ffffffff     ................
   cb9b0:	ffffffff ffffffff ffffffff ffffffff     ................
   cb9c0:	ffffffff ffffffff ffffffff ffffffff     ................
   cb9d0:	ffffffff ffffffff ffffffff ffffffff     ................
   cb9e0:	ffffffff ffffffff ffffffff ffffffff     ................
   cb9f0:	ffffffff ffffffff ffffffff ffffffff     ................
   cba00:	ffffffff ffffffff ffffffff ffffffff     ................
   cba10:	ffffffff ffffffff ffffffff ffffffff     ................
   cba20:	ffffffff ffffffff ffffffff ffffffff     ................
   cba30:	ffffffff ffffffff ffffffff ffffffff     ................
   cba40:	ffffffff ffffffff ffffffff ffffffff     ................
   cba50:	ffffffff ffffffff ffffffff ffffffff     ................
   cba60:	ffffffff ffffffff ffffffff ffffffff     ................
   cba70:	ffffffff ffffffff ffffffff ffffffff     ................
   cba80:	ffffffff ffffffff ffffffff ffffffff     ................
   cba90:	ffffffff ffffffff ffffffff ffffffff     ................
   cbaa0:	ffffffff ffffffff ffffffff ffffffff     ................
   cbab0:	ffffffff ffffffff ffffffff ffffffff     ................
   cbac0:	ffffffff ffffffff ffffffff ffffffff     ................
   cbad0:	ffffffff ffffffff ffffffff ffffffff     ................
   cbae0:	ffffffff ffffffff ffffffff ffffffff     ................
   cbaf0:	ffffffff ffffffff ffffffff ffffffff     ................
   cbb00:	ffffffff ffffffff ffffffff ffffffff     ................
   cbb10:	ffffffff ffffffff ffffffff ffffffff     ................
   cbb20:	ffffffff ffffffff ffffffff ffffffff     ................
   cbb30:	ffffffff ffffffff ffffffff ffffffff     ................
   cbb40:	ffffffff ffffffff ffffffff ffffffff     ................
   cbb50:	ffffffff ffffffff ffffffff ffffffff     ................
   cbb60:	ffffffff ffffffff ffffffff ffffffff     ................
   cbb70:	ffffffff ffffffff ffffffff ffffffff     ................
   cbb80:	ffffffff ffffffff ffffffff ffffffff     ................
   cbb90:	ffffffff ffffffff ffffffff ffffffff     ................
   cbba0:	ffffffff ffffffff ffffffff ffffffff     ................
   cbbb0:	ffffffff ffffffff ffffffff ffffffff     ................
   cbbc0:	ffffffff ffffffff ffffffff ffffffff     ................
   cbbd0:	ffffffff ffffffff ffffffff ffffffff     ................
   cbbe0:	ffffffff ffffffff ffffffff ffffffff     ................
   cbbf0:	ffffffff ffffffff ffffffff ffffffff     ................
   cbc00:	ffffffff ffffffff ffffffff ffffffff     ................
   cbc10:	ffffffff ffffffff ffffffff ffffffff     ................
   cbc20:	ffffffff ffffffff ffffffff ffffffff     ................
   cbc30:	ffffffff ffffffff ffffffff ffffffff     ................
   cbc40:	ffffffff ffffffff ffffffff ffffffff     ................
   cbc50:	ffffffff ffffffff ffffffff ffffffff     ................
   cbc60:	ffffffff ffffffff                       ........

000cbc68 <_ZL23Bitmap3c400x300_1_black>:
   cbc68:	ffffffff ffffffff ffffffff ffffffff     ................
   cbc78:	ffffffff ffffffff ffffffff ffffffff     ................
   cbc88:	ffffffff ffffffff ffffffff ffffffff     ................
   cbc98:	ffffffff ffffffff ffffffff ffffffff     ................
   cbca8:	ffffffff ffffffff ffffffff ffffffff     ................
   cbcb8:	ffffffff ffffffff ffffffff ffffffff     ................
   cbcc8:	ffffffff ffffffff ffffffff ffffffff     ................
   cbcd8:	ffffffff ffffffff ffffffff ffffffff     ................
   cbce8:	ffffffff ffffffff ffffffff ffffffff     ................
   cbcf8:	ffffffff ffffffff ffffffff ffffffff     ................
   cbd08:	ffffffff ffffffff ffffffff ffffffff     ................
   cbd18:	ffffffff ffffffff ffffffff ffffffff     ................
   cbd28:	ffffffff ffffffff ffffffff ffffffff     ................
   cbd38:	ffffffff ffffffff ffffffff ffffffff     ................
   cbd48:	ffffffff ffffffff ffffffff ffffffff     ................
   cbd58:	ffffffff ffffffff ffffffff ffffffff     ................
   cbd68:	ffffffff ffffffff ffffffff ffffffff     ................
   cbd78:	ffffffff ffffffff ffffffff ffffffff     ................
   cbd88:	ffffffff ffffffff ffffffff ffffffff     ................
   cbd98:	ffffffff ffffffff ffffffff ffffffff     ................
   cbda8:	ffffffff ffffffff ffffffff ffffffff     ................
   cbdb8:	ffffffff ffffffff ffffffff ffffffff     ................
   cbdc8:	ffffffff ffffffff ffffffff ffffffff     ................
   cbdd8:	ffffffff ffffffff ffffffff ffffffff     ................
   cbde8:	ffffffff ffffffff ffffffff ffffffff     ................
   cbdf8:	ffffffff ffffffff ffffffff ffffffff     ................
   cbe08:	ffffffff ffffffff ffffffff ffffffff     ................
   cbe18:	ffffffff ffffffff ffffffff ffffffff     ................
   cbe28:	ffffffff ffffffff ffffffff ffffffff     ................
   cbe38:	ffffffff ffffffff ffffffff ffffffff     ................
   cbe48:	ffffffff ffffffff ffffffff ffffffff     ................
   cbe58:	ffffffff ffffffff ffffffff ffffffff     ................
   cbe68:	ffffffff ffffffff ffffffff ffffffff     ................
   cbe78:	ffffffff ffffffff ffffffff ffffffff     ................
   cbe88:	ffffffff ffffffff ffffffff ffffffff     ................
   cbe98:	ffffffff ffffffff ffffffff ffffffff     ................
   cbea8:	ffffffff ffffffff ffffffff ffffffff     ................
   cbeb8:	ffffffff ffffffff ffffffff ffffffff     ................
   cbec8:	ffffffff ffffffff ffffffff ffffffff     ................
   cbed8:	ffffffff ffffffff ffffffff ffffffff     ................
   cbee8:	ffffffff ffffffff ffffffff ffffffff     ................
   cbef8:	ffffffff ffffffff ffffffff ffffffff     ................
   cbf08:	ffffffff ffffffff ffffffff ffffffff     ................
   cbf18:	ffffffff ffffffff ffffffff ffffffff     ................
   cbf28:	ffffffff ffffffff ffffffff ffffffff     ................
   cbf38:	ffffffff ffffffff ffffffff ffffffff     ................
   cbf48:	ffffffff ffffffff ffffffff ffffffff     ................
   cbf58:	ffffffff ffffffff ffffffff ffffffff     ................
   cbf68:	ffffffff ffffffff ffffffff ffffffff     ................
   cbf78:	ffffffff ffffffff ffffffff ffffffff     ................
   cbf88:	ffffffff ffffffff ffffffff ffffffff     ................
   cbf98:	ffffffff ffffffff ffffffff ffffffff     ................
   cbfa8:	ffffffff ffffffff ffffffff ffffffff     ................
   cbfb8:	ffffffff ffffffff ffffffff ffffffff     ................
   cbfc8:	ffffffff ffffffff ffffffff ffffffff     ................
   cbfd8:	ffffffff ffffffff ffffffff ffffffff     ................
   cbfe8:	ffffffff ffffffff ffffffff ffffffff     ................
   cbff8:	ffffffff ffffffff ffffffff ffffffff     ................
   cc008:	ffffffff ffffffff ffffffff ffffffff     ................
   cc018:	ffffffff ffffffff ffffffff ffffffff     ................
   cc028:	ffffffff ffffffff ffffffff ffffffff     ................
   cc038:	ffffffff ffffffff ffffffff ffffffff     ................
   cc048:	ffffffff ffffffff ffffffff ffffffff     ................
   cc058:	ffffffff ffffffff ffffffff ffffffff     ................
   cc068:	ffffffff ffffffff ffffffff ffffffff     ................
   cc078:	ffffffff ffffffff ffffffff ffffffff     ................
   cc088:	ffffffff ffffffff ffffffff ffffffff     ................
   cc098:	ffffffff ffffffff ffffffff ffffffff     ................
   cc0a8:	ffffffff ffffffff ffffffff ffffffff     ................
   cc0b8:	ffffffff ffffffff ffffffff ffffffff     ................
   cc0c8:	ffffffff ffffffff ffffffff ffffffff     ................
   cc0d8:	ffffffff ffffffff ffffffff ffffffff     ................
   cc0e8:	ffffffff ffffffff ffffffff ffffffff     ................
   cc0f8:	ffffffff ffffffff ffffffff ffffffff     ................
   cc108:	ffffffff ffffffff ffffffff ffffffff     ................
   cc118:	ffffffff ffffffff ffffffff ffffffff     ................
   cc128:	ffffffff ffffffff ffffffff ffffffff     ................
   cc138:	ffffffff ffffffff ffffffff ffffffff     ................
   cc148:	ffffffff ffffffff ffffffff ffffffff     ................
   cc158:	ffffffff ffffffff ffffffff ffffffff     ................
   cc168:	ffffffff ffffffff ffffffff ffffffff     ................
   cc178:	ffffffff ffffffff ffffffff ffffffff     ................
   cc188:	ffffffff ffffffff ffffffff ffffffff     ................
   cc198:	ffffffff ffffffff ffffffff ffffffff     ................
   cc1a8:	ffffffff ffffffff ffffffff ffffffff     ................
   cc1b8:	ffffffff ffffffff ffffffff ffffffff     ................
   cc1c8:	ffffffff ffffffff ffffffff ffffffff     ................
   cc1d8:	ffffffff ffffffff ffffffff ffffffff     ................
   cc1e8:	ffffffff ffffffff ffffffff ffffffff     ................
   cc1f8:	ffffffff ffffffff ffffffff ffffffff     ................
   cc208:	ffffffff ffffffff ffffffff ffffffff     ................
   cc218:	ffffffff ffffffff ffffffff ffffffff     ................
   cc228:	ffffffff ffffffff ffffffff ffffffff     ................
   cc238:	ffffffff ffffffff ffffffff ffffffff     ................
   cc248:	ffffffff ffffffff ffffffff ffffffff     ................
   cc258:	ffffffff ffffffff ffffffff ffffffff     ................
   cc268:	ffffffff ffffffff ffffffff ffffffff     ................
   cc278:	ffffffff ffffffff ffffffff ffffffff     ................
   cc288:	ffffffff ffffffff ffffffff ffffffff     ................
   cc298:	ffffffff ffffffff ffffffff ffffffff     ................
   cc2a8:	ffffffff ffffffff ffffffff ffffffff     ................
   cc2b8:	ffffffff ffffffff ffffffff ffffffff     ................
   cc2c8:	ffffffff ffffffff ffffffff ffffffff     ................
   cc2d8:	ffffffff ffffffff ffffffff ffffffff     ................
   cc2e8:	ffffffff ffffffff ffffffff ffffffff     ................
   cc2f8:	ffffffff ffffffff ffffffff ffffffff     ................
   cc308:	ffffffff ffffffff ffffffff ffffffff     ................
   cc318:	ffffffff ffffffff ffffffff ffffffff     ................
   cc328:	ffffffff ffffffff ffffffff ffffffff     ................
   cc338:	ffffffff ffffffff ffffffff ffffffff     ................
   cc348:	ffffffff ffffffff ffffffff ffffffff     ................
   cc358:	ffffffff ffffffff ffffffff ffffffff     ................
   cc368:	ffffffff ffffffff ffffffff ffffffff     ................
   cc378:	ffffffff ffffffff ffffffff ffffffff     ................
   cc388:	f9ffffff ffffffff ffffffff ffffffff     ................
   cc398:	ffffffff ffffffff ffffffff ffffffff     ................
   cc3a8:	ffffffff ffffffff ffffffff ffffffff     ................
   cc3b8:	ffffffff fffff8ff ffffffff ffffffff     ................
   cc3c8:	ffffffff ffffffff ffffffff ffffffff     ................
   cc3d8:	ffffffff ffffffff ffffffff ffffffff     ................
   cc3e8:	ffffffff f8ffffff ffffff7f ffffffff     ................
   cc3f8:	ffffffff ffffffff ffffffff ffffffff     ................
   cc408:	ffffffff ffffffff ffffffff ffffffff     ................
   cc418:	ffffffff ffffffff ff7ffcff ffffffff     ................
   cc428:	ffffffff ffffffff ffffffff ffffffff     ................
   cc438:	ffffffff ffffffff ffffffff ffffffff     ................
   cc448:	ffffffff ffffffff feffffff ffffff1f     ................
   cc458:	ffffffff ffffffff ffffffff ffffffff     ................
   cc468:	ffffffff ffffffff ffffffff ffffffff     ................
   cc478:	ffffffff ffffffff ffffffff ff0fffff     ................
   cc488:	ffffffff ffffffff ffffffff ffffffff     ................
   cc498:	ffffffff ffffffff ffffffff ffffffff     ................
   cc4a8:	ffffffff ffffffff ffffffff ffffffff     ................
   cc4b8:	ffffffc7 ffffffff ffffffff ffffffff     ................
   cc4c8:	ffffffff ffffffff ffffffff ffffffff     ................
   cc4d8:	ffffffff ffffffff ffffffff ffffffff     ................
   cc4e8:	ff23ffff ffffffff ffffffff ffffffff     ..#.............
   cc4f8:	ffffffff ffffffff ffffffff ffffffff     ................
   cc508:	ffffffff ffffffff ffffffff ffffffff     ................
   cc518:	fcffffff ffffff31 ffffffff ffffffff     ....1...........
   cc528:	ffffffff ffffffff ffffffff ffffffff     ................
   cc538:	ffffffff ffffffff ffffffff ffffffff     ................
   cc548:	ffffffff 7ff8ffff ffffffff ffffffff     ................
   cc558:	ffffffff ffffffff ffffffff ffffffff     ................
   cc568:	ffffffff ffffffff ffffffff ffffffff     ................
   cc578:	ffffffff ffffffff ffff7ffc fffff3ff     ................
   cc588:	ffffffff ffffffff ffffffff ffffffff     ................
   cc598:	ffffffff ffffffff ffffffff ffffffff     ................
   cc5a8:	ffffffff ffffffff 3ffeffff f3ffffff     ...........?....
   cc5b8:	ffffffff ffffffff ffffffff ffffffff     ................
   cc5c8:	ffffffff ffffffff ffffffff ffffffff     ................
   cc5d8:	ffffffff ffffffff ffffffff ffff7fff     ................
   cc5e8:	fffff1ff ffffffff ffffffff ffffffff     ................
   cc5f8:	ffffffff ffffffff ffffffff ffffffff     ................
   cc608:	ffffffff ffffffff ffffffff ffffffff     ................
   cc618:	f1ffffff ffffffff ffffffff ffffffff     ................
   cc628:	ffffffff ffffffff fffff8ff ffffffff     ................
   cc638:	ffffffff ffffffff ffffffff ffffffff     ................
   cc648:	ffffe3ff fffff0ff ffffffff ffffffff     ................
   cc658:	ffffffff ffffffff f1ffffff ffffffff     ................
   cc668:	ffffffff ffffffff ffffffff ffffffff     ................
   cc678:	c1ffffff f0ffffff ffffffff ffffffff     ................
   cc688:	ffffffff ffffffff ffffffff ffffe1ff     ................
   cc698:	ffffffff ffffffff ffffffff ffffffff     ................
   cc6a8:	ffffffff ff7ff0ff fffff8ff ffffffff     ................
   cc6b8:	ffffffff ffffffff ffffffff e1ffffff     ................
   cc6c8:	ffffffff ffffffff ffffffff ffffffff     ................
   cc6d8:	ffffffff f8ffffff f8ffff3f ffffffff     ........?.......
   cc6e8:	ffffffff ffffffff ffffffff fffffff3     ................
   cc6f8:	fffff9ff ffffffff ffffffff ffffffff     ................
   cc708:	ffffffff ffffffff ff0ffcff fffff8ff     ................
   cc718:	ffffffff ffffffff ffffffff 7fc0ffff     ................
   cc728:	f9ffffff ffffffff ffffffff ffffffff     ................
   cc738:	ffffffff ffffffff fcffffff f8ffff07     ................
   cc748:	ffffffff ffffffff ffffffff ffffffff     ................
   cc758:	ffff1ff8 fffff9ff ffffffff ffffffff     ................
   cc768:	ffffffff ffffffff ffffffff ff03f8ff     ................
   cc778:	ffff80ff ffffffff ffffffff ffffffff     ................
   cc788:	07feffff f9ffffff ffffffff ffffffff     ................
   cc798:	ffffffff ffffffff ffffffff fcffffff     ................
   cc7a8:	80ffff83 ffffffff ffffffff ffffffff     ................
   cc7b8:	ffffffff ffff81ff fffffcff ffffffff     ................
   cc7c8:	ffffffff ffffffff ffffffff ffffffff     ................
   cc7d8:	ff01ffff ffffe0ff ffffffff ffffffff     ................
   cc7e8:	ffffffff e0ffffff fcffff7f ffffffff     ................
   cc7f8:	ffffffff ffffffff ffffffff ffffffff     ................
   cc808:	fcffffff f8ffff20 ffffffff ffffffff     .... ...........
   cc818:	ffffffff ffffffff ff1ff8ff fffffcff     ................
   cc828:	ffffffff ffffffff ffffffff ffffffff     ................
   cc838:	ffffffff 7f70fcff fffff8ff ffffffff     ......p.........
   cc848:	ffffffff ffffffff feffffff fcffff07     ................
   cc858:	ffffff67 ffffffff ffffffff ffffffff     g...............
   cc868:	ffffffff ffffffff f8ff7ff8 ffffffff     ................
   cc878:	ffffffff ffffffff ffffffff ff80ffff     ................
   cc888:	ff07feff ffffffff ffffffff ffffffff     ................
   cc898:	ffffffff ffffffff 3ffcffff fffff8ff     ...........?....
   cc8a8:	ffffffff ffffffff ffffffff ffffffff     ................
   cc8b8:	f8ff3ff0 ffffff07 ffffffff ffffffff     .?..............
   cc8c8:	ffffffff ffffffff ffffffff f8ff1ffe     ................
   cc8d8:	ffffffff ffffffff ffffffff ffffffff     ................
   cc8e8:	07fcffff ff0fc0ff ffffffff ffffffff     ................
   cc8f8:	ffffffff ffffffff ffffffff 0f82ffff     ................
   cc908:	fffff8ff ffffffff ffffffff ffffffff     ................
   cc918:	ffffffff 00ff00ff ffffff3f ffffffff     ........?.......
   cc928:	ffffffff ffffffff ffffffff feffffff     ................
   cc938:	f1ff0700 ffffffff ffffffff ffffffff     ................
   cc948:	ffffffff c0ffffff ffff003f ffffffff     ........?.......
   cc958:	ffffffff ffffffff ffffffff ffffffff     ................
   cc968:	0700feff fffff9ff ffffffff ffffffff     ................
   cc978:	ffffffff ffffffff 0f03fcff ffffffff     ................
   cc988:	ffffffff ffffffff ffffffff ffffffff     ................
   cc998:	feffffff ffcf0300 ffffffff ffffffff     ................
   cc9a8:	ffffffff ffffffff ffffffff ffff1f00     ................
   cc9b8:	ffffffff ffffffff ffffffff ffffffff     ................
   cc9c8:	ffffffff e1ffffff ffffff8f ffffffff     ................
   cc9d8:	ffffffff ffffffff ffffffff 01e0ffff     ................
   cc9e8:	fffcffff ffffffff ffffffff ffffffff     ................
   cc9f8:	ffffffff ffffffff ff0ff0ff ffffffff     ................
   cca08:	ffffffff ffffffff ffffffff ffffffff     ................
   cca18:	ff0f00fc fffffffc ffffffff ffffffff     ................
   cca28:	ffffffff ffffffff f8ffffff ffffff0f     ................
   cca38:	ffffffff ffffffff ffffffff ffffffff     ................
   cca48:	c0ffffff fff8ff00 ffffffff ffffffff     ................
   cca58:	ffffffff ffffffff ffffffff ff1ffcff     ................
   cca68:	ffffffff ffffffff ffffffff ffffffff     ................
   cca78:	ffffffff 0f00feff fffffff8 ffffffff     ................
   cca88:	ffffffff ffffffff ffffffff fcffffff     ................
   cca98:	ffffff0f ffffffff ffffffff ffffffff     ................
   ccaa8:	ffffffff ffffffff ff3000f0 ffffffff     ..........0.....
   ccab8:	ffffffff ffffffff ffffffff ffffffff     ................
   ccac8:	ff0ffeff ffffffff ffffffff ffffffff     ................
   ccad8:	ffffffff ffffffff 80ffffff ffffff00     ................
   ccae8:	ffffffff ffffffff ffffffff ffffffff     ................
   ccaf8:	ffffffff ffffff07 ffffffff ffffffff     ................
   ccb08:	ffffffff ffffffff ffffffff 1f00f8ff     ................
   ccb18:	ffffffff ffffffff ffffffff ffffffff     ................
   ccb28:	ffffffff ff87ffff ffffffff ffffffff     ................
   ccb38:	ffffffff ffffffff ffffffff ffffffff     ................
   ccb48:	ffff00c0 ffffffff ffffffff ffffffff     ................
   ccb58:	ffffffff ffffffff ffffff87 ffffffff     ................
   ccb68:	ffffffff ffffffff ffffffff ffffffff     ................
   ccb78:	00fcffff ffffff01 ffffffff ffffffff     ................
   ccb88:	ffffffff ffffffff ff87ffff ffffffff     ................
   ccb98:	ffffffff ffffffff ffffffff ffffffff     ................
   ccba8:	ffffffff 1f00e0ff ffffffff ffffffff     ................
   ccbb8:	ffffffff ffffffff ffffffff ffffffc7     ................
   ccbc8:	ffffffff ffffffff ffffffff ffffffff     ................
   ccbd8:	ffffffff e1ffffff ff3f0000 ffffffff     ..........?.....
   ccbe8:	ffffffff ffffffff ffffffff ffefffff     ................
   ccbf8:	ffffffff ffffffff ffffffff ffffffff     ................
   ccc08:	ffffffff ffffffff 00fce3ff ffff7f00     ................
   ccc18:	ffffffff ffffffff ffffffff ffffffff     ................
   ccc28:	ffffffff ffffffff ffffffff ffffffff     ................
   ccc38:	ffffffff ffffffff c1ffffff 0f00c0ff     ................
   ccc48:	ffffffff ffffffff ffffffff ffffffff     ................
   ccc58:	ffffffff ffffffff ffffffff ffffffff     ................
   ccc68:	ffffffff ffffffff ffffffff feffe3ff     ................
   ccc78:	ffc30100 3ffeffff ffffffff ffffffff     .......?........
   ccc88:	ffffffff ffffffff ffffffff ffffffff     ................
   ccc98:	ffffffff ffffffff ffffffff e7ffffff     ................
   ccca8:	00f8ffff ffff3f00 ffff0ffe ffffffff     .....?..........
   cccb8:	ffffffff ffffffff ffffffff ffffffff     ................
   cccc8:	ffffffff ffffffff ffffffff ffffffff     ................
   cccd8:	ffffffff 010000ff 07feffff ffffffff     ................
   ccce8:	ffffffff ffffffff ffffffff ffffffff     ................
   cccf8:	ffffffff ffffffff ffffffff ffffffff     ................
   ccd08:	ffffffff f0ffffff ff070000 ffff03fe     ................
   ccd18:	ffffffff ffffffff ffffffff ffffffff     ................
   ccd28:	ffffffff ffffffff ffffffff ffffffff     ................
   ccd38:	ffffffff ffffffff 00e0f8ff 03feff00     ................
   ccd48:	ffffffff ffffffff ffffffff ffffffff     ................
   ccd58:	ffffffff ffffffff ffffffff ffffffff     ................
   ccd68:	ffffffff ffffffff e7ffffff 070000fc     ................
   ccd78:	fffb03ff ffffffff ffffffff ffffffff     ................
   ccd88:	ffffffff ffffffff ffffffff ffffffff     ................
   ccd98:	ffffffff ffffffff ffffffff fcff07ff     ................
   ccda8:	030f0000 fffffff8 ffffffff ffffffff     ................
   ccdb8:	ffffffff ffffffff ffffffff ffffffff     ................
   ccdc8:	ffffffff ffffffff ffffffff 07fcffff     ................
   ccdd8:	00e0ffff 7ff80300 ffffffff ffffffff     ................
   ccde8:	ffffffff ffffbfff ffffffff ffffffff     ................
   ccdf8:	ffffffff ffffffff ffffffff ffffffff     ................
   cce08:	ffff0fe0 0000c0ff ffff3f7c ffffffff     ........|?......
   cce18:	ffffffff 3fffffff ffffffff ffffffff     .......?........
   cce28:	ffffffff ffffffff ffffffff ffffffff     ................
   cce38:	3f80ffff 06ffffff 1f060000 ffffffff     ...?............
   cce48:	ffffffff ffffffff ffff3fff ffffffff     .........?......
   cce58:	ffffffff ffffffff ffffffff ffffffff     ................
   cce68:	fcffffff ffffff00 00f80ffc ffff1f00     ................
   cce78:	ffffffff ffffffff 7ffeffff ffffffff     ................
   cce88:	ffffffff ffffffff f3ffffff ffffffff     ................
   cce98:	ffffffe7 ff0700fb 0fc0ffff 0f00e0ff     ................
   ccea8:	ffffffff ffffffff ffffffff fffffffe     ................
   cceb8:	ffffffff ffffffff ffffffff fffff3ff     ................
   ccec8:	8080ffff 0180ff07 feffffff ffff1f00     ................
   cced8:	ffff00c0 ffffffff ffffffff fffcffff     ................
   ccee8:	ffffffff ffffffff ffffffff 73feffff     ...............s
   ccef8:	ffffffff ff0f0000 ffff1f80 7f00f0ff     ................
   ccf08:	00feffff ffffff00 ffffffff ffffffff     ................
   ccf18:	ffffcff5 ffffffff ffffffff ffffffff     ................
   ccf28:	ffff13f8 c103feff ff00fcff 00feffff     ................
   ccf38:	ffffff03 7f00e0ff ffffffff ffffffff     ................
   ccf48:	8ff7ffff ffffffff ffffffff ffffffff     ................
   ccf58:	00f0ffff feff0f7e ffff877f ffffff03     ....~...........
   ccf68:	ff7f00c0 fcffffff ffff0700 ffffffff     ................
   ccf78:	ffffffff ffff9ff1 ffffffff ffffffff     ................
   ccf88:	ffffffff 0f0000ff 0ffcffff ff83ffff     ................
   ccf98:	1f00fcff ffffffff 0fe0ffff ffffffff     ................
   ccfa8:	ffffffff bff1ffff ffffffff ffffffff     ................
   ccfb8:	ffffffff fcffffff ffff0f00 ffff7ff0     ................
   ccfc8:	00f0ffef ffffff07 ffffffff ffff0fff     ................
   ccfd8:	ffffffff ffffffff ffffffff ffffffff     ................
   ccfe8:	ffffffff ffffffff 7f87ffff ffc3ffff     ................
   ccff8:	87ffffff ff7f00e0 ffffffff ffffffff     ................
   cd008:	ffffffff ffffff7f ffffffff ffffffff     ................
   cd018:	ffffffff ffffffff ffffffff ffffff8f     ................
   cd028:	ffffffff 07c007ff ffffffff ffffffff     ................
   cd038:	ffffffff ff1ffeff ffffffff ffff7fff     ................
   cd048:	ffffffff ffffffff ffffffff ffcfffff     ................
   cd058:	ffffffff bfffffff ffff1f00 ffffffff     ................
   cd068:	ffffffff ffffffff ffffff1f 3fffffff     ...............?
   cd078:	ffffffff ffffffff ffffffff ffffffff     ................
   cd088:	ffffffff ffffffff 7f00feff ffffffff     ................
   cd098:	ffffffff ffffffff ff1fffff ffffffff     ................
   cd0a8:	ffff8ffc ffffffff ffffffff ffffffff     ................
   cd0b8:	ffffffff ffffffff fcffffff ffffff7f     ................
   cd0c8:	ffffffff ffffffff ffffffff ffffff8f     ................
   cd0d8:	6ffcffff ffffffff ffffffff ffffffff     ...o............
   cd0e8:	ffffffff ffffffff ffffffff fffffeff     ................
   cd0f8:	ffffffff ffffffff ffffffff ff87ffc0     ................
   cd108:	ffffffff ffff37fe ffffffff ffffffff     .....7..........
   cd118:	ffffffff ffffffff ffffffff ffffffff     ................
   cd128:	ffffffff ffffffff ffffffff 1f80ffff     ................
   cd138:	fffffdc7 1bffffff ffffffff ffffffff     ................
   cd148:	ffffffff ffffffff ffffffff ffffffff     ................
   cd158:	ffffffff ffffffff ffffffff ffffffff     ................
   cd168:	fdc707f0 ffffffff ffffc7ff ffffffff     ................
   cd178:	ffffffff ffffffff ffffffff ffffffff     ................
   cd188:	ffffffff ffffffff ffffffff ffffffff     ................
   cd198:	00fcffff fffffd07 ffffffef ffffffff     ................
   cd1a8:	ffffffff ffffffff ffffffff ffffffff     ................
   cd1b8:	ffffffff ffffffff ffffffff ffffffff     ................
   cd1c8:	ffffffff fd0780ff ffefffff ffffffff     ................
   cd1d8:	ffffffff ffffffff ffffffff ffffffff     ................
   cd1e8:	ffffffff fffffcff ffffffff ffffffff     ................
   cd1f8:	ffffffff f8ffffff fffffd01 ffffffe7     ................
   cd208:	ffffffff ffffffff ffffffff ffffffff     ................
   cd218:	ffffffff f9ffffff ffffffff ffffffff     ................
   cd228:	ffffffff ffffffff 3d00ffff ffe7ffff     ...........=....
   cd238:	ffffffff ffffffff ffffffff ffffffff     ................
   cd248:	ffffffff ffffffff fffff1ff ffffffff     ................
   cd258:	ffffffff ffffffff ffffffff c7ff0dc0     ................
   cd268:	ffffffe7 ffffffff ffffffff ffffffff     ................
   cd278:	ffffffff ffffffff c7ffffff ffffffff     ................
   cd288:	ffffffff ffffffff ffffffff 01f8ffff     ................
   cd298:	ffe3e3ff ffffffff ffffffff ffffffff     ................
   cd2a8:	ffffffff ffffffff ffffffff ffff0fff     ................
   cd2b8:	ffffffff ffffffff ffffffff ffffffff     ................
   cd2c8:	e1ff00fc ffffffe3 ffffffff ffffffff     ................
   cd2d8:	ffffffff ffffffff ffffffff 3ffeffff     ...............?
   cd2e8:	ffffffff ffffffff ffffffff ffffffff     ................
   cd2f8:	00fcffff fff3f0ff ffffffff ffffffff     ................
   cd308:	ffffffff ffffffff ffffffff ffffffff     ................
   cd318:	ffff7ff0 ffffffff ffffffff ffffffff     ................
   cd328:	ffffffff f87f00fe ffffff31 ffffffff     ........1.......
   cd338:	ffffffff ffffffff ffffffff ffffffff     ................
   cd348:	ff01fcff ffffffff ffffffff ffffffff     ................
   cd358:	ffffffff 00feffff ff01fc7f ffffffff     ................
   cd368:	ffffffff ffffffff ffffffff ffffffff     ................
   cd378:	f0ffffff ffffff07 ffffffff ffffffff     ................
   cd388:	ffffffff ffffffff ff3f00ff ffffff81     ..........?.....
   cd398:	ffffffff ffffffff ffffffff ffffffff     ................
   cd3a8:	ffffffff ff7fe0ff ffffffff ffffffff     ................
   cd3b8:	ffffffff ffffffff 00ffffff bfc0ff3f     ............?...
   cd3c8:	ffffffff ffffffff ffffffff ffffffff     ................
   cd3d8:	ffffffff e1ffffff ffffffff ffffffff     ................
   cd3e8:	ffffffff ffffffff ffffffff ffbf80ff     ................
   cd3f8:	ffffffe0 ffffff3f ffffffff ffffffff     ....?...........
   cd408:	ffffffff ffffffff ffffffff ffffffff     ................
   cd418:	ffffffff ffffffff ffffffff 81ffffff     ................
   cd428:	fff0ffff ff3fffff ffffffff ffffffff     ......?.........
   cd438:	ffffffff ffffffff ffffffff ffffffff     ................
   cd448:	ffffffff ffffffff ffffffff ffffffff     ................
   cd458:	ffffc1ff ffff7ff8 ffffff1f ffffffff     ................
   cd468:	ffffffff ffffffff ffffffff ffffffff     ................
   cd478:	ffffffff ffffffff ffffffff ffffffff     ................
   cd488:	e3ffffff 7ff8ffff ff0fffff ffffffff     ................
   cd498:	ffffffff ffffffff ffffffff ffffffff     ................
   cd4a8:	ffffffff ffffffff ffffffff ffffffff     ................
   cd4b8:	ffffffff ffffe7ff ffff3ffc ffffff8f     .........?......
   cd4c8:	ffffffff ffffffff ffffffff ffffffff     ................
   cd4d8:	ffffffff ffffffff ffffffff ffffffff     ................
   cd4e8:	ffffffff ffffffff 3ffcffff ffc7ffff     ...........?....
   cd4f8:	ffffffff ffffffff ffffffff ffffffff     ................
   cd508:	ffffffff ffffffff ffffffff ffffffff     ................
   cd518:	ffffffff ffffffff ffffffff ffff1ffc     ................
   cd528:	ffffffe3 ffffffff ffffffff ffffffff     ................
   cd538:	ffffffff ffffffff ffffffff ffffffff     ................
   cd548:	ffffffff ffffffff ffffffff 1ffcffff     ................
   cd558:	ffe1ffff ffffffff ffffffff ffffffff     ................
   cd568:	ffffffff ffffffff ffffffff ffffffff     ................
   cd578:	ffffffff ffffffff ffffffff ffffffff     ................
   cd588:	dfff1ffc fffffff1 ffffffff ffffffff     ................
   cd598:	ffffffff ffffffff ffffffff ffffffff     ................
   cd5a8:	ffffffff ffffffff ffffffff ffffffff     ................
   cd5b8:	0ffcffff fff0cfff ffffffff ffffffff     ................
   cd5c8:	ffffffff ffffffff ffffffff ffffffff     ................
   cd5d8:	ffffffff ffffffff ffffffff ffffffff     ................
   cd5e8:	ffffffff cfff0ffe fffffff8 ffffffff     ................
   cd5f8:	ffffffff ffffffff ffffffff ffffffff     ................
   cd608:	ffffffff ffffffff ffffffff ffffffff     ................
   cd618:	ffffffff 03ffffff 7ff8c7ff ffffffff     ................
   cd628:	ffffffff ffffffff ffffffff ffffffff     ................
   cd638:	ffffffff ffffffff ffffffff ffffffff     ................
   cd648:	ffffffff ffffffff c7ff01ff ffff7ffc     ................
   cd658:	ffffffff ffffffff ffffffff ffffffff     ................
   cd668:	ffffffff ffffffff ffffffff ffffffff     ................
   cd678:	ffffffff ffffffff 80ffffff 3ffec77f     ...............?
   cd688:	ffffffff ffffffff ffffffff ffffffff     ................
   cd698:	ffffffff ffffffff ffffffff ffffffff     ................
   cd6a8:	ffffffff ffffffff ffffffff c31f80ff     ................
   cd6b8:	ffff3ffe ffffffff ffffffff ffffffff     .?..............
   cd6c8:	ffffffff ffffffff ffffffff ffffffff     ................
   cd6d8:	fffffcff ffffffff ffffffff e6ffffff     ................
   cd6e8:	1ffec307 ffffffff ffffffff ffffffff     ................
   cd6f8:	ffffffff ffffffff ffffffff ffffffff     ................
   cd708:	f0ffffff ffffff7f ffffffff ffffffff     ................
   cd718:	8300ffff ffff1fff ffffffff ffffffff     ................
   cd728:	ffffffff ffffffff ffffffff ffffffff     ................
   cd738:	ffffffff ff3ff0ff ffffffff ffffffff     ......?.........
   cd748:	ffffffff 1fff03e0 ffffffff ffffffff     ................
   cd758:	ffffffff ffffffff ffffffff ffffffff     ................
   cd768:	ffffffff f8ffffff ffffff0f ffffffff     ................
   cd778:	ffffffff 03f0ffff ffff8fff ffffffff     ................
   cd788:	ffffffff ffffffff ffffffff ffffffff     ................
   cd798:	ffffffff ffffffff ff07feff ffffffff     ................
   cd7a8:	ffffffff ffffffff 87ff03fc ffffffff     ................
   cd7b8:	ffffffff ffffffff ffffffff ffffffff     ................
   cd7c8:	ffffffff ffffffff ffffffff ff3fff81     ..............?.
   cd7d8:	ffffffff ffffffff 01ffffff ffffc3ff     ................
   cd7e8:	ffffffff ffffffff ffffffff ffffffff     ................
   cd7f8:	ffffffff ffffffff ffffffff 7ce0ffff     ...............|
   cd808:	ffffff1f ffffffff ffffffff c17fc0ff     ................
   cd818:	ffffffff ffffffff ffffffff ffffffff     ................
   cd828:	ffffffff ffffffff ffffffff ffffffff     ................
   cd838:	ff1f38f8 ffffffff ffffffff e0ffffff     .8..............
   cd848:	ffffc11f ffffffff ffffffff ffffffff     ................
   cd858:	ffffffff ffffffff ffffffff ffffffff     ................
   cd868:	80ffffff ffffff1f ffffffff ffffffff     ................
   cd878:	c007f8ff ffffffff ffffffff ffffffff     ................
   cd888:	ffffffff ffffffff ffffffff ffffffff     ................
   cd898:	ffffffff ff3f00ff ffffffff ffffffff     ......?.........
   cd8a8:	feffffff ffffc001 ffffffff ffffffff     ................
   cd8b8:	ffffffff ffffffff ffffffff ffffffff     ................
   cd8c8:	ffffffff 00f8ffff ffffffff ffffffff     ................
   cd8d8:	ffffffff e0c0ffff ffffffff ffffffff     ................
   cd8e8:	ffffffff ffffffff ffffffff ffffffff     ................
   cd8f8:	ffffffff e1ffffff ffff1f00 ffffffff     ................
   cd908:	ffffffff ffffffff ffff20c0 ffffffff     ......... ......
   cd918:	ffffffff ffffffff ffffffff ffffffff     ................
   cd928:	ffffffff ffffffff ff01c0ff ffffffff     ................
   cd938:	ffffffff ffffffff 00c0ffff ffffff7f     ................
   cd948:	ffffffff ffffffff ffffffff ffffffff     ................
   cd958:	ffffffff ffffffff c0ffffff ffffff0f     ................
   cd968:	ffffffff ffffffff ffffffff ff7f0080     ................
   cd978:	ffffffff ffffffff ffffffff ffffffff     ................
   cd988:	ffffffff ffffffff ffffffff ff7f80ff     ................
   cd998:	ffffffff ffffffff ffffffff 0083ffff     ................
   cd9a8:	ffffff7f ffffffff ffffffff ffffffff     ................
   cd9b8:	ffffffff ffffffff ffffffff 83ffffff     ................
   cd9c8:	ffffffff ffffffff ffffffff ffffffff     ................
   cd9d8:	ff7fc087 ffffffff ffffffff ffffffff     ................
   cd9e8:	ffffffff ffffffff ffffffff ffffffff     ................
   cd9f8:	ffffdfff ffffffff ffffffff ffffffff     ................
   cda08:	f0bfffff ffffff3f ffffffff ffffffff     ....?...........
   cda18:	ffffffff ffffffff ffffffff ffffffff     ................
   cda28:	ffffffff ffffffff ffffffff ffffffff     ................
   cda38:	ffffffff ff0ff8ff ffffffff ffffffff     ................
   cda48:	ffffffff ffffffff ffffffff ffffffff     ................
   cda58:	ffffffff ffffffff ffffffff ffffffff     ................
   cda68:	ffffffff feffffff ffffff07 ffffffff     ................
   cda78:	ffffffff ffffffff ffffffff ffffffff     ................
   cda88:	ffffffff ffffffff ffffffff ffffffff     ................
   cda98:	ffffffff ffffffff ff03ffff ffffffff     ................
   cdaa8:	ffffffff ffffffff ffffffff ffffffff     ................
   cdab8:	ffffffff ffffffff ffffffff ffffffff     ................
   cdac8:	ffffffff ffffffff ffffffff ffffffc0     ................
   cdad8:	ffffffff ffffffff ffffffff ffffffff     ................
   cdae8:	ffffffff ffffffff ffffffff ffffffff     ................
   cdaf8:	ffffffff ffffffff ffffffff 7fe0ffff     ................
   cdb08:	ffffffff ffffffff ffffffff ffffffff     ................
   cdb18:	ffffffff ffffffff ffffffff ffffffff     ................
   cdb28:	ffffffff ffffffff ffffffff ffffffff     ................
   cdb38:	ffff1ff8 ffffffff ffffffff ffffffff     ................
   cdb48:	ffffffff ffffffff ffffffff ffffffff     ................
   cdb58:	ffffffff ffffffff ffffffff ffffffff     ................
   cdb68:	07fcffff ffffffff ffffffff ffffffff     ................
   cdb78:	ffffffff ffffffff ffffffff ffffffff     ................
   cdb88:	ffffffff ffffffff ffffffff ffffffff     ................
   cdb98:	ffffffff ffff03fe ffffffff ffffffff     ................
   cdba8:	ffffffff ffffffff ffffffff ffffffff     ................
   cdbb8:	ffffffff ffffffff ffffffff ffffffff     ................
   cdbc8:	ffffffff 81ffffff ffffffff ffffffff     ................
   cdbd8:	ffffffff ffffffff ffffffff ffffffff     ................
   cdbe8:	ffffffff ffffffff ffffffff ffffffff     ................
   cdbf8:	ffffffff ffffffff ffffc0ff ffffffff     ................
   cdc08:	ffffffff ffffffff ffffffff ffffffff     ................
   cdc18:	ffffffff ffffffff ffffffff ffffffff     ................
   cdc28:	ffffffff ffffffff f0ffffff ffffff7f     ................
   cdc38:	ffffffff ffffffff ffffffff ffffffff     ................
   cdc48:	ffffffff ffffffff ffffffff ffffffff     ................
   cdc58:	ffffffff ffffffff ffffffff ff1ff8ff     ................
   cdc68:	ffffffff ffffffff ffffffff ffffffff     ................
   cdc78:	ffffffff ffffffff ffffffff ffffffff     ................
   cdc88:	ffffffff ffffffff ffffffff fcffffff     ................
   cdc98:	ffffff0f ffffffff ffffffff ffffffff     ................
   cdca8:	ffffffff ffffffff ffffffff ffffffff     ................
   cdcb8:	ffffffff ffffffff ffffffff ffffffff     ................
   cdcc8:	ff07ffff ffffffff ffffffff ffffffff     ................
   cdcd8:	ffffffff ffffffff ffffffff ffffffff     ................
   cdce8:	ffffffff ffffffff ffffffff ffffffff     ................
   cdcf8:	ffffffff ffffff83 ffffffff ffffffff     ................
   cdd08:	ffffffff ffffffff ffffffff ffffffff     ................
   cdd18:	ffffffff ffffffff ffffffff ffffffff     ................
   cdd28:	ffffffff ffc0ffff ffffffff ffffffff     ................
   cdd38:	ffffffff ffffffff ffffffff ffffffff     ................
   cdd48:	ffffffff ffffffff ffffffff ffffffff     ................
   cdd58:	ffffffff ffffffff ffff7ff0 ffffffff     ................
   cdd68:	ffffffff ffffffff ffffffff ffffffff     ................
   cdd78:	ffffffff ffffffff ffffffff ffffffff     ................
   cdd88:	ffffffff ffffffff 1ff8ffff ffffffff     ................
   cdd98:	ffffffff ffffffff ffffffff ffffffff     ................
   cdda8:	ffffffff ffffffff ffffffff ffffffff     ................
   cddb8:	ffffffff ffffffff ffffffff ffff0ffe     ................
   cddc8:	ffffffff ffffffff ffffffff ffffffff     ................
   cddd8:	ffffffff ffffffff ffffffff ffffffff     ................
   cdde8:	ffffffff ffffffff ffffffff 03ffffff     ................
   cddf8:	ffffffff ffffffff ffffffff ffffffff     ................
   cde08:	ffffffff ffffffff ffffffff ffffffff     ................
   cde18:	ffffffff ffffffff ffffffff ffffffff     ................
   cde28:	ffffc1ff ffffffff ffffffff ffffffff     ................
   cde38:	ffffffff ffffffff ffffffff ffffffff     ................
   cde48:	ffffffff ffffffff ffffffff ffffffff     ................
   cde58:	e0ffffff ffffff7f ffffffff ffffffff     ................
   cde68:	ffffffff ffffffff ffffffff ffffffff     ................
   cde78:	ffffffff ffffffff ffffffff ffffffff     ................
   cde88:	ffffffff ff1ff0ff ffffffff ffffffff     ................
   cde98:	ffffffff ffffffff ffffffff ffffffff     ................
   cdea8:	ffffffff ffffffff ffffffff ffffffff     ................
   cdeb8:	ffffffff fcffffff ffffff0f ffffffff     ................
   cdec8:	ffffffff ffffffff ffffffff ffffffff     ................
   cded8:	ffffffff ffffffff ffffffff ffffffff     ................
   cdee8:	ffffffff ffffffff ff03feff ffffffff     ................
   cdef8:	ffffffff ffffffff ffffffff ffffffff     ................
   cdf08:	ffffffff ffffffff ffffffff ffffffff     ................
   cdf18:	ffffffff ffffffff ffffffff ffffff01     ................
   cdf28:	fffbffff ffffffff ffffffff ffffffff     ................
   cdf38:	ffffffff ffffffff ffffffff ffffffff     ................
   cdf48:	ffffffff ffffffff ffffffff ffc0ffff     ................
   cdf58:	ffffffff ffffffc1 ffffffff ffffffff     ................
   cdf68:	ffffffff ffffffff ffffffff ffffffff     ................
   cdf78:	ffffffff ffffffff ffffffff ffffffff     ................
   cdf88:	ffff7fe0 ff83ffff ffffffff ffffffff     ................
   cdf98:	ffffffff ffffffff ffffffff ffffffff     ................
   cdfa8:	ffffffff ffffffff ffffffff 47ffffff     ...............G
   cdfb8:	3ff0fff7 ffffffff ffffff83 ffffffff     ...?............
   cdfc8:	ffffffff ffffffff ffffffff ffffffff     ................
   cdfd8:	ffffffff ffffffff ffffffff ffffffff     ................
   cdfe8:	ffe703ff ffff1ff8 ff03ffff ffffffff     ................
   cdff8:	ffffffff ffffffff ffffffff ffffffff     ................
   ce008:	ffffffff ffffffff ffffffff ffffffff     ................
   ce018:	00ffffff 07feff01 fcffffff ffffff03     ................
   ce028:	ffffffff ffffffff ffffffff ffffffff     ................
   ce038:	ffffffff ffffffff ffffffff ffffffff     ................
   ce048:	ffffffff ff0000ff ffff03ff ff03fcff     ................
   ce058:	ffffffff ffffffff ffffffff ffffffff     ................
   ce068:	ffffffff ffffffff ffffffff ffffffff     ................
   ce078:	ffffffff 00feffff 01ffff00 f0ffffff     ................
   ce088:	ffffff03 ffffffff ffffffff ffffffff     ................
   ce098:	ffffffff ffffffff ffffffff ffffffff     ................
   ce0a8:	ffffffff ffffffff ff0000fe ffff00fe     ................
   ce0b8:	ff03e0ff ffffffff ffffffff ffffffff     ................
   ce0c8:	ffffffff ffffffff ffffffff ffffffff     ................
   ce0d8:	ffffffff ffffffff 00fcffff 00fe7f00     ................
   ce0e8:	c0ffff7f ffffff07 ffffffff ffffffff     ................
   ce0f8:	ffffffff ffffffff ffffffff ffffffff     ................
   ce108:	ffffffff ffffffff ffffffff 7f0000fc     ................
   ce118:	fc3f10ff ff0f00ff ffffffff ffffffff     ..?.............
   ce128:	ffffffff ffffffff ffffffff ffffffff     ................
   ce138:	ffffffff ffffffff ffffffff 00fcffff     ................
   ce148:	f8ffff01 003efc1f ffffff0f ffffffff     ......>.........
   ce158:	ffffffff ffffffff ffffffff ffffffff     ................
   ce168:	ffffffff ffffffff ffffffff ffffffff     ................
   ce178:	ff0300fe fc0ffcff ff1f000c ffffffff     ................
   ce188:	ffffffff ffffffff ffffffff ffffffff     ................
   ce198:	ffffffff ffffffff ffffffff ffffffff     ................
   ce1a8:	00f8ffff feffff03 0000fe07 ffffff0f     ................
   ce1b8:	ffffffff ffffffff ffffffff ffffffff     ................
   ce1c8:	ffffffff ffffffff ffffffff ffffffff     ................
   ce1d8:	ffffffff ff0100fa fe03ffff ff0f0000     ................
   ce1e8:	ffffffff ffffffff ffffffff ffffffff     ................
   ce1f8:	ffffffff ffffffff ffffffff ffffffff     ................
   ce208:	ffffffff 00f7ffff ffffff01 0000ff81     ................
   ce218:	ffffff1f ffffffff ffffffff ffffffff     ................
   ce228:	ffffffff ffffffff ffffffff ffffffff     ................
   ce238:	ffffffff ffffffff ff0300fe ffc0ffff     ................
   ce248:	ff3f0080 ffffffff ffffffff ffffffff     ..?.............
   ce258:	ffffffff ffffffff ffffffff ffffffff     ................
   ce268:	ffffffff ffffffff 00fcffff ffffff03     ................
   ce278:	03c07fe0 ffffff7f ffffffff ffffffff     ................
   ce288:	ffffffff ffffffff ffffffff ffffffff     ................
   ce298:	ffffffff ffffffff ffffffff ff0340f8     .............@..
   ce2a8:	3fe0ffff ffff03c0 ffffffff ffffffff     ...?............
   ce2b8:	ffffffff ffffffff ffffffff ffffffff     ................
   ce2c8:	ffffffff ffffffff ffffffff c0f8ffff     ................
   ce2d8:	ffffff03 01e01ff0 ffffffff ffffffff     ................
   ce2e8:	ffffffff ffffffff ffffffff ffffffff     ................
   ce2f8:	ffffffff ffffffff ffffffff ffffffff     ................
   ce308:	ff0780ff 0ff8ffff ffff03c0 ffffffff     ................
   ce318:	ffffffff ffffffff ffffffff ffffffff     ................
   ce328:	ffffffff ffffffff ffffffff ffffffff     ................
   ce338:	80ffffff ffffff0f 278007f8 ffffffff     ...........'....
   ce348:	ffffffff ffffffff ffffffff ffffffff     ................
   ce358:	ffffffff ffffffff ffffffff ffffffff     ................
   ce368:	ffffffff ff1f00ff 07fcffff ffff4f00     .............O..
   ce378:	ffffffff ffffffff ffffffff ffffffff     ................
   ce388:	ffffffff ffffffff ffffffff ffffffff     ................
   ce398:	ffffffff 00f6ffff ffffff1f 9f0002fe     ................
   ce3a8:	ffffffff ffffffff ffffffff ffffffff     ................
   ce3b8:	ffffffff ffffffff ffffffff ffffffff     ................
   ce3c8:	ffffffff ffffffff ff3f00cc 00f7ffff     ..........?.....
   ce3d8:	ffff3f01 ffffffff ffffffff ffffffff     .?..............
   ce3e8:	ffffffff ffffffff ffffffff ffffffff     ................
   ce3f8:	ffffffff ffffffff 0098ffff ffffff3f     ............?...
   ce408:	7f0280e1 ffffffff ffffffff ffffffff     ................
   ce418:	ffffffff ffffffff ffffffff ffffffff     ................
   ce428:	ffffffff ffffffff c7ffffff ff7f8030     ............0...
   ce438:	00f0ffff ffffff07 ffffffff ffffffff     ................
   ce448:	ffffffff ffffffff ffffffff ffffffff     ................
   ce458:	ffffffff ffffffff ffffffff 80701ef8     ..............p.
   ce468:	ffffffff ff1b00f0 ffffffff ffffffff     ................
   ce478:	ffffffff ffffffff ffffffff ffffffff     ................
   ce488:	ffffffff ffffffff ffffffff 3ef0ffff     ...............>
   ce498:	ffff03e0 00f8ffff ffffff03 ffffffff     ................
   ce4a8:	ffffffff ffffffff ffffffff ffffffff     ................
   ce4b8:	ffffffff ffffffff ffffffff ffffffff     ................
   ce4c8:	07c03df0 ffffffff ff0700f8 ffffffff     .=..............
   ce4d8:	ffffffff ffffffff ffffffff ffffffff     ................
   ce4e8:	ffffffff ffffffff ffffffff ffffffff     ................
   ce4f8:	18f8ffff ffff07c0 00f8ffff ffffff0f     ................
   ce508:	ffffffff ffffffff ffffffff ffffffff     ................
   ce518:	ffffffff ffffffff ffffffff ffffffff     ................
   ce528:	ffffffff 0fc031fc ffffffff ff0700f8     .....1..........
   ce538:	ffffffff ffffffff ffffffff ffffffff     ................
   ce548:	ffffffff ffffffff ffffffff ffffffff     ................
   ce558:	ffffffff 7400feff ffff1f00 00e0ffff     .......t........
   ce568:	ffffff03 ffffffff ffffffff ffffffff     ................
   ce578:	ffffffff ffffffff ffffffff ffffffff     ................
   ce588:	ffffffff feffffff 3f20e600 ffffffff     .......... ?....
   ce598:	ff010080 ffffffff ffffffff ffffffff     ................
   ce5a8:	ffffffff ffffffff ffffffff ffffffff     ................
   ce5b8:	ffffffff ffffffff dc00ffff ffff3f00     .............?..
   ce5c8:	0100ffff ffffff80 ffffffff ffffffff     ................
   ce5d8:	ffffffff ffffffff ffffffff ffffffff     ................
   ce5e8:	ffffffff ffffffff ffffffff 7f00ccc1     ................
   ce5f8:	fcffffff 7fe00100 ffffffff ffffffff     ................
   ce608:	ffffffff ffffffff ffffffff ffffffff     ................
   ce618:	ffffffff ffffffff ffffffff 08c3ffff     ................
   ce628:	ffffff30 0300f0ff ffff3ff0 ffffffff     0........?......
   ce638:	ffffffff ffffffff ffffffff ffffffff     ................
   ce648:	ffffffff ffffffff ffffffff ffffffff     ................
   ce658:	ff4010c2 e0ffffff 0ff80f00 ffffffff     ..@.............
   ce668:	ffffffff ffffffff ffffffff ffffffff     ................
   ce678:	ffffffff ffffffff ffffffff ffffffff     ................
   ce688:	1084ffff f0ffff01 3f000000 ffff07fc     ...........?....
   ce698:	ffffffff ffffffff ffffffff ffffffff     ................
   ce6a8:	ffffffff ffffffff ffffffff ffffffff     ................
   ce6b8:	ffffffff ff03208c 0000c0ff 07fcff00     ..... ..........
   ce6c8:	ffffffff ffffffff ffffffff ffffffff     ................
   ce6d8:	ffffffff ffffffff ffffffff ffffffff     ................
   ce6e8:	ffffffff 4000ffff c0ffff87 ff010000     .......@........
   ce6f8:	ff0300fe ffffffff ffffffff ffffffff     ................
   ce708:	ffffffff ffffffff ffffffff ffffffff     ................
   ce718:	ffffffff feffffff ff070010 000080ff     ................
   ce728:	00feff03 ffffff00 ffffffff ffffffff     ................
   ce738:	ffffffff ffffffff ffffffff ffffffff     ................
   ce748:	ffffffff ffffffff 8030fcff 00ffff0f     ..........0.....
   ce758:	00000000 7f00003e ffffffff ffffffff     ....>...........
   ce768:	ffffffff ffffffff ffffffff ffffffff     ................
   ce778:	ffffffff ffffffff fcffffff ff1f0001     ................
   ce788:	000000ff 00000000 ffff7f00 ffffffff     ................
   ce798:	ffffffff ffffffff ffffffff ffffffff     ................
   ce7a8:	ffffffff ffffffff ffffffff 0040f8ff     ..............@.
   ce7b8:	00ffff1f 00000000 0f000000 ffffffff     ................
   ce7c8:	ffffffff ffffffff ffffffff ffffffff     ................
   ce7d8:	ffffffff ffffffff ffffffff f8ffffff     ................
   ce7e8:	ff3f0082 000000ff 00000000 ffff0f00     ..?.............
   ce7f8:	ffffffff ffffffff ffffffff ffffffff     ................
   ce808:	ffffffff ffffffff ffffffff ffffffff     ................
   ce818:	0804f0ff 00fcff7f 00020000 1f000000     ................
   ce828:	ffffffff ffffffff ffffffff ffffffff     ................
   ce838:	ffffffff ffffffff ffffffff ffffffff     ................
   ce848:	e1ffffff ff7f0008 000000f0 c03ff803     ..............?.
   ce858:	ffffff07 ffffffff ffffffff ffffffff     ................
   ce868:	ffffffff ffffffff ffffffff ffffffff     ................
   ce878:	ffffffff 0008c0ff 00c0ffff f8030000     ................
   ce888:	ffffff7f ffffffff ffffffff ffffffff     ................
   ce898:	ffffffff ffffffff ffffffff ffffffff     ................
   ce8a8:	ffffffff c2ffffff fcff0110 00000000     ................
   ce8b8:	fffff803 ffffffff ffffffff ffffffff     ................
   ce8c8:	ffffffff ffffffff ffffffff ffffffff     ................
   ce8d8:	ffffffff ffffffff 010004ff 0000e0ff     ................
   ce8e8:	f8030000 ffffffff ffffffff ffffffff     ................
   ce8f8:	ffffffff ffffffff ffffffff ffffffff     ................
   ce908:	ffffffff ffffffff 84ffffff 00fe0320     ............ ...
   ce918:	fe070000 fffff903 ffffffff ffffffff     ................
   ce928:	ffffffff ffffffff ffffffff ffffffff     ................
   ce938:	ffffffff ffffffff ffffffff 074000fe     ..............@.
   ce948:	000000e0 ffffff3f ffffffff ffffffff     ....?...........
   ce958:	ffffffff ffffffff ffffffff ffffffff     ................
   ce968:	ffffffff ffffffff ffffffff 00feffff     ................
   ce978:	00000000 ffff0300 ffffffff ffffffff     ................
   ce988:	ffffffff ffffffff ffffffff ffffffff     ................
   ce998:	ffffffff ffffffff ffffffff ffffffff     ................
   ce9a8:	000010fc 1f000000 ffffffff ffffffff     ................
   ce9b8:	dfffffff f7ffffff ffffffff ffffffff     ................
   ce9c8:	9fffffff ffffffff ffffffff ffffffff     ................
   ce9d8:	20f8ffff 00000000 ffff7f00 ffffffff     ... ............
   ce9e8:	ffffffff ffff9fff fffff3ff fffffefb     ................
   ce9f8:	ff1f00fc ffff8fff ffff00fe ffffffff     ................
   cea08:	ffffffff 000000f0 ff030000 ffffffff     ................
   cea18:	ffffffff 9fffffff e003feff f8c1ff03     ................
   cea28:	0080ff03 8fffff03 00f0ffff ffffff1f     ................
   cea38:	ffffffff 40f0ffff 00000000 ffffff1f     .......@........
   cea48:	ffffffff ffffffff feff9fff ff010002     ................
   cea58:	ff01c081 ffc3ffc0 ff1b0038 ff1f0080     ........8.......
   cea68:	ffffffff ffffffff 000000f0 ffff0000     ................
   cea78:	ffffffff ffffffff 9fffffff 000efeff     ................
   cea88:	0003fe03 ffe3ff01 0000fee7 7c00ff03     ...............|
   cea98:	ffffff1f ffffffff 00e0ffff 03000000     ................
   ceaa8:	ffffffff ffffffff ffffffff fe0f80ff     ................
   ceab8:	feff063e ff7f0003 fe0f00e7 ff030700     >...............
   ceac8:	ff3ff800 ffffffff ffffffff 000000c0     ..?.............
   cead8:	ffff3f00 ffffffff ffffffff 00f0ffff     .?..............
   ceae8:	4efeff07 0c07ffff 00e0ff7f 0f00fe0f     ...N............
   ceaf8:	30fcffc7 ffffffff ffffffff 00c0ffff     ...0............
   ceb08:	ff0f0000 ffffffff ffffffff ffffffff     ................
   ceb18:	ff070000 ffffcc87 ff07fc87 ff1f00e0     ................
   ceb28:	ffcf0f07 ffff01ff ffffffff ffffffff     ................
   ceb38:	01000080 ffffffff ffffffff ffffffff     ................
   ceb48:	0000ffff 100ffe07 e0e7ff03 ffe3ff01     ................
   ceb58:	008fffdf 87ffff0f ffffffff ffffffff     ................
   ceb68:	0000ffff ffff1f00 ffffffff ffffffff     ................
   ceb78:	ffffffff feff1f00 ff03001e ff0100e7     ................
   ceb88:	ff1f00e7 ff0f0088 ffffc7ff ffffffff     ................
   ceb98:	feffffff ff030000 ffffffff ffffffff     ................
   ceba8:	ffffffff 8f03ffff 00feffff 00e7ff03     ................
   cebb8:	00e0ff03 0080ff1f 00f0ff1f ffffff7f     ................
   cebc8:	ffffffff 0000fcff ffffff07 ffffffff     ................
   cebd8:	ffffffff ffffffff ffff07ff ffff04c6     ................
   cebe8:	ffff3ce7 ff1f18c0 ff1f1f80 ff000080     .<..............
   cebf8:	ffffffff f8ffffff ff0f0000 ffffffff     ................
   cec08:	ffffffff ffffffff 07ffffff fc0fffff     ................
   cec18:	fce7ffff 3b87ffff 3f82ffff 0000fc1f     .......;...?....
   cec28:	ffffff00 ffffffff 0000f0ff ffffff0f     ................
   cec38:	ffffffff ffffffff ffffffff feff23ff     .............#..
   cec48:	ff03e01f ff07e0e7 ffff3bff f81f3f9e     .........;...?..
   cec58:	ff01e700 ffffffff e0ffffff ff1f0000     ................
   cec68:	ffffffff ffffffff ffffffff 71feffff     ...............q
   cec78:	00feffff 00e7ff01 3bffff03 003effcf     ...........;..>.
   cec88:	e70ff83f ffffffc3 ffffffff 0000c0ff     ?...............
   cec98:	ffffff3f ffffffff ffffffff ffffffff     ?...............
   ceca8:	ffff78fc ff0300e6 ff0300e7 ff0733c3     .x...........3..
   cecb8:	fc3f0038 ffffe77f ffffffff 00ffffff     8.?.............
   cecc8:	ff3f0000 ffffffff ffffffff ffffffff     ..?.............
   cecd8:	f8fcffff 1c8eff7f 1ce7ffff 33c3ff7f     ...............3
   cece8:	0000ff8f e7ffff3f ffffffff ffffffff     ....?...........
   cecf8:	000000f8 ffffff7f ffffffff ffffffff     ................
   ced08:	ffffffff ff3ffcf8 fffffd1f ff7ffce7     ......?.........
   ced18:	ffff33c7 ffff3f00 ffffe7ff ffffffff     .3...?..........
   ced28:	0000f0ff ffff0000 ffffffff ffffffff     ................
   ced38:	ffffffff fcf1ffff 3d00fe0f fce7ffff     ...........=....
   ced48:	00febf7f 3f1effff c7ff7fff ffffffff     .......?........
   ced58:	80ffffff 00000000 ffffffff ffffffff     ................
   ced68:	ffffffff ffffffff fe03fec3 bf3f0000     ..............?.
   ced78:	7f0080e7 7f1e00c0 7ffc3f7f ffffcfff     .........?......
   ced88:	ffffffff 000000fe ffff0100 ffffffff     ................
   ced98:	ffffffff ffffffff fe07fcff 00007e00     .............~..
   ceda8:	00e47f00 00007c00 00ff7f00 8fff7f18     .....|..........
   cedb8:	ffffffff 00f8ffff 01000000 ffffffff     ................
   cedc8:	ffffffff ffffffff fcffffff fe00ff0f     ................
   cedd8:	7f00c0ff fc0000e4 ff00fe07 ff0000ff     ................
   cede8:	ffff0ffe ffffffff 000000f8 ffff0300     ................
   cedf8:	ffffffff ffffffff ffffffff ff3ffcff     ..............?.
   cee08:	fcffff01 1fe4ff00 ff3ffcf0 00ffffc0     ..........?.....
   cee18:	1fe0ff00 ffffffff 00feffff 07000000     ................
   cee28:	ffffffff ffffffff ffffffff ffffffff     ................
   cee38:	ff83ffff ff80ffff ffffffef fff1ffff     ................
   cee48:	ff00feff ffff7ff8 ffffffff 0000c0ff     ................
   cee58:	ffff0700 ffffffff ffffffff ffffffff     ................
   cee68:	ffffffff ffffffff fff7ffe3 ffffffff     ................
   cee78:	ffffffff ffffff81 ffffffff 80ffffff     ................
   cee88:	0f000000 ffffffff ffffffff ffffffff     ................
   cee98:	ffffffff ffffffff ffffffff ffffffff     ................
   ceea8:	ffffffff ffffffff ffffffff ffffffff     ................
   ceeb8:	000080ff ffff0f00 ffffffff ffffffff     ................
   ceec8:	ffffffff ffffffff ffffffff ffffffff     ................
   ceed8:	ffffffff ffffffff ffffffff ffffffff     ................
   ceee8:	00ffffff 1f000000 ffffffff ffffffff     ................
   ceef8:	ffffffff ffffffff ffffffff ffffffff     ................
   cef08:	ffffffff ffffffff ffffffff ffffffff     ................
   cef18:	ffffffff 000000f8 ffff1f00 ffffffff     ................
   cef28:	ffffffff ffffffff ffffffff ffffffff     ................
   cef38:	ffffffff ffffffff ffffffff ffffffff     ................
   cef48:	ffffffff 00f0ffff 1f000000 ffffffff     ................
   cef58:	ffffffff ffffffff ffffffff ffffffff     ................
   cef68:	ffffffff ffffffff ffffffff ffffffff     ................
   cef78:	ffffffff ffffffff 000000e0 ffff3f00     .............?..
   cef88:	ffffffff ffffffff ffffffff ffffffff     ................
   cef98:	ffffffff ffffffff ffffffff ffffffff     ................
   cefa8:	ffffffff ffffffff 0000ffff 3f000000     ...............?
   cefb8:	ffffffff ffffffff ffffffff ffffffff     ................
   cefc8:	ffffffff ffffffff ffffffff ffffffff     ................
   cefd8:	ffffffff ffffffff feffffff 00000000     ................
   cefe8:	ffff7f00 ffffffff ffffffff ffffffff     ................
   ceff8:	ffffffff ffffffff ffffffff 7ffc7ffc     ................
   cf008:	fff8ffff ffffffff ffffffff 0000feff     ................
   cf018:	ff000000 ffffffff ffffffff ffffffff     ................
   cf028:	ffffffff ffffffff ffffffff fffbffff     ................
   cf038:	fffffffb fffffff7 ffffffff feffffff     ................
   cf048:	00000000 ffffff01 ffffffff ffffffff     ................
   cf058:	ffffffff ffffffff ffffffff ffffffff     ................
   cf068:	eff7fff7 ffefffff ffffffff ffffffff     ................
   cf078:	0000feff ff010000 ffffffff ffffffff     ................
   cf088:	ffffffff ffffffff ffffffff ffffffff     ................
   cf098:	fff7ffff ffffeff7 ffffffef ffffffff     ................
   cf0a8:	feffffff 00000000 ffffff03 ffffffff     ................
   cf0b8:	ffffffff ffffffff ffffffff ffffffff     ................
   cf0c8:	ffffffff ffe7ffe7 ffefffff ffffffff     ................
   cf0d8:	ffffffff 0000feff ff030000 ffffffff     ................
   cf0e8:	ffffffff ffffffff ffffffff ffffffff     ................
   cf0f8:	ffffffff ffefffff ffffffef ffffffcf     ................
   cf108:	ffffffff fcffffff 00000000 ffffff03     ................
   cf118:	ffffffff ffffffff ffffffff ee86ffff     ................
   cf128:	7f37bc1b 1f7e78f8 8f0fff0f c3df898f     ..7..x~.........
   cf138:	c4f1bfe7 ffffffff 0000feff ff070000     ................
   cf148:	ffffffff ffffffff ffffffff feffffff     ................
   cf158:	b233e94c 76f67f67 fecf9e7d 456f5fcf     L.3.g..v}...._oE
   cf168:	bfd3b3df ffffa2ed feffffff 00000100     ................
   cf178:	ffffff07 ffffffff ffffffff ffffffff     ................
   cf188:	ebccfeff 7f67b633 dd7df7ee dfcffdcf     ....3.g...}.....
   cf198:	77dfdd7f e6cfbffb ffffffff 0000feff     ...w............
   cf1a8:	ff070000 ffffffff ffffffff ffffffff     ................
   cf1b8:	ffffffff bc77ee9d efee7fef fdcfdd7b     ......w.....{...
   cf1c8:	dd3f9fcf bff977df ffffeedf feffffff     ..?..w..........
   cf1d8:	00000000 ffffff0f ffffffff ffffffff     ................
   cf1e8:	ffffffff de9dffff ffee7c77 db7befdc     ........w|....{.
   cf1f8:	9f8f0b8f e79ebdbf ce9f7ffd ffffffff     ................
   cf208:	0000feff ff0f0000 ffffffff ffffffff     ................
   cf218:	ffffffff ffffffff 7c77de9d efdcffee     ..........w|....
   cf228:	fb9fdb7b bbdfbf9f 7ffde7be ffffdd9f     {...............
   cf238:	feffffff 00000000 ffffff0f ffffffff     ................
   cf248:	ffffffff ffffffff be99ffff ffcdfc66     ............f...
   cf258:	bbfbeedc 3d9ffb9f e7b6bbdf dd9f7ffd     .......=........
   cf268:	ffffffff 0000feff ff1f0000 ffffffff     ................
   cf278:	ffffffff ffffffff ffffffff fc557e95     .............~U.
   cf288:	e6d9f7ab fb17bbf9 b7df2d17 f7fcc3ae     .........-......
   cf298:	ff7fdd9b feffffff 00000000 ffffff1f     ................
   cf2a8:	ffffffff ffffffff ffffffff fe8cffff     ................
   cf2b8:	e767fc33 78f8e1c5 1e8ff88f 279e0f3f     3.g....x....?..'
   cf2c8:	fcc7e7fc ffffffff 0000feff ff1f0020     ............ ...
   cf2d8:	ffffffff ffffffff ffffffff ffffffff     ................
   cf2e8:	ffffffff ffcdffff ffffffff 3fffffff     ...............?
   cf2f8:	fffdffff ffffffff feffffff 00fc0100     ................
   cf308:	ffffff1f ffffffff ffffffff ffffffff     ................
   cf318:	ffffffff ffffffff ffffffbd ffffffff     ................
   cf328:	ffff7fff fffffffb ffffffff ff05ffff     ................
   cf338:	ffffffff ffffffff ffffffff ffffffff     ................
   cf348:	ffffffff ffffffff ff79ffff ffffffff     ..........y.....
   cf358:	7fffffff fffbffff ffffffff ffffffff     ................
   cf368:	ffffffff ffffffff ffffffff ffffffff     ................
   cf378:	ffffffff ffffffff ffffffff ffffff79     ............y...
   cf388:	ffffffff ffff7ffe fffffff7 ffffffff     ................
   cf398:	ffffffff ffffffff ffffffff ffffffff     ................
   cf3a8:	ffffffff ffffffff ffffffff ff73ffff     ..............s.
   cf3b8:	ffffffff 1ffcffff ff0fffff ffffffff     ................
   cf3c8:	ffffffff ffffffff ffffffff ffffffff     ................
   cf3d8:	ffffffff ffffffff ffffffff ffffffff     ................
   cf3e8:	ffffff87 ffffffff ffffffff ffffffff     ................
   cf3f8:	ffffffff ffffffff ffffffff ffffffff     ................
   cf408:	ffffffff ffffffff ffffffff ffffffff     ................
   cf418:	ffffffff ffffffff ffffffff ffffffff     ................
   cf428:	ffffffff ffffffff ffffffff ffffffff     ................
   cf438:	ffffffff ffffffff ffffffff ffffffff     ................
   cf448:	ffffffff ffffffff ffffffff ffffffff     ................
   cf458:	ffffffff ffffffff ffffffff ffffffff     ................
   cf468:	ffffffff ffffffff ffffffff ffffffff     ................
   cf478:	ffffffff ffffffff ffffffff ffffffff     ................
   cf488:	ffffffff ffffffff ffffffff ffffffff     ................
   cf498:	ffffffff ffffffff ffffffff ffffffff     ................
   cf4a8:	ffffffff ffffffff ffffffff ffffffff     ................
   cf4b8:	ffffffff ffffffff ffffffff ffffffff     ................
   cf4c8:	ffffffff ffffffff ffffffff ffffffff     ................
   cf4d8:	ffffffff ffffffff ffffffff ffffffff     ................
   cf4e8:	ffffffff ffffffff ffffffff ffffffff     ................
   cf4f8:	ffffffff ffffffff ffffffff ffffffff     ................
   cf508:	ffffffff ffffffff ffffffff ffffffff     ................
   cf518:	ffffffff ffffffff ffffffff ffffffff     ................
   cf528:	ffffffff ffffffff ffffffff ffffffff     ................
   cf538:	ffffffff ffffffff ffffffff ffffffff     ................
   cf548:	ffffffff ffffffff ffffffff ffffffff     ................
   cf558:	ffffffff ffffffff ffffffff ffffffff     ................
   cf568:	ffffffff ffffffff ffffffff ffffffff     ................
   cf578:	ffffffff ffffffff ffffffff ffffffff     ................
   cf588:	ffffffff ffffffff ffffffff ffffffff     ................
   cf598:	ffffffff ffffffff ffffffff ffffffff     ................
   cf5a8:	ffffffff ffffffff ffffffff ffffffff     ................
   cf5b8:	ffffffff ffffffff ffffffff ffffffff     ................
   cf5c8:	ffffffff ffffffff ffffffff ffffffff     ................
   cf5d8:	ffffffff ffffffff ffffffff ffffffff     ................
   cf5e8:	ffffffff ffffffff ffffffff ffffffff     ................
   cf5f8:	ffffffff ffffffff ffffffff ffffffff     ................
   cf608:	ffffffff ffffffff ffffffff ffffffff     ................
   cf618:	ffffffff ffffffff ffffffff ffffffff     ................
   cf628:	ffffffff ffffffff ffffffff ffffffff     ................
   cf638:	ffffffff ffffffff ffffffff ffffffff     ................
   cf648:	ffffffff ffffffff ffffffff ffffffff     ................
   cf658:	ffffffff ffffffff ffffffff ffffffff     ................
   cf668:	ffffffff ffffffff ffffffff ffffffff     ................
   cf678:	ffffffff ffffffff ffffffff ffffffff     ................
   cf688:	ffffffff ffffffff ffffffff ffffffff     ................
   cf698:	ffffffff ffffffff ffffffff ffffffff     ................
   cf6a8:	ffffffff ffffffff ffffffff ffffffff     ................
   cf6b8:	ffffffff ffffffff ffffffff ffffffff     ................
   cf6c8:	ffffffff ffffffff ffffffff ffffffff     ................
   cf6d8:	ffffffff ffffffff ffffffff ffffffff     ................
   cf6e8:	ffffffff ffffffff ffffffff ffffffff     ................
   cf6f8:	ffffffff ffffffff                       ........

000cf700 <_ZL23Bitmap3c400x300_2_black>:
   cf700:	ffffffff ffffffff ffffffff ffffffff     ................
   cf710:	ffffffff ffffffff ffffffff ffffffff     ................
   cf720:	ffffffff ffffffff ffffffff ffffffff     ................
   cf730:	ffffffff ffffffff ffffffff ffffffff     ................
   cf740:	ffffffff ffffffff ffffffff ffffffff     ................
   cf750:	ffffffff ffffffff ffffffff ffffffff     ................
   cf760:	ffffffff ffffffff ffffffff ffffffff     ................
   cf770:	ffffffff ffffffff ffffffff ffffffff     ................
   cf780:	ffffffff ffffffff ffffffff ffffffff     ................
   cf790:	ffffffff ffffffff ffffffff ffffffff     ................
   cf7a0:	ffffffff ffffffff ffffffff ffffffff     ................
   cf7b0:	ffffffff ffffffff ffffffff ffffffff     ................
   cf7c0:	ffffffff ffffffff ffffffff ffffffff     ................
   cf7d0:	ffffffff ffffffff ffffffff ffffffff     ................
   cf7e0:	ffffffff ffffffff ffffffff ffffffff     ................
   cf7f0:	ffffffff ffffffff ffffffff ffffffff     ................
   cf800:	ffffffff ffffffff ffffffff ffffffff     ................
   cf810:	ffffffff ffffffff ffffffff ffffffff     ................
   cf820:	ffffffff ffffffff ffffffff ffffffff     ................
   cf830:	ffffffff ffffffff ffffffff ffffffff     ................
   cf840:	ffffffff ffffffff ffffffff ffffffff     ................
   cf850:	ffffffff ffffffff ffffffff ffffffff     ................
   cf860:	ffffffff ffffffff ffffffff ffffffff     ................
   cf870:	ffffffff ffffffff ffffffff ffffffff     ................
   cf880:	ffffffff ffffffff ffffffff ffffffff     ................
   cf890:	ffffffff ffffffff ffffffff ffffffff     ................
   cf8a0:	ffffffff ffffffff ffffffff ffffffff     ................
   cf8b0:	ffffffff ffffffff ffffffff ffffffff     ................
   cf8c0:	ffffffff ffffffff ffffffff ffffffff     ................
   cf8d0:	ffffffff ffffffff ffffffff ffffffff     ................
   cf8e0:	ffffffff ffffffff ffffffff ffffffff     ................
   cf8f0:	ffffffff ffffffff ffffffff ffffffff     ................
   cf900:	ffffffff ffffffff ffffffff ffffffff     ................
   cf910:	ffffffff ffffffff ffffffff ffffffff     ................
   cf920:	ffffffff ffffffff ffffffff ffffffff     ................
   cf930:	ffffffff ffffffff ffffffff ffffffff     ................
   cf940:	ffffffff ffffffff ffffffff ffffffff     ................
   cf950:	ffffffff ffffffff ffffffff ffffffff     ................
   cf960:	ffffffff ffffffff ffffffff ffffffff     ................
   cf970:	ffffffff ffffffff ffffffff ffffffff     ................
   cf980:	ffffffff ffffffff ffffffff ffffffff     ................
   cf990:	ffffffff ffffffff ffffffff ffffffff     ................
   cf9a0:	ffffffff ffffffff ffffffff ffffffff     ................
   cf9b0:	ffffffff ffffffff ffffffff ffffffff     ................
   cf9c0:	ffffffff ffffffff ffffffff ffffffff     ................
   cf9d0:	ffffffff ffffffff ffffffff ffffffff     ................
   cf9e0:	ffffffff ffffffff ffffffff ffffffff     ................
   cf9f0:	ffffffff ffffffff ffffffff ffffffff     ................
   cfa00:	ffffffff ffffffff ffffffff ffffffff     ................
   cfa10:	ffffffff ffffffff ffffffff ffffffff     ................
   cfa20:	ffffffff ffffffff ffffffff ffffffff     ................
   cfa30:	ffffffff ffffffff ffffffff ffffffff     ................
   cfa40:	ffffffff ffffffff ffffffff ffffffff     ................
   cfa50:	ffffffff ffffffff ffffffff ffffffff     ................
   cfa60:	ffffffff ffffffff ffffffff ffffffff     ................
   cfa70:	ffffffff ffffffff ffffffff ffffffff     ................
   cfa80:	ffffffff ffffffff ffffffff ffffffff     ................
   cfa90:	ffffffff ffffffff ffffffff ffffffff     ................
   cfaa0:	ffffffff ffffffff ffffffff ffffffff     ................
   cfab0:	ffffffff ffffffff ffffffff ffffffff     ................
   cfac0:	ffffffff ffffffff ffffffff ffffffff     ................
   cfad0:	ffffffff ffffffff ffffffff ffffffff     ................
   cfae0:	ffffffff ffffffff ffffffff ffffffff     ................
   cfaf0:	ffffffff ffffffff ffffffff ffffffff     ................
   cfb00:	ffffffff ffffffff ffffffff ffffffff     ................
   cfb10:	ffffffff ffffffff ffffffff ffffffff     ................
   cfb20:	ffffffff ffffffff ffffffff ffffffff     ................
   cfb30:	ffffffff ffffffff ffffffff ffffffff     ................
   cfb40:	ffffffff ffffffff ffffffff ffffffff     ................
   cfb50:	ffffffff ffffffff ffffffff ffffffff     ................
   cfb60:	ffffffff ffffffff ffffffff ffffffff     ................
   cfb70:	ffffffff ffffffff ffffffff ffffffff     ................
   cfb80:	ffffffff ffffffff ffffffff ffffffff     ................
   cfb90:	ffffffff ffffffff ffffffff ffffffff     ................
   cfba0:	ffffffff ffffffff ffffffff ffffffff     ................
   cfbb0:	ffffffff ffffffff ffffffff ffffffff     ................
   cfbc0:	ffffffff ffffffff ffffffff ffffffff     ................
   cfbd0:	ffffffff ffffffff ffffffff ffffffff     ................
   cfbe0:	ffffffff ffffffff ffffffff ffffffff     ................
   cfbf0:	ffffffff ffffffff ffffffff ffffffff     ................
   cfc00:	ffffffff ffffffff ffffffff ffffffff     ................
   cfc10:	ffffffff ffffffff ffffffff ffffffff     ................
   cfc20:	ffffffff ffffffff ffffffff ffffffff     ................
   cfc30:	ffffffff ffffffff ffffffff ffffffff     ................
   cfc40:	ffffffff ffffffff ffffffff ffffffff     ................
   cfc50:	ffffffff ffffffff ffffffff ffffffff     ................
   cfc60:	7c0c32ff 277cbef7 c8247c0c cfd99f3c     .2.|..|'.|$.<...
   cfc70:	bc3dd89f ffff3f1b ffffffff ffffffff     ..=..?..........
   cfc80:	ffffffff ffffffff ffffffff ffffffff     ................
   cfc90:	32ffffff bef77c0c 7c0c277c 9f3cc824     ...2.|..|'.|$.<.
   cfca0:	d89fcfd9 3f1bbc3d ffffffff ffffffff     ....=..?........
   cfcb0:	ffffffff ffffffff ffffffff ffffffff     ................
   cfcc0:	ffffffff 7c0c32ff 277cbef7 c8247c0c     .....2.|..|'.|$.
   cfcd0:	cfd99f3c bc3dd89f ffff3f1b ffffffff     <.....=..?......
   cfce0:	ffffffff ffffffff ffffffff ffffffff     ................
   cfcf0:	ffffffff 32ffffff bef77c0c 7c0c277c     .......2.|..|'.|
   cfd00:	9f3cc824 d89fcfd9 3f1bbc3d ffffffff     $.<.....=..?....
   cfd10:	ffffffff ffffffff ffffffff ffffffff     ................
   cfd20:	ffffffff ffffffff 7c0c32ff 277cbef7     .........2.|..|'
   cfd30:	c8247c0c cfd99f3c bc3dd89f ffff3f1b     .|$.<.....=..?..
   cfd40:	ffffffff ffffffff ffffffff ffffffff     ................
   cfd50:	ffffffff ffffffff 32ffffff bef77c0c     ...........2.|..
   cfd60:	7c0c277c 9f3cc824 d89fcfd9 3f1bbc3d     |'.|$.<.....=..?
   cfd70:	ffffffff ffffffff ffffffff ffffffff     ................
   cfd80:	ffffffff ffffffff ffffffff 7c0c32ff     .............2.|
   cfd90:	277cbef7 c8247c0c cfd99f3c bc3dd89f     ..|'.|$.<.....=.
   cfda0:	ffff3f1b ffffffff ffffffff ffffffff     .?..............
   cfdb0:	ffffffff ffffffff ffffffff 32ffffff     ...............2
   cfdc0:	bef77c0c 7c0c277c 9f3cc824 d89fcfd9     .|..|'.|$.<.....
   cfdd0:	3f1bbc3d ffffffff ffffffff ffffffff     =..?............
   cfde0:	ffffffff ffffffff ffffffff ffffffff     ................
   cfdf0:	7c0c32ff 277cbef7 c8247c0c cfd99f3c     .2.|..|'.|$.<...
   cfe00:	bc3dd89f ffff3f1b ffffffff ffffffff     ..=..?..........
   cfe10:	ffffffff ffffffff ffffffff ffffffff     ................
   cfe20:	32ffffff bef77c0c 7c0c277c 9f3cc824     ...2.|..|'.|$.<.
   cfe30:	d89fcfd9 3f1bbc3d ffffffff ffffffff     ....=..?........
   cfe40:	ffffffff ffffffff ffffffff ffffffff     ................
   cfe50:	ffffffff 7c0c32ff 277cbef7 c8247c0c     .....2.|..|'.|$.
   cfe60:	cfd99f3c bc3dd89f ffff3f1b ffffffff     <.....=..?......
   cfe70:	ffffffff ffffffff ffffffff ffffffff     ................
   cfe80:	ffffffff 32ffffff bef77c0c 7c0c277c     .......2.|..|'.|
   cfe90:	9f3cc824 d89fcfd9 3f1bbc3d ffffffff     $.<.....=..?....
   cfea0:	ffffffff ffffffff ffffffff ffffffff     ................
   cfeb0:	ffffffff ffffffff 7c0c32ff 277cbef7     .........2.|..|'
   cfec0:	c8247c0c cfd99f3c bc3dd89f ffff3f1b     .|$.<.....=..?..
   cfed0:	ffffffff ffffffff ffffffff ffffffff     ................
   cfee0:	ffffffff ffffffff 32ffffff bef77c0c     ...........2.|..
   cfef0:	7c0c277c 9f3cc824 d89fcfd9 3f1bbc3d     |'.|$.<.....=..?
   cff00:	ffffffff ffffffff ffffffff ffffffff     ................
   cff10:	ffffffff ffffffff ffffffff 7c0c32ff     .............2.|
   cff20:	277cbef7 c8247c0c cfd99f3c bc3dd89f     ..|'.|$.<.....=.
   cff30:	ffff3f1b ffffffff ffffffff ffffffff     .?..............
   cff40:	ffffffff ffffffff ffffffff 32ffffff     ...............2
   cff50:	bef77c0c 7c0c277c 9f3cc824 d89fcfd9     .|..|'.|$.<.....
   cff60:	3f1bbc3d ffffffff ffffffff ffffffff     =..?............
   cff70:	ffffffff ffffffff ffffffff ffffffff     ................
   cff80:	7c0c32ff 277cbef7 c8247c0c cfd99f3c     .2.|..|'.|$.<...
   cff90:	bc3dd89f ffff3f1b ffffffff ffffffff     ..=..?..........
   cffa0:	ffffffff ffffffff ffffffff ffffffff     ................
   cffb0:	32ffffff bef77c0c 7c0c277c 9f3cc824     ...2.|..|'.|$.<.
   cffc0:	d89fcfd9 3f1bbc3d ffffffff ffffffff     ....=..?........
   cffd0:	ffffffff ffffffff ffffffff ffffffff     ................
   cffe0:	ffffffff 7c0c32ff 277cbef7 c8247c0c     .....2.|..|'.|$.
   cfff0:	cfd99f3c bc3dd89f ffff3f1b ffffffff     <.....=..?......
   d0000:	ffffffff ffffffff ffffffff ffffffff     ................
   d0010:	ffffffff 32ffffff bef77c0c 7c0c277c     .......2.|..|'.|
   d0020:	9f3cc824 d89fcfd9 3f1bbc3d ffffffff     $.<.....=..?....
   d0030:	ffffffff ffffffff ffffffff ffffffff     ................
   d0040:	ffffffff ffffffff 7c0c32ff 277cbef7     .........2.|..|'
   d0050:	c8247c0c cfd99f3c bc3dd89f ffff3f1b     .|$.<.....=..?..
   d0060:	ffffffff ffffffff ffffffff ffffffff     ................
   d0070:	ffffffff ffffffff 32ffffff bef77c0c     ...........2.|..
   d0080:	7c0c277c 9f3cc824 d89fcfd9 3f1bbc3d     |'.|$.<.....=..?
   d0090:	ffffffff ffffffff ffffffff ffffffff     ................
   d00a0:	ffffffff ffffffff ffffffff 7c0c32ff     .............2.|
   d00b0:	277cbef7 c8247c0c cfd99f3c bc3dd89f     ..|'.|$.<.....=.
   d00c0:	ffff3f1b ffffffff ffffffff ffffffff     .?..............
   d00d0:	ffffffff ffffffff ffffffff 32ffffff     ...............2
   d00e0:	bef77c0c 7c0c277c 9f3cc824 d89fcfd9     .|..|'.|$.<.....
   d00f0:	3f1bbc3d ffffffff ffffffff ffffffff     =..?............
   d0100:	ffffffff ffffffff ffffffff ffffffff     ................
   d0110:	7c0c32ff 277cbef7 c8247c0c cfd99f3c     .2.|..|'.|$.<...
   d0120:	bc3dd89f ffff3f1b ffffffff ffffffff     ..=..?..........
   d0130:	ffffffff ffffffff ffffffff ffffffff     ................
   d0140:	32ffffff bef77c0c 7c0c277c 9f3cc824     ...2.|..|'.|$.<.
   d0150:	d89fcfd9 3f1bbc3d ffffffff ffffffff     ....=..?........
   d0160:	ffffffff ffffffff ffffffff ffffffff     ................
   d0170:	ffffffff 7c0c32ff 277cbef7 c8247c0c     .....2.|..|'.|$.
   d0180:	cfd99f3c bc3dd89f ffff3f1b ffffffff     <.....=..?......
   d0190:	ffffffff ffffffff ffffffff ffffffff     ................
   d01a0:	ffffffff 32ffffff bef77c0c 7c0c277c     .......2.|..|'.|
   d01b0:	9f3cc824 d89fcfd9 3f1bbc3d ffffffff     $.<.....=..?....
   d01c0:	ffffffff ffffffff ffffffff ffffffff     ................
   d01d0:	ffffffff ffffffff 7c0c32ff 277cbef7     .........2.|..|'
   d01e0:	c8247c0c cfd99f3c bc3dd89f ffff3f1b     .|$.<.....=..?..
   d01f0:	ffffffff ffffffff ffffffff ffffffff     ................
   d0200:	ffffffff ffffffff 32ffffff bef77c0c     ...........2.|..
   d0210:	7c0c277c 9f3cc824 d89fcfd9 3f1bbc3d     |'.|$.<.....=..?
   d0220:	ffffffff ffffffff ffffffff ffffffff     ................
   d0230:	ffffffff ffffffff ffffffff 7c0c32ff     .............2.|
   d0240:	277cbef7 c8247c0c cfd99f3c bc3dd89f     ..|'.|$.<.....=.
   d0250:	ffff3f1b ffffffff ffffffff ffffffff     .?..............
   d0260:	ffffffff ffffffff ffffffff 32ffffff     ...............2
   d0270:	bef77c0c 7c0c277c 9f3cc824 d89fcfd9     .|..|'.|$.<.....
   d0280:	3f1bbc3d ffffffff ffffffff ffffffff     =..?............
   d0290:	ffffffff ffffffff ffffffff ffffffff     ................
   d02a0:	7c0c32ff 277cbef7 c8247c0c cfd99f3c     .2.|..|'.|$.<...
   d02b0:	bc3dd89f ffff3f1b ffffffff ffffffff     ..=..?..........
   d02c0:	ffffffff ffffffff ffffffff ffffffff     ................
   d02d0:	32ffffff bef77c0c 7c0c277c 9f3cc824     ...2.|..|'.|$.<.
   d02e0:	d89fcfd9 3f1bbc3d ffffffff ffffffff     ....=..?........
   d02f0:	ffffffff ffffffff ffffffff ffffffff     ................
   d0300:	ffffffff 7c0c32ff 277cbef7 c8247c0c     .....2.|..|'.|$.
   d0310:	cfd99f3c bc3dd89f ffff3f1b ffffffff     <.....=..?......
   d0320:	ffffffff ffffffff ffffffff ffffffff     ................
   d0330:	ffffffff 32ffffff bef77c0c 7c0c277c     .......2.|..|'.|
   d0340:	9f3cc824 d89fcfd9 3f1bbc3d ffffffff     $.<.....=..?....
   d0350:	ffffffff ffffffff ffffffff ffffffff     ................
   d0360:	ffffffff ffffffff 7c0c32ff 277cbef7     .........2.|..|'
   d0370:	c8247c0c cfd99f3c bc3dd89f ffff3f1b     .|$.<.....=..?..
   d0380:	ffffffff ffffffff ffffffff ffffffff     ................
   d0390:	ffffffff ffffffff 32ffffff bef77c0c     ...........2.|..
   d03a0:	7c0c277c 9f3cc824 d89fcfd9 3f1bbc3d     |'.|$.<.....=..?
   d03b0:	ffffffff ffffffff ffffffff ffffffff     ................
   d03c0:	ffffffff ffffffff ffffffff 7c0c32ff     .............2.|
   d03d0:	277cbef7 c8247c0c cfd99f3c bc3dd89f     ..|'.|$.<.....=.
   d03e0:	ffff3f1b ffffffff ffffffff ffffffff     .?..............
   d03f0:	ffffffff ffffffff ffffffff 32ffffff     ...............2
   d0400:	bef77c0c 7c0c277c 9f3cc824 d89fcfd9     .|..|'.|$.<.....
   d0410:	3f1bbc3d ffffffff ffffffff ffffffff     =..?............
   d0420:	ffffffff ffffffff ffffffff ffffffff     ................
   d0430:	7c0c32ff 277cbef7 c8247c0c cfd99f3c     .2.|..|'.|$.<...
   d0440:	bc3dd89f ffff3f1b ffffffff ffffffff     ..=..?..........
   d0450:	ffffffff ffffffff ffffffff ffffffff     ................
   d0460:	32ffffff bef77c0c 7c0c277c 9f3cc824     ...2.|..|'.|$.<.
   d0470:	d89fcfd9 3f1bbc3d ffffffff ffffffff     ....=..?........
   d0480:	ffffffff ffffffff ffffffff ffffffff     ................
   d0490:	ffffffff 7c0c32ff 277cbef7 c8247c0c     .....2.|..|'.|$.
   d04a0:	cfd99f3c bc3dd89f ffff3f1b ffffffff     <.....=..?......
   d04b0:	ffffffff ffffffff ffffffff ffffffff     ................
   d04c0:	ffffffff 32ffffff bef77c0c 7c0c277c     .......2.|..|'.|
   d04d0:	9f3cc824 d89fcfd9 3f1bbc3d ffffffff     $.<.....=..?....
   d04e0:	ffffffff ffffffff ffffffff ffffffff     ................
   d04f0:	ffffffff ffffffff 7c0c32ff 277cbef7     .........2.|..|'
   d0500:	c8247c0c cfd99f3c bc3dd89f ffff3f1b     .|$.<.....=..?..
   d0510:	ffffffff ffffffff ffffffff ffffffff     ................
   d0520:	ffffffff ffffffff 32ffffff bef77c0c     ...........2.|..
   d0530:	7c0c277c 9f3cc824 d89fcfd9 3f1bbc3d     |'.|$.<.....=..?
   d0540:	ffffffff ffffffff ffffffff ffffffff     ................
   d0550:	ffffffff ffffffff ffffffff 7c0c32ff     .............2.|
   d0560:	277cbef7 c8247c0c cfd99f3c bc3dd89f     ..|'.|$.<.....=.
   d0570:	ffff3f1b ffffffff ffffffff ffffffff     .?..............
   d0580:	ffffffff ffffffff ffffffff 32ffffff     ...............2
   d0590:	bef77c0c 7c0c277c 9f3cc824 d89fcfd9     .|..|'.|$.<.....
   d05a0:	3f1bbc3d ffffffff ffffffff ffffffff     =..?............
   d05b0:	ffffffff ffffffff ffffffff ffffffff     ................
   d05c0:	7c0c32ff 277cbef7 c8247c0c cfd99f3c     .2.|..|'.|$.<...
   d05d0:	bc3dd89f ffff3f1b ffffffff ffffffff     ..=..?..........
   d05e0:	ffffffff ffffffff ffffffff ffffffff     ................
   d05f0:	32ffffff bef77c0c 7c0c277c 9f3cc824     ...2.|..|'.|$.<.
   d0600:	d89fcfd9 3f1bbc3d ffffffff ffffffff     ....=..?........
   d0610:	ffffffff ffffffff ffffffff ffffffff     ................
   d0620:	ffffffff 7c0c32ff 277cbef7 c8247c0c     .....2.|..|'.|$.
   d0630:	cfd99f3c bc3dd89f ffff3f1b ffffffff     <.....=..?......
   d0640:	ffffffff ffffffff ffffffff ffffffff     ................
   d0650:	ffffffff 32ffffff bef77c0c 7c0c277c     .......2.|..|'.|
   d0660:	9f3cc824 d89fcfd9 3f1bbc3d ffffffff     $.<.....=..?....
   d0670:	ffffffff ffffffff ffffffff ffffffff     ................
   d0680:	ffffffff ffffffff 7c0c32ff 277cbef7     .........2.|..|'
   d0690:	c8247c0c cfd99f3c bc3dd89f ffff3f1b     .|$.<.....=..?..
   d06a0:	ffffffff ffffffff ffffffff ffffffff     ................
   d06b0:	ffffffff ffffffff 32ffffff bef77c0c     ...........2.|..
   d06c0:	7c0c277c 9f3cc824 d89fcfd9 3f1bbc3d     |'.|$.<.....=..?
   d06d0:	ffffffff ffffffff ffffffff ffffffff     ................
   d06e0:	ffffffff ffffffff ffffffff 7c0c32ff     .............2.|
   d06f0:	277cbef7 c8247c0c cfd99f3c bc3dd89f     ..|'.|$.<.....=.
   d0700:	ffff3f1b ffffffff ffffffff ffffffff     .?..............
   d0710:	ffffffff ffffffff ffffffff 32ffffff     ...............2
   d0720:	bef77c0c 7c0c277c 9f3cc824 d89fcfd9     .|..|'.|$.<.....
   d0730:	3f1bbc3d ffffffff ffffffff ffffffff     =..?............
   d0740:	ffffffff ffffffff ffffffff ffffffff     ................
   d0750:	7c0c32ff 277cbef7 c8247c0c cfd99f3c     .2.|..|'.|$.<...
   d0760:	bc3dd89f ffff3f1b ffffffff ffffffff     ..=..?..........
   d0770:	ffffffff ffffffff ffffffff ffffffff     ................
   d0780:	32ffffff bef77c0c 7c0c277c 9f3cc824     ...2.|..|'.|$.<.
   d0790:	d89fcfd9 3f1bbc3d ffffffff ffffffff     ....=..?........
   d07a0:	ffffffff ffffffff ffffffff ffffffff     ................
   d07b0:	ffffffff 7c0c32ff 277cbef7 c8247c0c     .....2.|..|'.|$.
   d07c0:	cfd99f3c bc3dd89f ffff3f1b ffffffff     <.....=..?......
   d07d0:	ffffffff ffffffff ffffffff ffffffff     ................
   d07e0:	ffffffff 32ffffff bef77c0c 7c0c277c     .......2.|..|'.|
   d07f0:	9f3cc824 d89fcfd9 3f1bbc3d ffffffff     $.<.....=..?....
   d0800:	ffffffff ffffffff ffffffff ffffffff     ................
   d0810:	ffffffff ffffffff 7c0c32ff 277cbef7     .........2.|..|'
   d0820:	c8247c0c cfd99f3c bc3dd89f ffff3f1b     .|$.<.....=..?..
   d0830:	ffffffff ffffffff ffffffff ffffffff     ................
   d0840:	ffffffff ffffffff 32ffffff bef77c0c     ...........2.|..
   d0850:	7c0c277c 9f3cc824 d89fcfd9 3f1bbc3d     |'.|$.<.....=..?
   d0860:	ffffffff ffffffff ffffffff ffffffff     ................
   d0870:	ffffffff ffffffff ffffffff 7c0c32ff     .............2.|
   d0880:	277cbef7 c8247c0c cfd99f3c bc3dd89f     ..|'.|$.<.....=.
   d0890:	ffff3f1b ffffffff ffffffff ffffffff     .?..............
   d08a0:	ffffffff ffffffff ffffffff 32ffffff     ...............2
   d08b0:	bef77c0c 7c0c277c 9f3cc824 d89fcfd9     .|..|'.|$.<.....
   d08c0:	3f1bbc3d ffffffff ffffffff ffffffff     =..?............
   d08d0:	ffffffff ffffffff ffffffff ffffffff     ................
   d08e0:	7c0c32ff 277cbef7 c8247c0c cfd99f3c     .2.|..|'.|$.<...
   d08f0:	bc3dd89f ffff3f1b ffffffff ffffffff     ..=..?..........
   d0900:	ffffffff ffffffff ffffffff ffffffff     ................
   d0910:	32ffffff bef77c0c 7c0c277c 9f3cc824     ...2.|..|'.|$.<.
   d0920:	d89fcfd9 3f1bbc3d ffffffff ffffffff     ....=..?........
   d0930:	ffffffff ffffffff ffffffff ffffffff     ................
   d0940:	ffffffff 7c0c32ff 277cbef7 c8247c0c     .....2.|..|'.|$.
   d0950:	cfd99f3c bc3dd89f ffff3f1b ffffffff     <.....=..?......
   d0960:	ffffffff ffffffff ffffffff ffffffff     ................
   d0970:	ffffffff 32ffffff bef77c0c 7c0c277c     .......2.|..|'.|
   d0980:	9f3cc824 d89fcfd9 3f1bbc3d ffffffff     $.<.....=..?....
   d0990:	ffffffff ffffffff ffffffff ffffffff     ................
   d09a0:	ffffffff ffffffff 7c0c32ff 277cbef7     .........2.|..|'
   d09b0:	c8247c0c cfd99f3c bc3dd89f ffff3f1b     .|$.<.....=..?..
   d09c0:	ffffffff ffffffff ffffffff ffffffff     ................
   d09d0:	ffffffff ffffffff 32ffffff bef77c0c     ...........2.|..
   d09e0:	7c0c277c 9f3cc824 d89fcfd9 3f1bbc3d     |'.|$.<.....=..?
   d09f0:	ffffffff c0ffffff ffff1f00 0000f8ff     ................
   d0a00:	ff070000 000000c0 ffff3f00 7c0c32ff     .........?...2.|
   d0a10:	277cbef7 c8247c0c cfd99f3c bc3dd89f     ..|'.|$.<.....=.
   d0a20:	ffff3f1b ffffffff 010000fe e0ffffff     .?..............
   d0a30:	00000000 0000ff01 0f000000 32ffffff     ...............2
   d0a40:	bef77c0c 7c0c277c 9f3cc824 d89fcfd9     .|..|'.|$.<.....
   d0a50:	3f1bbc3d ffffffff 00f8ffff ff7f0000     =..?............
   d0a60:	0000e0ff ff010000 00000000 ffff0f00     ................
   d0a70:	7c0c32ff 277cbef7 c8247c0c cfd99f3c     .2.|..|'.|$.<...
   d0a80:	bc3dd89f ffff3f1b ffffffff 000000e0     ..=..?..........
   d0a90:	e0ffff3f 00000000 0000ff01 0f000000     ?...............
   d0aa0:	32ffffff bef77c0c 7c0c277c 9f3cc824     ...2.|..|'.|$.<.
   d0ab0:	d89fcfd9 3f1bbc3d ffffffff 0080ffff     ....=..?........
   d0ac0:	ff0f0000 0000e0ff ff010000 00000000     ................
   d0ad0:	ffff0f00 7c0c32ff 277cbef7 c8247c0c     .....2.|..|'.|$.
   d0ae0:	cfd99f3c bc3dd89f ffff3f1b ffffffff     <.....=..?......
   d0af0:	00000000 e0ffff07 00000000 0000ff01     ................
   d0b00:	0f000000 32ffffff bef77c0c 7c0c277c     .......2.|..|'.|
   d0b10:	9f3cc824 d89fcfd9 3f1bbc3d ffffffff     $.<.....=..?....
   d0b20:	0000feff ff030000 0000e0ff ff010000     ................
   d0b30:	00000000 ffff0f00 7c0c32ff 277cbef7     .........2.|..|'
   d0b40:	c8247c0c cfd99f3c bc3dd89f ffff3f1b     .|$.<.....=..?..
   d0b50:	fcffffff 00000000 e0ffff01 00000000     ................
   d0b60:	0000ff01 0f000000 32ffffff bef77c0c     ...........2.|..
   d0b70:	7c0c277c 9f3cc824 d89fcfd9 3f1bbc3d     |'.|$.<.....=..?
   d0b80:	ffffffff 0000f8ff ff000000 0000e0ff     ................
   d0b90:	ff010000 00000000 ffff0f00 7c0c32ff     .............2.|
   d0ba0:	277cbef7 c8247c0c cfd99f3c bc3dd89f     ..|'.|$.<.....=.
   d0bb0:	ffff3f1b f0ffffff 00000000 e0ff7f00     .?..............
   d0bc0:	00000000 0000ff01 0f000000 32ffffff     ...............2
   d0bd0:	bef77c0c 7c0c277c 9f3cc824 d89fcfd9     .|..|'.|$.<.....
   d0be0:	3f1bbc3d ffffffff 0000e0ff 3f000000     =..?...........?
   d0bf0:	0000e0ff ff010000 00000000 ffff0f00     ................
   d0c00:	7c0c32ff 277cbef7 c8247c0c cfd99f3c     .2.|..|'.|$.<...
   d0c10:	bc3dd89f ffff3f1b c0ffffff 80ff0700     ..=..?..........
   d0c20:	e0ff1f00 ffff7f00 0300ffff ffffffff     ................
   d0c30:	32ffffff bef77c0c 7c0c277c 9f3cc824     ...2.|..|'.|$.<.
   d0c40:	d89fcfd9 3f1bbc3d ffffffff 1f00c0ff     ....=..?........
   d0c50:	0f00c0ff ff00e0ff ffffffff ffff0700     ................
   d0c60:	ffffffff 7c0c32ff 277cbef7 c8247c0c     .....2.|..|'.|$.
   d0c70:	cfd99f3c bc3dd89f ffff3f1b 80ffffff     <.....=..?......
   d0c80:	f0ff7f00 e0ff0f00 ffffff00 0700ffff     ................
   d0c90:	ffffffff 32ffffff bef77c0c 7c0c277c     .......2.|..|'.|
   d0ca0:	9f3cc824 d89fcfd9 3f1bbc3d ffffffff     $.<.....=..?....
   d0cb0:	ff0080ff 0700f8ff ff00e0ff ffffffff     ................
   d0cc0:	ffff0700 ffffffff 7c0c32ff 277cbef7     .........2.|..|'
   d0cd0:	c8247c0c cfd99f3c bc3dd89f ffff3f1b     .|$.<.....=..?..
   d0ce0:	00ffffff fcffff01 e0ff0700 ffffff00     ................
   d0cf0:	0700ffff ffffffff 32ffffff bef77c0c     ...........2.|..
   d0d00:	7c0c277c 9f3cc824 d89fcfd9 3f1bbc3d     |'.|$.<.....=..?
   d0d10:	ffffffff ff0300ff 0300feff ff00e0ff     ................
   d0d20:	ffffffff ffff0700 ffffffff 7c0c32ff     .............2.|
   d0d30:	277cbef7 c8247c0c cfd99f3c bc3dd89f     ..|'.|$.<.....=.
   d0d40:	ffff3f1b 00feffff ffffff07 e0ff0300     .?..............
   d0d50:	ffffff00 0700ffff ffffffff 32ffffff     ...............2
   d0d60:	bef77c0c 7c0c277c 9f3cc824 d89fcfd9     .|..|'.|$.<.....
   d0d70:	3f1bbc3d ffffffff ff0700fe 0180ffff     =..?............
   d0d80:	ff00e0ff ffffffff ffff0700 ffffffff     ................
   d0d90:	7c0c32ff 277cbef7 c8247c0c cfd99f3c     .2.|..|'.|$.<...
   d0da0:	bc3dd89f ffff3f1b 00fcffff ffffff0f     ..=..?..........
   d0db0:	e0ff0180 ffffff00 0700ffff ffffffff     ................
   d0dc0:	32ffffff bef77c0c 7c0c277c 9f3cc824     ...2.|..|'.|$.<.
   d0dd0:	d89fcfd9 3f1bbc3d ffffffff ff0f00fc     ....=..?........
   d0de0:	01c0ffff ff00e0ff ffffffff ffff0700     ................
   d0df0:	ffffffff 7c0c32ff 277cbef7 c8247c0c     .....2.|..|'.|$.
   d0e00:	cfd99f3c bc3dd89f ffff3f1b 00fcffff     <.....=..?......
   d0e10:	ffffff1f e0ff00c0 ffffff00 0700ffff     ................
   d0e20:	ffffffff 32ffffff bef77c0c 7c0c277c     .......2.|..|'.|
   d0e30:	9f3cc824 d89fcfd9 3f1bbc3d ffffffff     $.<.....=..?....
   d0e40:	ff1f00fc 00c0ffff ff00e0ff ffffffff     ................
   d0e50:	ffff0700 ffffffff 7c0c32ff 277cbef7     .........2.|..|'
   d0e60:	c8247c0c cfd99f3c bc3dd89f ffff3f1b     .|$.<.....=..?..
   d0e70:	00f8ffff ffffff3f e0ff00e0 ffffff00     ....?...........
   d0e80:	0700ffff ffffffff 32ffffff bef77c0c     ...........2.|..
   d0e90:	7c0c277c 9f3cc824 d89fcfd9 3f1bbc3d     |'.|$.<.....=..?
   d0ea0:	ffffffff ff3f00f8 00e0ffff ff00e0ff     ......?.........
   d0eb0:	ffffffff ffff0700 ffffffff 7c0c32ff     .............2.|
   d0ec0:	277cbef7 c8247c0c cfd99f3c bc3dd89f     ..|'.|$.<.....=.
   d0ed0:	ffff3f1b 00f8ffff ffffff3f e0ff00e0     .?......?.......
   d0ee0:	00000000 0000ff3f ff010000 32ffffff     ....?..........2
   d0ef0:	bef77c0c 7c0c277c 9f3cc824 d89fcfd9     .|..|'.|$.<.....
   d0f00:	3f1bbc3d ffffffff ff3f00f8 00f0ffff     =..?......?.....
   d0f10:	0000e07f ff1f0000 00000000 ffffff00     ................
   d0f20:	7c0c32ff 277cbef7 c8247c0c cfd99f3c     .2.|..|'.|$.<...
   d0f30:	bc3dd89f ffff3f1b 00f0ffff ffffff3f     ..=..?......?...
   d0f40:	e07f00f0 00000000 0000ff0f 7f000000     ................
   d0f50:	32ffffff bef77c0c 7c0c277c 9f3cc824     ...2.|..|'.|$.<.
   d0f60:	d89fcfd9 3f1bbc3d ffffffff ff7f00f0     ....=..?........
   d0f70:	00f0ffff 0000e07f ff0f0000 00000000     ................
   d0f80:	ffff7f00 7c0c32ff 277cbef7 c8247c0c     .....2.|..|'.|$.
   d0f90:	cfd99f3c bc3dd89f ffff3f1b 00f0ffff     <.....=..?......
   d0fa0:	ffffff7f e07f00f0 00000000 0000ff0f     ................
   d0fb0:	7f000000 32ffffff bef77c0c 7c0c277c     .......2.|..|'.|
   d0fc0:	9f3cc824 d89fcfd9 3f1bbc3d ffffffff     $.<.....=..?....
   d0fd0:	ff7f00f0 00f0ffff 0000e07f ff0f0000     ................
   d0fe0:	00000000 ffff7f00 7c0c32ff 277cbef7     .........2.|..|'
   d0ff0:	c8247c0c cfd99f3c bc3dd89f ffff3f1b     .|$.<.....=..?..
   d1000:	00f0ffff ffffff7f e07f00f0 00000000     ................
   d1010:	0000ff0f 7f000000 32ffffff bef77c0c     ...........2.|..
   d1020:	7c0c277c 9f3cc824 d89fcfd9 3f1bbc3d     |'.|$.<.....=..?
   d1030:	ffffffff ff7f00f0 00f0ffff 0000e07f     ................
   d1040:	ff0f0000 00000000 ffff7f00 7c0c32ff     .............2.|
   d1050:	277cbef7 c8247c0c cfd99f3c bc3dd89f     ..|'.|$.<.....=.
   d1060:	ffff3f1b 00f0ffff ffffff7f e07f00f0     .?..............
   d1070:	00000000 0000ff0f 7f000000 32ffffff     ...............2
   d1080:	bef77c0c 7c0c277c 9f3cc824 d89fcfd9     .|..|'.|$.<.....
   d1090:	3f1bbc3d ffffffff ff7f00f0 00f0ffff     =..?............
   d10a0:	0000e07f ff0f0000 00000000 ffff7f00     ................
   d10b0:	7c0c32ff 277cbef7 c8247c0c cfd99f3c     .2.|..|'.|$.<...
   d10c0:	bc3dd89f ffff3f1b 00f0ffff ffffff7f     ..=..?..........
   d10d0:	e07f00f0 00000000 0000ff1f ff000000     ................
   d10e0:	32ffffff bef77c0c 7c0c277c 9f3cc824     ...2.|..|'.|$.<.
   d10f0:	d89fcfd9 3f1bbc3d ffffffff ff7f00f0     ....=..?........
   d1100:	00f0ffff 7f00e07f ffffffff ffff0300     ................
   d1110:	ffffffff 7c0c32ff 277cbef7 c8247c0c     .....2.|..|'.|$.
   d1120:	cfd99f3c bc3dd89f ffff3f1b 00f0ffff     <.....=..?......
   d1130:	ffffff3f e07f00f0 ffffff00 0700ffff     ?...............
   d1140:	ffffffff 33ffffff ffffffff ffffffff     .......3........
   d1150:	ffffcffc ffffffff 3ffbffff ffffffff     ...........?....
   d1160:	ff3f00f8 00f0ffff ff00e07f ffffffff     ..?.............
   d1170:	ffff0700 ffffffff ffff33ff ffffffff     .........3......
   d1180:	cffcffff ffffffff ffffffff ffff3ffb     .............?..
   d1190:	00f8ffff ffffff3f e0ff00e0 ffffff00     ....?...........
   d11a0:	0700ffff ffffffff 33ffffff ffffffff     ...........3....
   d11b0:	ffffffff ffffcffc ffffffff 3ffbffff     ...............?
   d11c0:	ffffffff ff3f00f8 00e0ffff ff00e0ff     ......?.........
   d11d0:	ffffffff ffff0700 feffffff ffff331f     .............3..
   d11e0:	ffffffff cffcffff ffffffff ffffffff     ................
   d11f0:	ffff3ffb 00f8ffff ffffff3f e0ff00e0     .?......?.......
   d1200:	ffffff00 0700ffff ffffffff 33cffdff     ...............3
   d1210:	e0070ffc e10f3f7c fef0cffc fef0831f     ....|?..........
   d1220:	3ffb811f ffffffff ff1f00f8 00e0ffff     ...?............
   d1230:	ff00e0ff ffffffff ffff0700 f9ffffff     ................
   d1240:	0cf833e7 9e79c0e3 cffccc07 710e7ce6     .3....y......|.q
   d1250:	03cf7ce0 ffff3ffb 00fcffff ffffff1f     .|...?..........
   d1260:	e0ff00c0 ffffff00 0700ffff ffffffff     ................
   d1270:	33e7f9ff dff3ecfb dec7de7b 79efcffc     ...3....{......y
   d1280:	7dce79ce 3ffb7fef ffffffff ff0f00fc     .y.}...?........
   d1290:	01c0ffff ff00e0ff ffffffff ffff0700     ................
   d12a0:	f9ffffff dcff33e7 cff3fef3 cf7c9ee7     .....3........|.
   d12b0:	79ce3fcf 0fe779fe ffff3ffb 00fcffff     .?.y.y...?......
   d12c0:	ffffff0f e0ff0180 ffffff00 0700ffff     ................
   d12d0:	ffffffff 33e7f9ff fe37deff 9ee7cff3     .......3..7.....
   d12e0:	3fcfcf7c f9fc1b9f 3ffb03e6 ffffffff     |..?.......?....
   d12f0:	ff0700fe 0180ffff ff00e0ff ffffffff     ................
   d1300:	ffff0700 fcffffff dfff33e7 cff3fe0f     .........3......
   d1310:	cf7c9eef 870f3fcf 03e679f8 ffff3ffb     ..|..?...y...?..
   d1320:	00feffff ffffff07 e0ff0300 ffffff00     ................
   d1330:	0700ffff ffffffff ff0ffeff fd47beff     ..............G.
   d1340:	9ecfcff3 3fcfff7f 39fc2387 ffffe1e7     .......?.#.9....
   d1350:	ffffffff ff0300fe 0300feff ff00e0ff     ................
   d1360:	ffffffff ffff0700 ffffffff bcffffcf     ................
   d1370:	cff3fde3 ff7f9edf 71c63fcf f9e739fe     .........?.q.9..
   d1380:	ffffffff 00ffffff fcffff01 e0ff0700     ................
   d1390:	ffffff00 0700ffff ffffffff ff9fffff     ................
   d13a0:	fdf3bcff 9ebfcff3 3fcfff7f 39ff79e6     ...........?.y.9
   d13b0:	fffffde7 ffffffff ff0080ff 0700f8ff     ................
   d13c0:	ff00e0ff ffffffff ffff0700 feffffff     ................
   d13d0:	7cffff3f dffbfbf3 ffffde7b 79e679ef     ?..|....{....y.y
   d13e0:	7dee3dcf ffffffff 80ffffff f0ff7f00     .=.}............
   d13f0:	e0ff0f00 ffffff00 0700ffff ffffffff     ................
   d1400:	fffff8ff fb677cff cc079ef9 78e6ffff     .....|g........x
   d1410:	7cc733ee ffff1bce ffffffff 1f00c0ff     .3.|............
   d1420:	1f00c0ff ff00e0ff ffffffff ffff0700     ................
   d1430:	ffffffff 7fffffff 3cfcfb0f ffffe107     ...........<....
   d1440:	871ffcf0 071ffee0 ffffffff c0ffffff     ................
   d1450:	00ff0700 e0ff1f00 ffffff00 0700ffff     ................
   d1460:	ffffffff ffffffff ffffffff ffffffff     ................
   d1470:	ffffffff ffffffff ffffffff ffffffff     ................
   d1480:	0000e0ff 3f000070 ff00e0ff ffffffff     ....p..?........
   d1490:	ffff0700 ffffffff ffffffff ffffffff     ................
   d14a0:	ffffffff ffffffff ffffffff ffffffff     ................
   d14b0:	f0ffffff 00000000 e0ff7f00 ffffff00     ................
   d14c0:	0700ffff ffffffff ffffffff ffffffff     ................
   d14d0:	ffffffff ffffffff ffffffff ffffffff     ................
   d14e0:	ffffffff 0000f8ff ff000000 ff00e0ff     ................
   d14f0:	ffffffff ffff0700 ffffffff ffffffff     ................
   d1500:	ffffffff ffffffff ffffffff ffffffff     ................
   d1510:	ffffffff fcffffff 00000000 e0ffff01     ................
   d1520:	ffffff00 0700ffff ffffffff ffffffff     ................
   d1530:	ffffffff ffffffff ffffffff ffffffff     ................
   d1540:	ffffffff ffffffff 0000feff ff030000     ................
   d1550:	ff00e0ff ffffffff ffff0700 ffffffff     ................
   d1560:	ffffffff ffffffff ffffffff ffffffff     ................
   d1570:	ffffffff ffffffff ffffffff 00000000     ................
   d1580:	e0ffff07 ffffff00 0700ffff ffffffff     ................
   d1590:	ffffffff ffffffff ffffffff ffffffff     ................
   d15a0:	ffffffff ffffffff ffffffff 0080ffff     ................
   d15b0:	ff0f0000 ff00e0ff ffffffff ffff0700     ................
   d15c0:	ffffffff ffffffff ffffffff ffffffff     ................
   d15d0:	ffffffff ffffffff ffffffff ffffffff     ................
   d15e0:	000000e0 e0ffff3f ffffff00 0700ffff     ....?...........
   d15f0:	ffffffff ffffffff ffffffff ffffffff     ................
   d1600:	ffffffff ffffffff ffffffff ffffffff     ................
   d1610:	00f8ffff ffff0000 ff00e0ff ffffffff     ................
   d1620:	ffff0700 ffffffff ffffffff ffffffff     ................
   d1630:	ffffffff ffffffff ffffffff ffffffff     ................
   d1640:	ffffffff 030000fe f8ffffff ffffff03     ................
   d1650:	1fc0ffff ffffffff ffffffff ffffffff     ................
   d1660:	ffffffff ffffffff ffffffff ffffffff     ................
   d1670:	ffffffff c0ffffff ffff1f00 ffffffff     ................
   d1680:	ffffffff ffffffff ffffffff ffffffff     ................
   d1690:	ffffffff ffffffff ffffffff ffffffff     ................
   d16a0:	ffffffff ffffffff ffffffff ffffffff     ................
   d16b0:	ffffffff ffffffff ffffffff ffffffff     ................
   d16c0:	ffffffff ffffffff ffffffff ffffffff     ................
   d16d0:	ffffffff ffffffff ffffffff ffffffff     ................
   d16e0:	ffffffff ffffffff ffffffff ffffffff     ................
   d16f0:	ffffffff ffffffff ffffffff ffffffff     ................
   d1700:	ffffffff ffffffff ffffffff ffffffff     ................
   d1710:	ffffffff ffffffff ffffffff ffffffff     ................
   d1720:	ffffffff ffffffff ffffffff ffffffff     ................
   d1730:	ffffffff ffffffff ffffffff ffffffff     ................
   d1740:	ffffffff ffffffff ffffffff ffffffff     ................
   d1750:	ffffffff ffffffff ffffffff ffffffff     ................
   d1760:	ffffffff ffffffff ffffffff ffffffff     ................
   d1770:	ffffffff ffffffff ffffffff ffffffff     ................
   d1780:	ffffffff ffffffff ffffffff ffffffff     ................
   d1790:	ffffffff ffffffff ffffffff ffffffff     ................
   d17a0:	ffffffff ffffffff ffffffff ffffffff     ................
   d17b0:	ffffffff ffffffff ffffffff ffffffff     ................
   d17c0:	ffffffff ffffffff ffffffff ffffffff     ................
   d17d0:	ffffffff ffffffff ffffffff ffffffff     ................
   d17e0:	ffffffff ffffffff ffffffff ffffffff     ................
   d17f0:	ffffffff ffffffff ffffffff ffffffff     ................
   d1800:	ffffffff ffffffff ffffffff ffffffff     ................
   d1810:	ffffffff ffffffff ffffffff ffffffff     ................
   d1820:	ffffffff ffffffff ffffffff ffffffff     ................
   d1830:	ffffffff ffffffff ffffffff ffffffff     ................
   d1840:	ffffffff ffffffff ffffffff ffffffff     ................
   d1850:	ffffffff ffffffff ffffffff ffffffff     ................
   d1860:	ffffffff ffffffff ffffffff ffffffff     ................
   d1870:	ffffffff ffffffff ffffffff ffffffff     ................
   d1880:	ffffffff ffffffff ffffffff ffffffff     ................
   d1890:	ffffffff ffffffff ffffffff ffffffff     ................
   d18a0:	ffffffff ffffffff ffffffff ffffffff     ................
   d18b0:	ffffffff ffffffff ffffffff ffffffff     ................
   d18c0:	ffffffff ffffffff ffffffff ffffffff     ................
   d18d0:	ffffffff ffffffff ffffffff ffffffff     ................
   d18e0:	ffffffff ffffffff ffffffff ffffffff     ................
   d18f0:	ffffffff ffffffff ffffffff ffffffff     ................
   d1900:	ffffffff ffffffff ffffffff ffffffff     ................
   d1910:	ffffffff ffffffff ffffffff ffffffff     ................
   d1920:	ffffffff ffffffff ffffffff ffffffff     ................
   d1930:	ffffffff ffffffff ffffffff ffffffff     ................
   d1940:	ffffffff ffffffff ffffffff ffffffff     ................
   d1950:	ffffffff ffffffff ffffffff ffffffff     ................
   d1960:	0080ffff 00000000 00000000 00000000     ................
	...
   d1990:	ffff0000 ffffffff ffffffff ffffffff     ................
   d19a0:	ffffffff ffffffff ffffffff ffffffff     ................
   d19b0:	ffffffff ffffffff ffffffff ffffffff     ................
   d19c0:	ffffffff ffffffff ffffffff ffffffff     ................
   d19d0:	ffffffff ffffffff ffffffff ffffffff     ................
   d19e0:	ffffffff ffffffff ffffffff ffffffff     ................
   d19f0:	ffffffff ffffffff ffffffff ffffffff     ................
   d1a00:	ffffffff ffffffff ffffffff ffffffff     ................
   d1a10:	ffffffff ffffffff ffffffff ffffffff     ................
   d1a20:	ffffffff ffffffff ffffffff ffffffff     ................
   d1a30:	ffffffff ffffffff ffffffff ffffffff     ................
   d1a40:	ffffffff ffffffff ffffffff ffffffff     ................
   d1a50:	ffffffff ffffffff ffffffff ffffffff     ................
   d1a60:	ffffffff ffffffff ffffffff ffffffff     ................
   d1a70:	ffffffff ffffffff ffffffff ffffffff     ................
   d1a80:	ffffffff ffffffff ffffffff ffffffff     ................
   d1a90:	ffffffff ffffffff ffffffff ffffffff     ................
   d1aa0:	ffffffff ffffffff ffffffff ffffffff     ................
   d1ab0:	ffffffff ffffffff ffffffff ffffffff     ................
   d1ac0:	ffffffff ffffffff ffffffff ffffffff     ................
   d1ad0:	ffffffff ffffffff ffffffff ffffffff     ................
   d1ae0:	ffffffff ffffffff ffffffff ffffffff     ................
   d1af0:	ffffffff ffffffff ffffffff ffffffff     ................
   d1b00:	ffffffff ffffffff ffffffff ffffffff     ................
   d1b10:	ffffffff ffffffff ffffffff ffffffff     ................
   d1b20:	ffffffff ffffffff ffffffff ffffffff     ................
   d1b30:	ffffffff ffffffff ffffffff ffffffff     ................
   d1b40:	ffffffff ffffffff ffffffff ffffffff     ................
   d1b50:	ffffffff ffffffff ffffffff ffffffff     ................
   d1b60:	ffffffff ffffffff ffffffff ffffffff     ................
   d1b70:	ffffffff ffffffff ffffffff ffffffff     ................
   d1b80:	ffffffff ffffffff ffffffff ffffffff     ................
   d1b90:	ffffffff ffffffff ffffffff ffffffff     ................
   d1ba0:	ffffffff ffffffff ffffffff ffffffff     ................
   d1bb0:	ffffffff ffffffff ffffffff ffffffff     ................
   d1bc0:	ffffffff ffffffff ffffffff ffffffff     ................
   d1bd0:	ffffffff ffffffff ffffffff ffffffff     ................
   d1be0:	ffffffff ffffffff ffffffff ffffffff     ................
   d1bf0:	ffffffff ffffffff ffffffff ffffffff     ................
   d1c00:	ffffffff ffffffff ffffffff ffffffff     ................
   d1c10:	ffffffff fe3ff8ff ffffff7f ffffffff     ......?.........
   d1c20:	ffffffff ffffffff ffffffff ffffffff     ................
   d1c30:	ffffffff ffffffff ffffffff ffffffff     ................
   d1c40:	f77ffcff f0ffffff ff7ffe1f ffffffff     ................
   d1c50:	ffffffff ffffffff ffffffff ffffffff     ................
   d1c60:	ffffffff ffffffff ffffffff ffffffff     ................
   d1c70:	fbffffff ffffffbf fe8fe3ff ffffff7f     ................
   d1c80:	ffffffff ffffffff ffffffff ffffffff     ................
   d1c90:	ffffffff ffffffff ffffffff ffffffff     ................
   d1ca0:	ffffffff ffdff7ff e7ffffff ff7ffecf     ................
   d1cb0:	ffffffff ffffffff ffffffff ffffffff     ................
   d1cc0:	ffffffff ffffffff ffffffff ffffffff     ................
   d1cd0:	ffffffff f7ffffff ffffffdf 0effe7ff     ................
   d1ce0:	ffffff71 ffffffff ffffffff ffffffff     q...............
   d1cf0:	ffffffff ffffffff ffffffff ffffffff     ................
   d1d00:	ffffffff ffffffff 97eeefff f3ffffcb     ................
   d1d10:	ff6006fe ffffffff ffffffff ffffffff     ..`.............
   d1d20:	ffffffff ffffffff ffffffff ffffffff     ................
   d1d30:	ffffffff ffffffff efffffff ffb357ee     .............W..
   d1d40:	e67cf8ff ffff7f46 ffffffff ffffffff     ..|.F...........
   d1d50:	ffffffff ffffffff ffffffff ffffffff     ................
   d1d60:	ffffffff ffffffff ffffffff f7eeefff     ................
   d1d70:	feffff7b 7f4e861f ffffffff ffffffff     {.....N.........
   d1d80:	ffffffff ffffffff ffffffff ffffffff     ................
   d1d90:	ffffffff ffffffff ffffffff efffffff     ................
   d1da0:	ff7bf7ee 06ceffff ffff7f40 ffffffff     ..{.....@.......
   d1db0:	ffffffff ffffffff ffffffff ffffffff     ................
   d1dc0:	ffffffff ffffffff ffffffff ffffffff     ................
   d1dd0:	f7eeefff e7ffff7b 7f4066cc ffffffff     ....{....f@.....
   d1de0:	ffffffff ffffffff ffffffff ffffffff     ................
   d1df0:	ffffffff ffffffff ffffffff ffffffff     ................
   d1e00:	efffffff ff7bf7ee e6cce7ff ffffff4f     ......{.....O...
   d1e10:	ffffffff ffffffff ffffffff ffffffff     ................
   d1e20:	ffffffff ffffffff ffffffff ffffffff     ................
   d1e30:	ffffffff f7def7ff f3ffff7b 7f46c68c     ........{.....F.
   d1e40:	ffffffff ffffffff ffffffff ffffffff     ................
   d1e50:	ffffffff ffffffff ffffffff ffffffff     ................
   d1e60:	ffffffff f7ffffff ff7bf7de 061cf0ff     ..........{.....
   d1e70:	ffffff60 ffffffff ffffffff ffffffff     `...............
   d1e80:	ffffffff ffffffff ffffffff ffffffff     ................
   d1e90:	ffffffff ffffffff f7befbff f8ffffb3     ................
   d1ea0:	ff71263e ffffffff ffffffff ffffffff     >&q.............
   d1eb0:	ffffffff ffffffff ffffffff ffffffff     ................
   d1ec0:	ffffffff ffffffff fcffffff ffcaf77e     ............~...
   d1ed0:	ffffffff ffffffff ffffffff ffffffff     ................
   d1ee0:	ffffffff ffffffff ffffffff ffffffff     ................
   d1ef0:	ffffffff ffffffff ffffffff ffffffff     ................
   d1f00:	fffffffb ffffffff ffffffff ffffffff     ................
   d1f10:	ffffffff ffffffff ffffffff ffffffff     ................
   d1f20:	ffffffff ffffffff ffffffff ffffffff     ................
   d1f30:	ff7bffff ffffffff ffffffff ffffffff     ..{.............
   d1f40:	ffffffff ffffffff ffffffff ffffffff     ................
   d1f50:	ffffffff ffffffff ffffffff ffffffff     ................
   d1f60:	ffffffff ffffff77 ffffffff ffffffff     ....w...........
   d1f70:	ffffffff ffffffff ffffffff ffffffff     ................
   d1f80:	ffffffff ffffffff ffffffff ffffffff     ................
   d1f90:	ffffffff ff87ffff ffffffff ffffffff     ................
   d1fa0:	ffffffff ffffffff ffffffff ffffffff     ................
   d1fb0:	ffffffff ffffffff ffffffff ffffffff     ................
   d1fc0:	ffffffff ffffffff ffffffff ffffffff     ................
   d1fd0:	ffffffff ffffffff ffffffff ffffffff     ................
   d1fe0:	ffffffff ffffffff ffffffff ffffffff     ................
   d1ff0:	ffffffff ffffffff ffffffff ffffffff     ................
   d2000:	ffffffff ffffffff ffffffff ffffffff     ................
   d2010:	ffffffff ffffffff ffffffff ffffffff     ................
   d2020:	ffffffff ffffffff ffffffff ffffffff     ................
   d2030:	ffffffff ffffffff ffffffff ffffffff     ................
   d2040:	ffffffff ffffffff ffffffff ffffffff     ................
   d2050:	ffffffff ffffffff ffffffff ffffffff     ................
   d2060:	ffffffff ffffffff ffffffff ffffffff     ................
   d2070:	ffffffff ffffffff ffffffff ffffffff     ................
   d2080:	ffffffff ffffffff ffffffff ffffffff     ................
   d2090:	ffffffff ffffffff ffffffff ffffffff     ................
   d20a0:	ffffffff ffffffff ffffffff feffffff     ................
   d20b0:	fff7bb07 fffff8bf ffffff81 ffffffff     ................
   d20c0:	ffffffff ffffffff ffffffff ffffffff     ................
   d20d0:	ffffffff ffffffff ffffffff ffffffff     ................
   d20e0:	fbf7feff f7ffffff ffbdff7f ffffffed     ................
   d20f0:	ffffffff ffffffff ffffffff ffffffff     ................
   d2100:	ffffffff ffffffff ffffffff ffffffff     ................
   d2110:	feffffff fffffbfb ffbfefff ffedffbe     ................
   d2120:	ffffffff ffffffff ffffffff ffffffff     ................
   d2130:	ffffffff ffffffff ffffffff ffffffff     ................
   d2140:	ffffffff fbfbfeff dfffffff ffbeffbf     ................
   d2150:	ffffffed ffffffff ffffffff ffffffff     ................
   d2160:	ffffffff ffffffff ffffffff ffffffff     ................
   d2170:	ffffffff feffffff 0f77bbf7 ffb8dfbf     ..........w.....
   d2180:	c7c0e3bd ffffffc3 ffffffff ffffffff     ................
   d2190:	ffffffff ffffffff ffffffff ffffffff     ................
   d21a0:	ffffffff ffffffff 77f7fdff bf7f376e     ...........wn7..
   d21b0:	d97dffb0 ff8db3db ffffffff ffffffff     ..}.............
   d21c0:	ffffffff ffffffff ffffffff ffffffff     ................
   d21d0:	ffffffff ffffffff fcffffff 77ee760f     .............v.w
   d21e0:	ffb3bf7f 3bdb9d03 ffffff9d ffffffff     .......;........
   d21f0:	ffffffff ffffffff ffffffff ffffffff     ................
   d2200:	ffffffff ffffffff ffffffff 75e7fdff     ...............u
   d2210:	bf7ff7ee bd79ffb7 ffbd7bdb ffffffff     ......y..{......
   d2220:	ffffffff ffffffff ffffffff ffffffff     ................
   d2230:	ffffffff ffffffff ffffffff fdffffff     ................
   d2240:	f7ee71f7 ffb7bf7f 7bdbbd7d ffffffbd     .q......}..{....
   d2250:	ffffffff ffffffff ffffffff ffffffff     ................
   d2260:	ffffffff ffffffff ffffffff ffffffff     ................
   d2270:	75f7fdff bf7ff7ee bd7dff77 ffbd7bdb     ...u....w.}..{..
   d2280:	ffffffff ffffffff ffffffff ffffffff     ................
   d2290:	ffffffff ffffffff ffffffff ffffffff     ................
   d22a0:	fdffffff f7ee75f7 ff77bf7f 77dbbb7d     .....u....w.}..w
   d22b0:	ffffffbd ffffffff ffffffff ffffffff     ................
   d22c0:	ffffffff ffffffff ffffffff ffffffff     ................
   d22d0:	ffffffff eeeefbff beffeedd bbfbfeef     ................
   d22e0:	ff7b77b7 ffffffff ffffffff ffffffff     .w{.............
   d22f0:	ffffffff ffffffff ffffffff ffffffff     ................
   d2300:	ffffffff fbffffff eeddeece feefdcff     ................
   d2310:	67b7b3f3 ffffff7b ffffffff ffffffff     ...g{...........
   d2320:	ffffffff ffffffff ffffffff ffffffff     ................
   d2330:	ffffffff ffffffff ee1ef8ff e3ffeedd     ................
   d2340:	c707feef ff7b8f93 ffffffff ffffffff     ......{.........
   d2350:	ffffffff ffffffff ffffffff ffffffff     ................
   d2360:	ffffffff ffffffff ffffffff ffffffff     ................
   d2370:	ffffffff ffffffff ffffffff ffffffff     ................
   d2380:	ffffffff ffffffff ffffffff ffffffff     ................
   d2390:	ffffffff ffffffff ffffffff ffffffff     ................
   d23a0:	ffffffff ffffffff ffffffff ffffffff     ................
   d23b0:	ffffffff ffffffff ffffffff ffffffff     ................
   d23c0:	ffffffff ffffffff ffffffff ffffffff     ................
   d23d0:	ffffffff ffffffff ffffffff ffffffff     ................
   d23e0:	ffffffff ffffffff ffffffff ffffffff     ................
   d23f0:	ffffffff ffffffff ffffffff ffffffff     ................
   d2400:	ffffffff ffffffff ffffffff ffffffff     ................
   d2410:	ffffffff ffffffff ffffffff ffffffff     ................
   d2420:	ffffffff ffffffff ffffffff ffffffff     ................
   d2430:	ffffffff ffffffff ffffffff ffffffff     ................
   d2440:	ffffffff ffffffff ffffffff ffffffff     ................
   d2450:	ffffffff ffffffff ffffffff ffffffff     ................
   d2460:	ffffffff ffffffff ffffffff ffffffff     ................
   d2470:	ffffffff ffffffff ffffffff ffffffff     ................
   d2480:	ffffffff ffffffff ffffffff ffffffff     ................
   d2490:	ffffffff ffffffff ffffffff ffffffff     ................
   d24a0:	ffffffff ffffffff ffffffff ffffffff     ................
   d24b0:	ffffffff ffffffff ffffffff ffffffff     ................
   d24c0:	ffffffff ffffffff ffffffff ffffffff     ................
   d24d0:	ffffffff ffffffff ffffffff ffffffff     ................
   d24e0:	ffffffff ffffffff ffffffff ffffffff     ................
   d24f0:	ffffffff ffffffff ffffffff ffffffff     ................
   d2500:	ffffffff ffffffff ffffffff ffffffff     ................
   d2510:	ffffffff ffffffff ffffffff ffffffff     ................
   d2520:	ffffffff ffffffff ffffffff ffffffff     ................
   d2530:	ffffffff ffffffff ffffffff ffffffff     ................
   d2540:	ffffffff ffffffff ffffffff ffffffff     ................
   d2550:	ffffffff ffffffff ffffffff ffffffff     ................
   d2560:	ffffffff ffffffff ffffffff ffffffff     ................
   d2570:	ffffffff fe80e3ff ffff3f3e ffffffff     ........>?......
   d2580:	ffffffff ffffffff ffffffff ffffffff     ................
   d2590:	ffffffff ffffffff ffffffff ffffffff     ................
   d25a0:	fef1f1ff c1ff1f1f 1f1cfc80 ffffffff     ................
   d25b0:	ffffffff ffffffff ffffffff ffffffff     ................
   d25c0:	ffffffff ffffffff ffffffff ffffffff     ................
   d25d0:	e7ffffff ef1efecc f9fc99ff ffffdfd9     ................
   d25e0:	ffffffff ffffffff ffffffff ffffffff     ................
   d25f0:	ffffffff ffffffff ffffffff ffffffff     ................
   d2600:	ffffffff fddedfff 99ffeffe cfc9f9f9     ................
   d2610:	ffffffff ffffffff ffffffff ffffffff     ................
   d2620:	ffffffff ffffffff ffffffff ffffffff     ................
   d2630:	ffffffff bfffffff f7fdfcfe f9f9f9ff     ................
   d2640:	ffffcfc9 ffffffff ffffffff ffffffff     ................
   d2650:	ffffffff ffffffff ffffffff ffffffff     ................
   d2660:	ffffffff ffffffff f8fd47ff f3fff73d     .........G..=...
   d2670:	cfc9f9fb ffffffff ffffffff ffffffff     ................
   d2680:	ffffffff ffffffff ffffffff ffffffff     ................
   d2690:	ffffffff ffffffff 3bffffff f73dfff1     ...........;..=.
   d26a0:	f9f3f1ff ffff8f89 ffffffff ffffffff     ................
   d26b0:	ffffffff ffffffff ffffffff ffffffff     ................
   d26c0:	ffffffff ffffffff ffffffff fffc7dff     .............}..
   d26d0:	fcfff79d 0f0cfcf3 ffffffff ffffffff     ................
   d26e0:	ffffffff ffffffff ffffffff ffffffff     ................
   d26f0:	ffffffff ffffffff ffffffff 7dffffff     ...............}
   d2700:	f7ddfffe fcf3fcff ffff4f4c ffffffff     ........LO......
   d2710:	ffffffff ffffffff ffffffff ffffffff     ................
   d2720:	ffffffff ffffffff ffffffff ffffffff     ................
   d2730:	fffe7dff fcfff7dd cfcffff7 ffffffff     .}..............
   d2740:	ffffffff ffffffff ffffffff ffffffff     ................
   d2750:	ffffffff ffffffff ffffffff ffffffff     ................
   d2760:	3dffffff efdefffe f9e79cff ffffcfc9     ...=............
   d2770:	ffffffff ffffffff ffffffff ffffffff     ................
   d2780:	ffffffff ffffffff ffffffff ffffffff     ................
   d2790:	ffffffff dbcdbbff 9cffefbe 8f8dfde7     ................
   d27a0:	ffffffff ffffffff ffffffff ffffffff     ................
   d27b0:	ffffffff ffffffff ffffffff ffffffff     ................
   d27c0:	ffffffff c7ffffff 1f7fd8c3 cce7c1ff     ................
   d27d0:	ffff1f1c ffffffff ffffffff ffffffff     ................
   d27e0:	ffffffff ffffffff ffffffff ffffffff     ................
   d27f0:	ffffffff ffffffff ffffffff e3ffffff     ................
   d2800:	3f3ecee7 ffffffff ffffffff ffffffff     ..>?............
   d2810:	ffffffff ffffffff ffffffff ffffffff     ................
   d2820:	ffffffff ffffffff ffffffff ffffffff     ................
   d2830:	ffffffff ffffffff ffffffff ffffffff     ................
   d2840:	ffffffff ffffffff ffffffff ffffffff     ................
   d2850:	ffffffff ffffffff ffffffff ffffffff     ................
   d2860:	ffffffff ffffffff ffffffff ffffffff     ................
   d2870:	ffffffff ffffffff ffffffff ffffffff     ................
   d2880:	ffffffff ffffffff ffffffff ffffffff     ................
   d2890:	ffffffff ffffffff ffffffff ffffffff     ................
   d28a0:	ffffffff ffffffff ffffffff ffffffff     ................
   d28b0:	ffffffff ffffffff ffffffff ffffffff     ................
   d28c0:	ffffffff ffffffff ffffffff ffffffff     ................
   d28d0:	ffffffff ffffffff ffffffff ffffffff     ................
   d28e0:	ffffffff ffffffff ffffffff ffffffff     ................
   d28f0:	ffffffff ffffffff ffffffff ffffffff     ................
   d2900:	ffffffff ffffffff ffffffff ffffffff     ................
   d2910:	ffffffff ffffffff ffffffff ffffffff     ................
   d2920:	ffffffff ffffffff ffffffff ffffffff     ................
   d2930:	ffffffff ffffffff ffffffff ffffffff     ................
   d2940:	ffffffff ffffffff ffffffff ffffffff     ................
   d2950:	ffffffff ffffffff ffffffff ffffffff     ................
   d2960:	ffffffff ffffffff ffffffff ffffffff     ................
   d2970:	ffffffff ffffffff ffffffff ffffffff     ................
   d2980:	ffffffff ffffffff ffffffff ffffffff     ................
   d2990:	ffffffff ffffffff ffffffff ffffffff     ................
   d29a0:	ffffffff ffffffff ffffffff ffffffff     ................
   d29b0:	ffffffff ffffffff ffffffff ffffffff     ................
   d29c0:	ffffffff ffffffff ffffffff ffffffff     ................
   d29d0:	ffffffff ffffffff ffffffff ffffffff     ................
   d29e0:	ffffffff ffffffff ffffffff ffffffff     ................
   d29f0:	ffffffff ffffffff ffffffff ffffffff     ................
   d2a00:	ffffffff ffffffff ffffffff ffffffff     ................
   d2a10:	ffffffff ffffffff ffffffff ffffffff     ................
   d2a20:	ffffffff ffffffff ffffffff ffffffff     ................
   d2a30:	ffffffff ffffffff ffffffff ffffffff     ................
   d2a40:	ffffffff ffffffff ffffffff ffffffff     ................
   d2a50:	ffffffff ffffffff ffffffff ffffffff     ................
   d2a60:	ffffffff ffffffff ffffffff ffffffff     ................
   d2a70:	ffffffff ffffffff ffffffff ffffffff     ................
   d2a80:	ffffffff ffffffff ffffffff ffffffff     ................
   d2a90:	ffffffff ffffffff ffffffff ffffffff     ................
   d2aa0:	ffffffff ffffffff ff03fcff ffffffff     ................
   d2ab0:	fcfffff1 ffffff78 ffffe3ff ffffffff     ....x...........
   d2ac0:	ffffffff ffffffff ffffffff ffffffff     ................
   d2ad0:	ffffffff ffffffff f0ffffff ffffff01     ................
   d2ae0:	fff1ffff ff78fcff e3ffffff ffffffff     ......x.........
   d2af0:	ffffffff ffffffff ffffffff ffffffff     ................
   d2b00:	ffffffff ffffffff ffffffff ff00e0ff     ................
   d2b10:	ffffffff fcfffff1 ffffff78 ffffe3ff     ........x.......
   d2b20:	ffffffff ffffffff ffffffff ffffffff     ................
   d2b30:	ffffffff ffffffff ffffffff c1ffffff     ................
   d2b40:	ffff7ff0 fff1ffff ff78fcff e3ffffff     ..........x.....
   d2b50:	ffffffff ffffffff ffffffff ffffffff     ................
   d2b60:	ffffffff ffffffff ffffffff ffffffff     ................
   d2b70:	7ff887ff ffffffff fcfffff1 ffffff7f     ................
   d2b80:	ffffe3ff ffffffff ffffffff ffffffff     ................
   d2b90:	ffffffff ffffffff ffffffff ffffffff     ................
   d2ba0:	0fffffff ffff7ffc ffe1ffff ff7ff8ff     ................
   d2bb0:	c3ffffff ffffffff ffffffff ffffffff     ................
   d2bc0:	ffffffff ffffffff ffffffff ffffffff     ................
   d2bd0:	ffffffff 7efc0fff f80ffc07 08feff23     .......~....#...
   d2be0:	c41ff8f1 3fe0c70f ffff8f1f ffffffff     .......?........
   d2bf0:	ffffffff ffffffff ffffffff ffffffff     ................
   d2c00:	ffffffff 1ffeffff f003f8ff ff03e007     ................
   d2c10:	e0f100f8 c707c00f 8f1f1fc0 ffffffff     ................
   d2c20:	ffffffff ffffffff ffffffff ffffffff     ................
   d2c30:	ffffffff ffffffff f0ff3ffe c003e001     .........?......
   d2c40:	00f0ff03 c007c0f1 0f80c703 ffff0f8f     ................
   d2c50:	ffffffff ffffffff ffffffff ffffffff     ................
   d2c60:	ffffffff ffffffff 3ffeffff e1e1f0ff     ...........?....
   d2c70:	ff83c3c3 c3f1e0f0 c7c3c187 1f8f0f0f     ................
   d2c80:	ffffffff ffffffff ffffffff ffffffff     ................
   d2c90:	ffffffff ffffffff ffffffff 61803ffe     .............?.a
   d2ca0:	87e3c3f1 f0e1ffc3 c3c7c7f1 8f1fc7e3     ................
   d2cb0:	ffff1f8e ffffffff ffffffff ffffffff     ................
   d2cc0:	ffffffff ffffffff ffffffff 3ffeffff     ...............?
   d2cd0:	c7f16380 ffc38fe3 c3f1f0e3 c7e3c7ff     .c..............
   d2ce0:	3f8e8f1f ffffffff ffffffff ffffffff     ...?............
   d2cf0:	ffffffff ffffffff ffffffff ffffffff     ................
   d2d00:	43803ffc 0fe387f1 f0c300c3 877fc0e1     .?.C............
   d2d10:	0ffc87e3 ffff3f8c ffffffff ffffffff     .....?..........
   d2d20:	ffffffff ffffffff ffffffff ffffffff     ................
   d2d30:	3ffcffff 8ff1c7f8 00c71fe3 c0e3f1c7     ...?............
   d2d40:	8fe38f0f 7f8c1f80 ffffffff ffffffff     ................
   d2d50:	ffffffff ffffffff ffffffff ffffffff     ................
   d2d60:	ffffffff c7f83ffc 1fe38ff1 f1c700c7     .....?..........
   d2d70:	8f07e0e3 1f008fe3 ffff7f88 ffffffff     ................
   d2d80:	ffffffff ffffffff ffffffff ffffffff     ................
   d2d90:	ffffffff 3ffeffff 8ff1c7f8 00c71fe3     .......?........
   d2da0:	fce3f1c7 8ee38f07 ff881f01 ffffffff     ................
   d2db0:	ffffffff ffffffff ffffffff ffffffff     ................
   d2dc0:	ffffffff ffffffff c7f83ffe 1fc38fe1     .........?......
   d2dd0:	e1c7ff87 8f878fe3 1f1e8ec3 ffffff80     ................
   d2de0:	ffffffff ffffffff ffffffff ffffffff     ................
   d2df0:	ffffffff ffffffff 1ffeffff 87c3c3e0     ................
   d2e00:	ff870f87 8fe3e1c3 8e878787 ff811f3e     ............>...
   d2e10:	ffffffff ffffffff ffffffff ffffffff     ................
   d2e20:	ffffffff ffffffff ffffffff c18007ff     ................
   d2e30:	06078383 81c1ff07 030f87c3 1f380e07     ..............8.
   d2e40:	ffffffc1 ffffffff ffffffff ffffffff     ................
   d2e50:	ffffffff ffffffff ffffffff 00ffffff     ................
   d2e60:	c007e003 ff0f800f 80c703e0 1e0f000f     ................
   d2e70:	ffc31f00 ffffffff ffffffff ffffffff     ................
   d2e80:	ffffffff ffffffff ffffffff ffffffff     ................
   d2e90:	e00780ff 801fc00f 03e0ff0f 001fc0c7     ................
   d2ea0:	1f001e1f ffffffc3 ffffffff ffffffff     ................
   d2eb0:	ffffffff ffffffff ffffffff ffffffff     ................
   d2ec0:	e0ffffff f03ff81f ff8fe07f e0c723f8     ......?......#..
   d2ed0:	1f7f107f ffc71f03 ffffffff ffffffff     ................
   d2ee0:	ffffffff ffffffff ffffffff ffffffff     ................
   d2ef0:	ffffffff ffffffff ffffffff ffffffff     ................
   d2f00:	1fffffff ffffffff ffffff87 ffffffff     ................
   d2f10:	ffffffff ffffffff ffffffff ffffffff     ................
   d2f20:	ffffffff ffffffff ffffffff ffffffff     ................
   d2f30:	ffffffff ffff1fff ff8fffff ffffffff     ................
   d2f40:	ffffffff ffffffff ffffffff ffffffff     ................
   d2f50:	ffffffff ffffffff ffffffff ffffffff     ................
   d2f60:	ffffffff 1ffeffff ffffffff ffffff0f     ................
   d2f70:	ffffffff ffffffff ffffffff ffffffff     ................
   d2f80:	ffffffff ffffffff ffffffff ffffffff     ................
   d2f90:	ffffffff ffffffff ffff3ffe ff1ffcff     .........?......
   d2fa0:	ffffffff ffffffff ffffffff ffffffff     ................
   d2fb0:	ffffffff ffffffff ffffffff ffffffff     ................
   d2fc0:	ffffffff ffffffff 3ffeffff fcffffff     ...........?....
   d2fd0:	ffffff1f ffffffff ffffffff ffffffff     ................
   d2fe0:	ffffffff ffffffff ffffffff ffffffff     ................
   d2ff0:	ffffffff ffffffff ffffffff ffff3ffe     .............?..
   d3000:	ff3ffcff ffffffff ffffffff ffffffff     ..?.............
   d3010:	ffffffff ffffffff ffffffff ffffffff     ................
   d3020:	ffffffff ffffffff ffffffff ffffffff     ................
   d3030:	ffffffff ffffffff ffffffff ffffffff     ................
   d3040:	ffffffff ffffffff ffffffff ffffffff     ................
   d3050:	ffffffff ffffffff ffffffff ffffffff     ................
   d3060:	ffffffff ffffffff ffffffff ffffffff     ................
   d3070:	ffffffff ffffffff ffffffff ffffffff     ................
   d3080:	ffffffff ffffffff ffffffff ffffffff     ................
   d3090:	ffffffff ffffffff ffffffff ffffffff     ................
   d30a0:	ffffffff ffffffff ffffffff ffffffff     ................
   d30b0:	ffffffff ffffffff ffffffff ffffffff     ................
   d30c0:	ffffffff ffffffff ffffffff ffffffff     ................
   d30d0:	ffffffff ffffffff ffffffff ffffffff     ................
   d30e0:	ffffffff ffffffff ffffffff ffffffff     ................
   d30f0:	ffffffff ffffffff ffffffff ffffffff     ................
   d3100:	ffffffff ffffffff ffffffff ffffffff     ................
   d3110:	ffffffff ffffffff ffffffff ffffffff     ................
   d3120:	ffffffff ffffffff ffffffff ffffffff     ................
   d3130:	ffffffff ffffffff ffffffff ffffffff     ................
   d3140:	ffffffff ffffffff ffffffff ffffffff     ................
   d3150:	ffffffff ffffffff ffffffff ffffffff     ................
   d3160:	ffffffff ffffffff ffffffff ffffffff     ................
   d3170:	ffffffff ffffffff ffffffff ffffffff     ................
   d3180:	ffffffff ffffffff ffffffff ffffffff     ................
   d3190:	ffffffff ffffffff                       ........

000d3198 <_ZL24WS_Bitmap3c400x300_black>:
   d3198:	ffffffff ffffffff ffffffff ffffffff     ................
   d31a8:	ffffffff ffffffff ffffffff ffffffff     ................
   d31b8:	ffffffff ffffffff ffffffff ffffffff     ................
   d31c8:	ffffffff ffffffff ffffffff ffffffff     ................
   d31d8:	ffffffff ffffffff ffffffff ffffffff     ................
   d31e8:	ffffffff ffffffff ffffffff ffffffff     ................
   d31f8:	ffffffff ffffffff ffffffff ffffffff     ................
   d3208:	ffffffff ffffffff ffffffff ffffffff     ................
   d3218:	ffffffff ffffffff ffffffff ffffffff     ................
   d3228:	ffffffff ffffffff ffffffff ffffffff     ................
   d3238:	ffffffff ffffffff ffffffff ffffffff     ................
   d3248:	ffffffff ffffffff ffffffff ffffffff     ................
   d3258:	ffffffff ffffffff ffffffff ffffffff     ................
   d3268:	ffffffff ffffffff ffffffff ffffffff     ................
   d3278:	ffffffff ffffffff ffffffff ffffffff     ................
   d3288:	ffffffff ffffffff ffffffff ffffffff     ................
   d3298:	ffffffff ffffffff ffffffff ffffffff     ................
   d32a8:	ffffffff ffffffff ffffffff ffffffff     ................
   d32b8:	ffffffff ffffffff ffffffff ffffffff     ................
   d32c8:	ffffffff ffffffff ffffffff ffffffff     ................
   d32d8:	ffffffff ffffffff ffffffff ffffffff     ................
   d32e8:	ffffffff ffffffff ffffffff ffffffff     ................
   d32f8:	ffffffff ffffffff ffffffff ffffffff     ................
   d3308:	ffffffff ffffffff ffffffff ffffffff     ................
   d3318:	ffffffff ffffffff ffffffff ffffffff     ................
   d3328:	ffffffff ffffffff ffffffff ffffffff     ................
   d3338:	ffffffff ffffffff ffffffff ffffffff     ................
   d3348:	ffffffff ffffffff ffffffff ffffffff     ................
   d3358:	ffffffff ffffffff ffffffff ffffffff     ................
   d3368:	ffffffff ffffffff ffffffff ffffffff     ................
   d3378:	ffffffff ffffffff ffffffff ffffffff     ................
   d3388:	ffffffff ffffffff ffffffff ffffffff     ................
   d3398:	ffffffff ffffffff ffffffff ffffffff     ................
   d33a8:	ffffffff ffffffff ffffffff fffffff7     ................
   d33b8:	ffffffff ffffffff ffffffff ffffffff     ................
   d33c8:	ffffffff ffffffff ffffffff ffffffff     ................
   d33d8:	ffffffff ffffffff ffffffff ffc3ffff     ................
   d33e8:	ffffffff ffffffff ffffffff ffffffff     ................
   d33f8:	ffffffff ffffffff ffffffff ffffffff     ................
   d3408:	ffffffff ffffffff ffffffff feffffff     ................
   d3418:	ffffff03 ffffffff ffffffff ffffffff     ................
   d3428:	ffffffff ffffffff ffffffff ffffffff     ................
   d3438:	ffffffff ffffffff ffffffff ffffffff     ................
   d3448:	ff07f0ff ffffffff ffffffff ffffffff     ................
   d3458:	ffffffff ffffffff ffffffff ffffffff     ................
   d3468:	ffffffff ffffffff ffffffff ffffffff     ................
   d3478:	80ffffff ffffff07 ffffffff ffffffff     ................
   d3488:	ffffffff ffffffff ffffffff ffffffff     ................
   d3498:	ffffffff ffffffff ffffffff ffffffff     ................
   d34a8:	ffffffff ff0300fe ffffffff ffffffff     ................
   d34b8:	ffffffff ffffffff ffffffff ffffffff     ................
   d34c8:	ffffffff ffffffff ffffffff ffffffff     ................
   d34d8:	ffffffff 00f8ffff ffffff03 ffffffff     ................
   d34e8:	ffffffff ffffffff ffffffff ffffffff     ................
   d34f8:	ffffffff ffffffff ffffffff ffffffff     ................
   d3508:	ffffffff ffffffff ff03d0e3 ffffffff     ................
   d3518:	ffffffff ffffffff ffffffff ffffffff     ................
   d3528:	ffffffff ffffffff ffffffff ffffffff     ................
   d3538:	ffffffff ffffffff ebcfffff ffffff03     ................
   d3548:	ffffffff ffffffff ffffffff ffffffff     ................
   d3558:	ffffffff ffffffff ffffffff ffffffff     ................
   d3568:	ffffffff ffffffff ffffffff ff83e303     ................
   d3578:	ffffffff ffffffff ffffffff ffffffff     ................
   d3588:	ffffffff ffffffff ffffffff ffffffff     ................
   d3598:	ffffffff ffffffff ffffffff f343feff     ..............C.
   d35a8:	ffffffc3 ffffffff ffffffff ffffffff     ................
   d35b8:	ffffffff ffffffff ffffffff ffffffff     ................
   d35c8:	ffffffff ffffffff ffffffff f8ffffff     ................
   d35d8:	fce3f3c3 ffffffff ffffffff ffffffff     ................
   d35e8:	ffffffff ffffffff ffffffff ffffffff     ................
   d35f8:	ffffffff ffffffff ffffffff ffffffff     ................
   d3608:	f9e3f3ff fffff8e3 ffffffff ffffffff     ................
   d3618:	ffffffff ffffffff ffffffff ffffffff     ................
   d3628:	ffffffff ffffffff ffffffff ffffffff     ................
   d3638:	e5ffffff e0f3f9ff ffffffff ffffffff     ................
   d3648:	ffffffff ffffffff ffffffff ffffffff     ................
   d3658:	ffffffff ffffffff ffffffff ffffffff     ................
   d3668:	ffffffff f9ffc8ff ff7f80f3 ffffffff     ................
   d3678:	ffffffff ffffffff ffffffff ffffffff     ................
   d3688:	ffffffff ffffffff ffffffff ffffffff     ................
   d3698:	ffffffff 92ffffff 00f3fb7f ffffff7f     ................
   d36a8:	ffffffff ffffffff ffffffff ffffffff     ................
   d36b8:	ffffffff ffffffff ffffffff ffffffff     ................
   d36c8:	ffffffff ffffffff f3ff30ff ff7f00f4     .........0......
   d36d8:	ffffffff ffffffff ffffffff ffffffff     ................
   d36e8:	ffffffff ffffffff ffffffff ffffffff     ................
   d36f8:	ffffffff ffffffff 5bfeffff 70f0f3ff     ...........[...p
   d3708:	ffffff7f ffffffff ffffffff ffffffff     ................
   d3718:	ffffffff ffffffff ffffffff ffffffff     ................
   d3728:	ffffffff ffffffff ffffffff f3ff0bfe     ................
   d3738:	ff7ff8e1 ffffffff ffffffff ffffffff     ................
   d3748:	ffffffff ffffffff ffffffff ffffffff     ................
   d3758:	ffffffff ffffffff ffffffff 09fcffff     ................
   d3768:	fc85f3ff ffffff7f ffffffff ffffffff     ................
   d3778:	ffffffff ffffffff ffffffff ffffffff     ................
   d3788:	ffffffff ffffffff ffffffff ffffffff     ................
   d3798:	e7ff4cf9 ff7ffe3d ffffffff ffffffff     .L..=...........
   d37a8:	ffffffff ffffffff ffffffff ffffffff     ................
   d37b8:	ffffffff ffffffff ffffffff ffffffff     ................
   d37c8:	7ef2ffff fefde67f ffffff3f ffffffff     ...~....?.......
   d37d8:	ffffffff ffffffff ffffffff ffffffff     ................
   d37e8:	ffffffff ffffffff ffffffff ffffffff     ................
   d37f8:	ffffffff e1bf3ff0 ff3ffe99 ffffffff     .....?....?.....
   d3808:	ffffffff ffffffff ffffffff ffffffff     ................
   d3818:	ffffffff ffffffff ffffffff ffffffff     ................
   d3828:	ffffffff 3fe4ffff ff9de3df ffffff3f     .......?....?...
   d3838:	ffffffff ffffffff ffffffff ffffffff     ................
   d3848:	ffffffff ffffffff ffffffff ffffffff     ................
   d3858:	ffffffff ffffffff c6ff5fe4 ff3fff7d     ........._..}.?.
   d3868:	ffffffff ffffffff ffffffff ffffffff     ................
   d3878:	ffffffff ffffffff ffffffff ffffffff     ................
   d3888:	ffffffff ffffffff ffcfffff ffffdeff     ................
   d3898:	ffffff1f ffffffff ffffffff ffffffff     ................
   d38a8:	ffffffff ffffffff ffffffff ffffffff     ................
   d38b8:	ffffffff ffffffff ffffffff 93ffffcf     ................
   d38c8:	ff9fffff ffffffff ffffffff ffffffff     ................
   d38d8:	ffffffff ffffffff ffffffff ffffffff     ................
   d38e8:	ffffffff ffffffff ffffffff ffccffff     ................
   d38f8:	ffff33ff ffffff9f ffffffff ffffffff     .3..............
   d3908:	ffffffff ffffffff ffffffff ffffffff     ................
   d3918:	ffffffff ffffffff ffffffff ffffffff     ................
   d3928:	1ffeffc0 ff9ffffd ffffffff ffffffff     ................
   d3938:	ffffffff ffffffff ffffffff ffffffff     ................
   d3948:	ffffffff ffffffff ffffffff ffffffff     ................
   d3958:	ffc9ffff ffff8ffc ffffff8f ffffffff     ................
   d3968:	ffffffff ffffffff ffffffff ffffffff     ................
   d3978:	ffffffff ffffffff ffffffff ffffffff     ................
   d3988:	ffffffff dff9ffc9 ff8ffffd ffffffff     ................
   d3998:	ffffffff ffffffff ffffffff ffffffff     ................
   d39a8:	ffffffff ffffffff ffffffff ffffffff     ................
   d39b8:	ffffffff ffcfffff fff5fff0 ffffff8f     ................
   d39c8:	ffffffff ffffffff ffffffff ffffffff     ................
   d39d8:	ffffffff ffffffff ffffffff ffffffff     ................
   d39e8:	ffffffff ffffffff 7ff6ffe7 ff8ffff5     ................
   d39f8:	ffffffff ffffffff ffffffff ffffffff     ................
   d3a08:	ffffffff ffffffff ffffffff ffffffff     ................
   d3a18:	ffffffff ffffffff ffe7ffff ffb53fe3     .............?..
   d3a28:	ffffff87 ffffffff ffffffff ffffffff     ................
   d3a38:	ffffffff ffffffff ffffffff ffffffff     ................
   d3a48:	ffffffff ffffffff ffffffff 9feffff3     ................
   d3a58:	ff87ff0b ffffffff ffffffff ffffffff     ................
   d3a68:	ffffffff ffffffff ffffffff ffffffff     ................
   d3a78:	ffffffff ffffffff ffffffff fff3ffff     ................
   d3a88:	ffa14fce ffffff87 ffffffff ffffffff     .O..............
   d3a98:	ffffffff ffffffff ffffffff ffffffff     ................
   d3aa8:	ffffffff ffffffff ffffffff ffffffff     ................
   d3ab8:	27d7fff9 ff97fff3 ffffffff ffffffff     ...'............
   d3ac8:	ffffffff ffffffff ffffffff ffffffff     ................
   d3ad8:	ffffffff ffffffff ffffffff ffffffff     ................
   d3ae8:	fbfcffff fffbc3d3 ffffff97 ffffffff     ................
   d3af8:	ffffffff ffffffff ffffffff ffffffff     ................
   d3b08:	ffffffff ffffffff ffffffff ffffffff     ................
   d3b18:	ffffffff e1d37cfe ff97fffb ffffffff     .....|..........
   d3b28:	ffffffff ffffffff ffffffff ffffffff     ................
   d3b38:	ffffffff ffffffff ffffffff ffffffff     ................
   d3b48:	ffffffff 3e0ff0ff fffff11f ffffffc7     .......>........
   d3b58:	ffffffff ffffffff ffffffff ffffffff     ................
   d3b68:	ffffffff ffffffff ffffffff ffffffff     ................
   d3b78:	ffffffff c0ffffff f8930f00 ffc3ffdf     ................
   d3b88:	ffffffff ffffffff ffffffff ffffffff     ................
   d3b98:	ffffffff ffffffff ffffffff ffffffff     ................
   d3ba8:	ffffffff ffffffff 03fccfff ff5ffe93     .............._.
   d3bb8:	ffffffc7 ffffffff ffffffff ffffffff     ................
   d3bc8:	ffffffff ffffffff ffffffff ffffffff     ................
   d3bd8:	ffffffff ffffffff a3ffffff ffcfe0ff     ................
   d3be8:	ffc7ff3f ffffffff ffffffff ffffffff     ?...............
   d3bf8:	ffffffff ffffffff ffffffff ffffffff     ................
   d3c08:	ffffffff ffffffff ffffffff fcff79ff     .............y..
   d3c18:	7f3fff07 ffffffe3 ffffffff ffffffff     ..?.............
   d3c28:	ffffffff ffffffff ffffffff ffffffff     ................
   d3c38:	ffffffff ffffffff ffffffff fefeffff     ................
   d3c48:	fff7f87f ffe33f9f ffffffff ffffffff     .....?..........
   d3c58:	ffffffff ffffffff ffffffff ffffffff     ................
   d3c68:	ffffffff ffffffff ffffffff ffffffff     ................
   d3c78:	f3fffffe bfdff7d3 ffffffe3 ffffffff     ................
   d3c88:	ffffffff ffffffff ffffffff ffffffff     ................
   d3c98:	ffffffff ffffffff ffffffff ffffffff     ................
   d3ca8:	bffcffff fbebc1ff ffe39fcf ffffffff     ................
   d3cb8:	ffffffff ffffffff ffffffff ffffffff     ................
   d3cc8:	ffffffff ffffffff ffffffff ffffffff     ................
   d3cd8:	ffffffff d8ff0ffc cfeffb71 ffffffe7     ........q.......
   d3ce8:	ffffffff ffffffff ffffffff ffffffff     ................
   d3cf8:	ffffffff ffffffff ffffffff ffffffff     ................
   d3d08:	ffffffff bff9ffff f9f8afff ffe7efe7     ................
   d3d18:	ffffffff ffffffff ffffffff ffffffff     ................
   d3d28:	ffffffff ffffffff ffffffff ffffffff     ................
   d3d38:	ffffffff ffffffff 47fffff9 f7f779fe     ...........G.y..
   d3d48:	ffffffa7 ffffffff ffffffff ffffffff     ................
   d3d58:	ffffffff ffffffff ffffffff ffffffff     ................
   d3d68:	ffffffff ffffffff fffbffff 39ff47fe     .............G.9
   d3d78:	ffa7fbf3 ffffffff ffffffff ffffffff     ................
   d3d88:	ffffffff ffffffff ffffffff ffffffff     ................
   d3d98:	ffffffff ffffffff ffffffff effc3ffa     .............?..
   d3da8:	f9fb99ff ffffff87 ffffffff ffffffff     ................
   d3db8:	ffffffff ffffffff ffffffff ffffffff     ................
   d3dc8:	ffffffff ffffffff ffffffff 3ff2ffff     ...............?
   d3dd8:	c8fffffc f807fcfd ffffff3f ffffffff     ........?.......
   d3de8:	ffffffff ffffffff ffffffff ffffffff     ................
   d3df8:	ffffffff ffffffff ffffffff ffffffff     ................
   d3e08:	fffd03f2 fcfce0ff ff0fc007 ffffffff     ................
   d3e18:	ffffffff ffffffff ffffffff ffffffff     ................
   d3e28:	ffffffff ffffffff ffffffff ffffffff     ................
   d3e38:	7ff8ffff f8fffff9 9f0f7e7e ffffffe3     ........~~......
   d3e48:	ffffffff ffffffff ffffffff ffffffff     ................
   d3e58:	ffffffff ffffffff ffffffff ffffffff     ................
   d3e68:	ffffffff fffbfff3 393ffcff ff19200f     ..........?9. ..
   d3e78:	ffffffff ffffffff ffffffff ffffffff     ................
   d3e88:	ffffffff ffffffff ffffffff ffffffff     ................
   d3e98:	ffffffff 7ff3ffff fffffffb 0f0e900f     ................
   d3ea8:	ffffffc1 ffffffff ffffffff ffffffff     ................
   d3eb8:	ffffffff ffffffff ffffffff ffffffff     ................
   d3ec8:	ffffffff ffffffff fff33ff2 c0c7ffff     .........?......
   d3ed8:	fff37f0c ffffffff ffffffff ffffffff     ................
   d3ee8:	ffffffff ffffffff ffffffff ffffffff     ................
   d3ef8:	ffffffff ffffffff 3ff2ffff fffffff3     ...........?....
   d3f08:	ff0920f0 fffffff9 ffffffff ffffffff     . ..............
   d3f18:	ffffffff ffffffff ffffffff ffffffff     ................
   d3f28:	ffffffff ffffffff ffffffff fff3fffb     ................
   d3f38:	00fcfffe fff9ff01 ffffffff ffffffff     ................
   d3f48:	ffffffff ffffffff ffffffff ffffffff     ................
   d3f58:	ffffffff ffffffff ffffffff fffbffff     ................
   d3f68:	3f80ffeb ff0700fc fffffffc ffffffff     ...?............
   d3f78:	ffffffff ffffffff ffffffff ffffffff     ................
   d3f88:	ffffffff ffffffff ffffffff ffffffff     ................
   d3f98:	d8db1ff9 00ffc71f fffcff0f ffffffff     ................
   d3fa8:	ffffffff ffffffff ffffffff ffffffff     ................
   d3fb8:	ffffffff ffffffff ffffffff ffffffff     ................
   d3fc8:	1ef9ffff f83fcc5b ff0f803f ffffffff     ....[.?.?.......
   d3fd8:	ffffffff ffffffff ffffffff ffffffff     ................
   d3fe8:	ffffffff ffffffff ffffffff ffffffff     ................
   d3ff8:	ffffffff ff1bbffc 0080ff8f ffffff1f     ................
   d4008:	ffffffff ffffffff ffffffff ffffffff     ................
   d4018:	ffffffff ffffffff ffffffff ffffffff     ................
   d4028:	ffffffff fffcffff fff9ff3b ff1f00ff     ........;.......
   d4038:	ffffffff ffffffff ffffffff ffffffff     ................
   d4048:	ffffffff ffffffff ffffffff ffffffff     ................
   d4058:	ffffffff ffffffff ffbb7efe 80ffffff     .........~......
   d4068:	ffffff1f ffffffff ffffffff ffffffff     ................
   d4078:	ffffffff ffffffff ffffffff ffffffff     ................
   d4088:	ffffffff ffffffff 3effffff cfffffb3     ...........>....
   d4098:	ff3f00fe ffffffff ffffffff ffffffff     ..?.............
   d40a8:	ffffffff ffffffff ffffffff ffffffff     ................
   d40b8:	ffffffff ffffffff ffffffff ff53beff     ..............S.
   d40c8:	00fef3ff ffffff3f ffffffff ffffffff     ....?...........
   d40d8:	ffffffff ffffffff ffffffff ffffffff     ................
   d40e8:	ffffffff ffffffff ffffffff 9fffffff     ................
   d40f8:	f8ffff13 ff7f04f8 ffffffff ffffffff     ................
   d4108:	ffffffff ffffffff ffffffff ffffffff     ................
   d4118:	ffffffff ffffffff ffffffff ffffffff     ................
   d4128:	ff83cfff 0c18feff ffffff7f ffffffff     ................
   d4138:	ffffffff ffffffff ffffffff ffffffff     ................
   d4148:	ffffffff ffffffff ffffffff ffffffff     ................
   d4158:	e7ffffff ffffffc3 ffff1cc0 ffffffff     ................
   d4168:	ffffffff ffffffff ffffffff ffffffff     ................
   d4178:	ffffffff ffffffff ffffffff ffffffff     ................
   d4188:	ffffffff ffe7f3ff 7cfcffff ffffffff     ...........|....
   d4198:	ffffffff ffffffff ffffffff ffffffff     ................
   d41a8:	ffffffff ffffffff ffffffff ffffffff     ................
   d41b8:	ffffffff f8ffffff ffffffe3 fffffdf9     ................
   d41c8:	ffffffff ffffffff ffffffff ffffffff     ................
   d41d8:	ffffffff ffffffff ffffffff ffffffff     ................
   d41e8:	ffffffff ffffffff ff73feff fde3fffe     ..........s.....
   d41f8:	ffffffff ffffffff ffffffff ffffffff     ................
   d4208:	ffffffff ffffffff ffffffff ffffffff     ................
   d4218:	ffffffff ffffffff ffffffff f8fefd33     ............3...
   d4228:	ffffff8f ffffffff ffffffff ffffffff     ................
   d4238:	ffffffff ffffffff ffffffff ffffffff     ................
   d4248:	ffffffff ffffffff ffffffff eb93ffff     ................
   d4258:	ff3ff87e ffffffff ffffffff ffffffff     ~.?.............
   d4268:	ffffffff ffffffff ffffffff ffffffff     ................
   d4278:	ffffffff ffffffff ffffffff ffffffff     ................
   d4288:	f8ffe8c3 ffffffff ffffffff ffffffff     ................
   d4298:	ffffffff ffffffff ffffffff ffffffff     ................
   d42a8:	ffffffff ffffffff ffffffff ffffffff     ................
   d42b8:	f1e1ffff ffffc3ff ffffffff ffffffff     ................
   d42c8:	ffffffff ffffffff ffffffff ffffffff     ................
   d42d8:	ffffffff ffffffff ffffffff ffffffff     ................
   d42e8:	ffffffff 0ffff3f9 ffffffff ffffffff     ................
   d42f8:	ffffffff ffffffff ffffffff ffffffff     ................
   d4308:	ffffffff ffffffff ffffffff ffffffff     ................
   d4318:	ffffffff f7fcffff ffff7ff8 ffffffff     ................
   d4328:	ffffffff ffffffff ffffffff ffffffff     ................
   d4338:	ffffffff ffffffff ffffffff ffffffff     ................
   d4348:	ffffffff ffffffff ffc177fe ffffffff     .........w......
   d4358:	ffffffff ffffffff ffffffff ffffffff     ................
   d4368:	ffffffff ffffffff ffffffff ffffffff     ................
   d4378:	ffffffff ffffffff 20ffffff ffffff1f     ........... ....
   d4388:	ffffffff ffffffff ffffffff ffffffff     ................
   d4398:	ffffffff ffffffff ffffffff ffffffff     ................
   d43a8:	ffffffff ffffffff ffffffff ffffe0ff     ................
   d43b8:	ffffffff ffffffff ffffffff ffffffff     ................
   d43c8:	ffffffff ffffffff ffffffff ffffffff     ................
   d43d8:	ffffffff ffffffff ffffffff ffffffff     ................
   d43e8:	ffffffff ffffffff ffffffff ffffffff     ................
   d43f8:	ffffffff ffffffff ffffffff ffffffff     ................
   d4408:	ffffffff ffffffff ffffffff ffffffff     ................
   d4418:	ffffffff ffffffff ffffffff ffffffff     ................
   d4428:	ffffffff ffffffff ffffffff ffffffff     ................
   d4438:	ffffffff ffffffff ffffffff ffffffff     ................
   d4448:	ffffffff ffffffff ffffffff ffffffff     ................
   d4458:	ffffffff ffffffff ffffffff ffffffff     ................
   d4468:	ffffffff ffffffff ffffffff ffffffff     ................
   d4478:	ffffffff ffffffff ffffffff ffffffff     ................
   d4488:	ffffffff ffffffff ffffffff ffffffff     ................
   d4498:	ffffffff ffffffff ffffffff ffffffff     ................
   d44a8:	ffffffff ffffffff ffffffff ffffffff     ................
   d44b8:	ffffffff ffffffff ffffffff ffffffff     ................
   d44c8:	ffffffff ffffffff ffffffff ffffffff     ................
   d44d8:	ffffffff ffffffff ffffffff ffffffff     ................
   d44e8:	ffffffff ffffffff ffffffff ffffffff     ................
   d44f8:	ffffffff ffffffff ffffffff ffffffff     ................
   d4508:	ffffffff ffffffff ffffffff ffffffff     ................
   d4518:	ffffffff ffffffff ffffffff ffffffff     ................
   d4528:	ffffffff ffffffff ffffffff ffffffff     ................
   d4538:	ffffffff ffffffff ffffffff ffffffff     ................
   d4548:	ffffffff ffffffff ffffffff ffffffff     ................
   d4558:	ffffffff ffffffff ffffffff ffffffff     ................
   d4568:	ffffffff ffffffff ffffffff ffffffff     ................
   d4578:	ffffffff ffffffff ffffffff ffffffff     ................
   d4588:	ffffffff ffffffff ffffffff ffffffff     ................
   d4598:	ffffffff ffffffff ffffffff ffffffff     ................
   d45a8:	ffffffff ffffffff ffffffff ffffffff     ................
   d45b8:	ffffffff ffffffff ffffffff ffffffff     ................
   d45c8:	ffffffff ffffffff ffffffff ffffffff     ................
   d45d8:	ffffffff ffffffff ffffffff ffffffff     ................
   d45e8:	ffffffff ffffffff ffffffff ffffffff     ................
   d45f8:	ffffffff ffffffff ffffffff ffffffff     ................
   d4608:	ffffffff ffffffff ffffffff ffffffff     ................
   d4618:	ffffffff ffffffff ffffffff ffffffff     ................
   d4628:	ffffffff ffffffff ffffffff ffffffff     ................
   d4638:	ffffffff ffffffff ffffffff ffffffff     ................
   d4648:	ffffffff ffffffff ffffffff ffffffff     ................
   d4658:	ffffffff ffffffff ffffffff ffffffff     ................
   d4668:	ffffffff ffffffff ffffffff ffffffff     ................
   d4678:	ffffffff ffffffff ffffffff ffffffff     ................
   d4688:	ffffffff ffffffff ffffffff ffffffff     ................
   d4698:	ffffffff ffffffff ffffffff ffffffff     ................
   d46a8:	ffffffff ffffffff ffffffff ffffffff     ................
   d46b8:	ffffffff ffffffff ffffffff ffffffff     ................
   d46c8:	ffffffff ffffffff ffffffff ffffffff     ................
   d46d8:	ffffffff ffffffff ffffffff ffffffff     ................
   d46e8:	ffffffff ffffffff ffffffff ffffffff     ................
   d46f8:	ffffffff ffffffff ffffffff ffffffff     ................
   d4708:	ffffffff ffffffff ffffffff ffffffff     ................
   d4718:	ffffffff ffffffff ffffffff ffffffff     ................
   d4728:	ffffffff ffffffff ffffffff ffffffff     ................
   d4738:	ffffffff ffffffff ffffffff ffffffff     ................
   d4748:	ffffffff ffffffff ffffffff ffffffff     ................
   d4758:	ffffffff ffffffff ffffffff ffffffff     ................
   d4768:	ffffffff ffffffff ffffffff ffffffff     ................
   d4778:	ffffffff ffffffff ffffffff ffffffff     ................
   d4788:	ffffffff ffffffff ffffffff ffffffff     ................
   d4798:	ffffffff ffffffff ffffffff ffffffff     ................
   d47a8:	ffffffff ffffffff ffffffff ffffffff     ................
   d47b8:	ffffffff ffffffff ffffffff ffffffff     ................
   d47c8:	ffffffff ffffffff ffffffff ffffffff     ................
   d47d8:	ffffffff ffffffff ffffffff ffffffff     ................
   d47e8:	ffffffff ffffffff ffffffff ffffffff     ................
   d47f8:	ffffffff ffffffff ffffffff ffffffff     ................
   d4808:	ffffffff ffffffff ffffffff ffffffff     ................
   d4818:	ffffffff ffffffff ffffffff ffffffff     ................
   d4828:	ffffffff ffffffff ffffffff ffffffff     ................
   d4838:	ffffffff ffffffff ffffffff ffffffff     ................
   d4848:	ffffffff ffffffff ffffffff ffffffff     ................
   d4858:	ffffffff ffffffff ffffffff ffffffff     ................
   d4868:	ffffffff ffffffff ffffffff ffffffff     ................
   d4878:	ffffffff ffffffff ffffffff ffffffff     ................
   d4888:	ffffffff ffffffff ffffffff ffffffff     ................
   d4898:	ffffffff ffffffff ffffffff ffffffff     ................
   d48a8:	ffffffff ffffffff ffffffff ffffffff     ................
   d48b8:	ffffffff ffffffff ffffffff ffffffff     ................
   d48c8:	ffffffff ffffffff ffffffff ffffffff     ................
   d48d8:	ffffffff ffffffff ffffffff ffffffff     ................
   d48e8:	ffffffff ffffffff ffffffff ffffffff     ................
   d48f8:	ffffffff ffffffff ffffffff ffffffff     ................
   d4908:	ffffffff ffffffff ffffffff ffffffff     ................
   d4918:	ffffffff ffffffff ffffffff ffffffff     ................
   d4928:	ffffffff ffffffff ffffffff ffffffff     ................
   d4938:	ffffffff ffffffff ffffffff ffffffff     ................
   d4948:	ffffffff ffffffff ffffffff ffffffff     ................
   d4958:	ffffffff ffffffff ffffffff ffffffff     ................
   d4968:	ffffffff ffffffff ffffffff ffffffff     ................
   d4978:	ffffffff ffffffff ffffffff ffffffff     ................
   d4988:	ffffffff ffffffff ffffffff ffffffff     ................
   d4998:	ffffffff ffffffff ffffffff ffffffff     ................
   d49a8:	ffffffff ffffffff ffffffff ffffffff     ................
   d49b8:	ffffffff ffffffff ffffffff ffffffff     ................
   d49c8:	ffffffff ffffffff ffffffff ffffffff     ................
   d49d8:	ffffffff ffffffff ffffffff ffffffff     ................
   d49e8:	ffffffff ffffffff ffffffff ffffffff     ................
   d49f8:	ffffffff ffffffff ffffffff ffffffff     ................
   d4a08:	ffffffff ffffffff ffffffff ffffffff     ................
   d4a18:	ffffffff ffffffff ffffffff ffffffff     ................
   d4a28:	ffffffff ffffffff ffffffff ffffffff     ................
   d4a38:	ffffffff ffffffff ffffffff ffffffff     ................
   d4a48:	ffffffff ffffffff ffffffff ffffffff     ................
   d4a58:	ffffffff ffffffff ffffffff ffffffff     ................
   d4a68:	ffffffff ffffffff ffffffff ffffffff     ................
   d4a78:	ffffffff ffffffff ffffffff ffffffff     ................
   d4a88:	ffffffff ffffffff ffffffff ffffffff     ................
   d4a98:	ffffffff ffffffff ffffffff ffffffff     ................
   d4aa8:	ffffffff ffffffff ffffffff ffffffff     ................
   d4ab8:	ffffffff ffffffff ffffffff ffffffff     ................
   d4ac8:	ffffffff ffffffff ffffffff ffffffff     ................
   d4ad8:	ffffffff ffffffff ffffffff ffffffff     ................
   d4ae8:	ffffffff ffffffff ffffffff ffffffff     ................
   d4af8:	ffffffff ffffffff ffffffff ffffffff     ................
   d4b08:	ffffffff ffffffff ffffffff ffffffff     ................
   d4b18:	ffffffff ffffffff ffffffff ffffffff     ................
   d4b28:	ffffffff ffffffff ffffffff ffffffff     ................
   d4b38:	ffffffff ffffffff ffffffff ffffffff     ................
   d4b48:	ffffffff ffffffff ffffffff ffffffff     ................
   d4b58:	ffffffff ffffffff ffffffff ffffffff     ................
   d4b68:	ffffffff ffffffff ffffffff ffffffff     ................
   d4b78:	ffffffff ffffffff ffffffff ffffffff     ................
   d4b88:	ffffffff ffffffff ffffffff ffffffff     ................
   d4b98:	ffffffff ffffffff ffffffff ffffffff     ................
   d4ba8:	ffffffff ffffffff ffffffff ffffffff     ................
   d4bb8:	ffffffff ffffffff ffffffff ffffffff     ................
   d4bc8:	ffffffff ffffffff ffffffff ffffffff     ................
   d4bd8:	ffffffff ffffffff ffffffff ffffffff     ................
   d4be8:	ffffffff ffffffff ffffffff ffffffff     ................
   d4bf8:	ffffffff ffffffff ffffffff ffffffff     ................
   d4c08:	ffffffff ffffffff ffffffff ffffffff     ................
   d4c18:	ffffffff ffffffff ffffffff ffffffff     ................
   d4c28:	ffffffff ffffffff ffffffff ffffffff     ................
   d4c38:	ffffffff ffffffff ffffffff ffffffff     ................
   d4c48:	ffffffff ffffffff ffffffff ffffffff     ................
   d4c58:	ffffffff ffffffff ffffffff ffffffff     ................
   d4c68:	ffffffff ffffffff ffffffff ffffffff     ................
   d4c78:	ffffffff ffffffff ffffffff ffffffff     ................
   d4c88:	ffffffff ffffffff ffffffff ffffffff     ................
   d4c98:	ffffffff ffffffff ffffffff ffffffff     ................
   d4ca8:	ffffffff ffffffff ffffffff ffffffff     ................
   d4cb8:	ffffffff ffffffff ffffffff ffffffff     ................
   d4cc8:	ffffffff ffffffff ffffffff ffffffff     ................
   d4cd8:	ffffffff ffffffff ffffffff ffffffff     ................
   d4ce8:	ffffffff ffffffff ffffffff ffffffff     ................
   d4cf8:	ffffffff ffffffff ffffffff ffffffff     ................
   d4d08:	ffffffff ffffffff ffffffff ffffffff     ................
   d4d18:	ffffffff ffffffff ffffffff ffffffff     ................
   d4d28:	ffffffff ffffffff ffffffff ffffffff     ................
   d4d38:	ffffffff ffffffff ffffffff ffffffff     ................
   d4d48:	ffffffff ffffffff ffffffff ffffffff     ................
   d4d58:	ffffffff ffffffff ffffffff ffffffff     ................
   d4d68:	ffffffff ffffffff ffffffff ffffffff     ................
   d4d78:	ffffffff ffffffff ffffffff ffffffff     ................
   d4d88:	ffffffff ffffffff ffffffff ffffffff     ................
   d4d98:	ffffffff ffffffff ffffffff ffffffff     ................
   d4da8:	ffffffff ffffffff ffffffff ffffffff     ................
   d4db8:	ffffffff ffffffff ffffffff ffffffff     ................
   d4dc8:	ffffffff ffffffff ffffffff ffffffff     ................
   d4dd8:	ffffffff ffffffff ffffffff ffffffff     ................
   d4de8:	ffffffff ffffffff ffffffff ffffffff     ................
   d4df8:	ffffffff ffffffff ffffffff ffffffff     ................
   d4e08:	ffffffff ffffffff ffffffff ffffffff     ................
   d4e18:	ffffffff ffffffff ffffffff ffffffff     ................
   d4e28:	ffffffff ffffffff ffffffff ffffffff     ................
   d4e38:	ffffffff ffffffff ffffffff ffffffff     ................
   d4e48:	ffffffff ffffffff ffffffff ffffffff     ................
   d4e58:	ffffffff ffffffff ffffffff ffffffff     ................
   d4e68:	ffffffff ffffffff ffffffff ffffffff     ................
   d4e78:	ffffffff ffffffff ffffffff ffffffff     ................
   d4e88:	ffffffff ffffffff ffffffff ffffffff     ................
   d4e98:	ffffffff ffffffff ffffffff ffffffff     ................
   d4ea8:	ffffffff ffffffff ffffffff ffffffff     ................
   d4eb8:	ffffffff ffffffff ffffffff ffffffff     ................
   d4ec8:	ffffffff ffffffff ffffffff ffffffff     ................
   d4ed8:	ffffffff ffffffff ffffffff ffffffff     ................
   d4ee8:	ffffffff ffffffff ffffffff ffffffff     ................
   d4ef8:	ffffffff ffffffff ffffffff ffffffff     ................
   d4f08:	ffffffff ffffffff ffffffff ffffffff     ................
   d4f18:	ffffffff ffffffff ffffffff ffffffff     ................
   d4f28:	ffffffff ffffffff ffffffff ffffffff     ................
   d4f38:	ffffffff ffffffff ffffffff ffffffff     ................
   d4f48:	ffffffff ffffffff ffffffff ffffffff     ................
   d4f58:	ffffffff ffffffff ffffffff ffffffff     ................
   d4f68:	ffffffff ffffffff ffffffff ffffffff     ................
   d4f78:	ffffffff ffffffff ffffffff ffffffff     ................
   d4f88:	ffffffff ffffffff ffffffff ffffffff     ................
   d4f98:	ffffffff ffffffff ffffffff ffffffff     ................
   d4fa8:	ffffffff ffffffff ffffffff ffffffff     ................
   d4fb8:	ffffffff ffffffff ffffffff ffffffff     ................
   d4fc8:	ffffffff ffffffff ffffffff ffffffff     ................
   d4fd8:	ffffffff ffffffff ffffffff ffffffff     ................
   d4fe8:	ffffffff ffffffff ffffffff ffffffff     ................
   d4ff8:	ffffffff ffffffff ffffffff ffffffff     ................
   d5008:	ffffffff ffffffff ffffffff ffffffff     ................
   d5018:	ffffffff ffffffff ffffffff ffffffff     ................
   d5028:	ffffffff ffffffff ffffffff ffffffff     ................
   d5038:	ffffffff ffffffff ffffffff ffffffff     ................
   d5048:	ffffffff ffffffff ffffffff ffffffff     ................
   d5058:	ffffffff ffffffff ffffffff ffffffff     ................
   d5068:	ffffffff ffffffff ffffffff ffffffff     ................
   d5078:	ffffffff ffffffff ffffffff ffffffff     ................
   d5088:	ffffffff ffffffff ffffffff ffffffff     ................
   d5098:	ffffffff ffffffff ffffffff ffffffff     ................
   d50a8:	ffffffff ffffffff ffffffff ffffffff     ................
   d50b8:	ffffffff ffffffff ffffffff ffffffff     ................
   d50c8:	ffffffff ffffffff ffffffff ffffffff     ................
   d50d8:	ffffffff ffffffff ffffffff ffffffff     ................
   d50e8:	ffffffff ffffffff ffffffff ffffffff     ................
   d50f8:	ffffffff ffffffff ffffffff ffffffff     ................
   d5108:	ffffffff ffffffff ffffffff ffffffff     ................
   d5118:	ffffffff ffffffff ffffffff ffffffff     ................
   d5128:	ffffffff ffffffff ffffffff ffffffff     ................
   d5138:	ffffffff ffffffff ffffffff ffffffff     ................
   d5148:	ffffffff ffffffff ffffffff ffffffff     ................
   d5158:	ffffffff ffffffff ffffffff ffffffff     ................
   d5168:	ffffffff ffffffff ffffffff ffffffff     ................
   d5178:	ffffffff ffffffff ffffffff ffffffff     ................
   d5188:	ffffffff ffffffff ffffffff ffffffff     ................
   d5198:	ffffffff ffffffff ffffffff ffffffff     ................
   d51a8:	ffffffff ffffffff ffffffff ffffffff     ................
   d51b8:	ffffffff ffffffff ffffffff ffffffff     ................
   d51c8:	ffffffff ffffffff ffffffff ffffffff     ................
   d51d8:	ffffffff ffffffff ffffffff ffffffff     ................
   d51e8:	ffffffff ffffffff ffffffff ffffffff     ................
   d51f8:	ffffffff ffffffff ffffffff ffffffff     ................
   d5208:	ffffffff ffffffff ffffffff ffffffff     ................
   d5218:	ffffffff ffffffff ffffffff ffffffff     ................
   d5228:	ffffffff ffffffff ffffffff ffffffff     ................
   d5238:	ffffffff ffffffff ffffffff ffffffff     ................
   d5248:	ffffffff ffffffff ffffffff ffffffff     ................
   d5258:	ffffffff ffffffff ffffffff ffffffff     ................
   d5268:	ffffffff ffffffff ffffffff ffffffff     ................
   d5278:	ffffffff ffffffff ffffffff ffffffff     ................
   d5288:	ffffffff ffffffff ffffffff ffffffff     ................
   d5298:	ffffffff ffffffff ffffffff ffffffff     ................
   d52a8:	ffffffff ffffffff ffffffff ffffffff     ................
   d52b8:	ffffffff ffffffff ffffffff ffffffff     ................
   d52c8:	ffffffff ffffffff ffffffff ffffffff     ................
   d52d8:	ffffffff ffffffff ffffffff ffffffff     ................
   d52e8:	ffffffff ffffffff ffffffff ffffffff     ................
   d52f8:	ffffffff ffffffff ffffffff ffffffff     ................
   d5308:	ffffffff ffffffff ffffffff ffffffff     ................
   d5318:	ffffffff ffffffff ffffffff ffffffff     ................
   d5328:	ffffffff ffffffff ffffffff ffffffff     ................
   d5338:	ffffffff ffffffff ffffffff ffffffff     ................
   d5348:	ffffffff ffffffff ffffffff ffffffff     ................
   d5358:	ffffffff ffffffff ffffffff ffffffff     ................
   d5368:	ffffffff ffffffff ffffffff ffffffff     ................
   d5378:	ffffffff ffffffff ffffffff ffffffff     ................
   d5388:	ffffffff ffffffff ffffffff ffffffff     ................
   d5398:	ffffffff ffffffff ffffffff ffffffff     ................
   d53a8:	ffffffff ffffffff ffffffff ffffffff     ................
   d53b8:	ffffffff ffffffff ffffffff ffffffff     ................
   d53c8:	ffffffff ffffffff ffffffff ffffffff     ................
   d53d8:	ffffffff ffffffff ffffffff ffffffff     ................
   d53e8:	ffffffff ffffffff ffffffff ffffffff     ................
   d53f8:	ffffffff ffffffff ffffffff ffffffff     ................
   d5408:	ffffffff ffffffff ffffffff ffffffff     ................
   d5418:	ffffffff ffffffff ffffffff ffffffff     ................
   d5428:	ffffffff ffffffff ffffffff ffffffff     ................
   d5438:	ffffffff ffffffff ffffffff ffffffff     ................
   d5448:	ffffffff ffffffff ffffffff ffffffff     ................
   d5458:	ffffffff ffffffff ffffffff ffffffff     ................
   d5468:	ffffffff ffffffff ffffffff ffffffff     ................
   d5478:	ffffffff ffffffff ffffffff ffffffff     ................
   d5488:	ffffffff ffffffff ffffffff ffffffff     ................
   d5498:	ffffffff ffffffff ffffffff ffffffff     ................
   d54a8:	ffffffff ffffffff ffffffff ffffffff     ................
   d54b8:	ffffffff ffffffff ffffffff ffffffff     ................
   d54c8:	ffffffff ffffffff ffffffff ffffffff     ................
   d54d8:	ffffffff ffffffff ffffffff ffffffff     ................
   d54e8:	ffffffff ffffffff ffffffff ffffffff     ................
   d54f8:	ffffffff ffffffff ffffffff ffffffff     ................
   d5508:	ffffffff ffffffff ffffffff ffffffff     ................
   d5518:	ffffffff ffffffff ffffffff ffffffff     ................
   d5528:	ffffffff ffffffff ffffffff ffffffff     ................
   d5538:	ffffffff ffffffff ffffffff ffffffff     ................
   d5548:	ffffffff ffffffff ffffffff ffffffff     ................
   d5558:	ffffffff ffffffff ffffffff ffffffff     ................
   d5568:	ffffffff ffffffff ffffffff ffffffff     ................
   d5578:	ffffffff ffffffff ffffffff ffffffff     ................
   d5588:	ffffffff ffffffff ffffffff ffffffff     ................
   d5598:	ffffffff ffffffff ffffffff ffffffff     ................
   d55a8:	ffffffff ffffffff ffffffff ffffffff     ................
   d55b8:	ffffffff ffffffff ffffffff ffffffff     ................
   d55c8:	ffffffff ffffffff ffffffff ffffffff     ................
   d55d8:	ffffffff ffffffff ffffffff ffffffff     ................
   d55e8:	ffffffff ffffffff ffffffff ffffffff     ................
   d55f8:	ffffffff ffffffff ffffffff ffffffff     ................
   d5608:	ffffffff ffffffff ffffffff ffffffff     ................
   d5618:	ffffffff ffffffff ffffffff ffffffff     ................
   d5628:	ffffffff ffffffff ffffffff ffffffff     ................
   d5638:	ffffffff ffffffff ffffffff ffffffff     ................
   d5648:	ffffffff ffffffff ffffffff ffffffff     ................
   d5658:	ffffffff ffffffff ffffffff ffffffff     ................
   d5668:	ffffffff ffffffff ffffffff ffffffff     ................
   d5678:	ffffffff ffffffff ffffffff ffffffff     ................
   d5688:	ffffffff ffffffff ffffffff ffffffff     ................
   d5698:	ffffffff ffffffff ffffffff ffffffff     ................
   d56a8:	ffffffff ffffffff ffffffff ffffffff     ................
   d56b8:	ffffffff ffffffff ffffffff ffffffff     ................
   d56c8:	ffffffff ffffffff ffffffff ffffffff     ................
   d56d8:	ffffffff ffffffff ffffffff ffffffff     ................
   d56e8:	ffffffff ffffffff ffffffff ffffffff     ................
   d56f8:	ffffffff ffffffff ffffffff ffffffff     ................
   d5708:	ffffffff ffffffff ffffffff ffffffff     ................
   d5718:	ffffffff ffffffff ffffffff ffffffff     ................
   d5728:	ffffffff ffffffff ffffffff ffffffff     ................
   d5738:	ffffffff ffffffff ffffffff ffffffff     ................
   d5748:	ffffffff ffffffff ffffffff ffffffff     ................
   d5758:	ffffffff ffffffff ffffffff ffffffff     ................
   d5768:	ffffffff ffffffff ffffffff ffffffff     ................
   d5778:	ffffffff ffffffff ffffffff ffffffff     ................
   d5788:	ffffffff ffffffff ffffffff ffffffff     ................
   d5798:	ffffffff ffffffff ffffffff ffffffff     ................
   d57a8:	ffffffff ffffffff ffffffff ffffffff     ................
   d57b8:	ffffffff ffffffff ffffffff ffffffff     ................
   d57c8:	ffffffff ffffffff ffffffff ffffffff     ................
   d57d8:	ffffffff ffffffff ffffffff ffffffff     ................
   d57e8:	ffffffff ffffffff ffffffff ffffffff     ................
   d57f8:	ffffffff ffffffff ffffffff ffffffff     ................
   d5808:	ffffffff ffffffff ffffffff ffffffff     ................
   d5818:	ffffffff ffffffff ffffffff ffffffff     ................
   d5828:	ffffffff ffffffff ffffffff ffffffff     ................
   d5838:	ffffffff ffffffff ffffffff ffffffff     ................
   d5848:	ffffffff ffffffff ffffffff ffffffff     ................
   d5858:	ffffffff ffffffff ffffffff ffffffff     ................
   d5868:	ffffffff ffffffff ffffffff ffffffff     ................
   d5878:	ffffffff ffffffff ffffffff ffffffff     ................
   d5888:	ffffffff ffffffff ffffffff ffffffff     ................
   d5898:	ffffffff ffffffff ffffffff ffffffff     ................
   d58a8:	ffffffff ffffffff ffffffff ffffffff     ................
   d58b8:	ffffffff ffffffff ffffffff ffffffff     ................
   d58c8:	ffffffff ffffffff ffffffff ffffffff     ................
   d58d8:	ffffffff ffffffff ffffffff ffffffff     ................
   d58e8:	ffffffff ffffffff ffffffff ffffffff     ................
   d58f8:	ffffffff ffffffff ffffffff ffffffff     ................
   d5908:	ffffffff ffffffff ffffffff ffffffff     ................
   d5918:	ffffffff ffffffff ffffffff ffffffff     ................
   d5928:	ffffffff ffffffff ffffffff ffffffff     ................
   d5938:	ffffffff ffffffff ffffffff ffffffff     ................
   d5948:	ffffffff ffffffff ffffffff ffffffff     ................
   d5958:	ffffffff ffffffff ffffffff ffffffff     ................
   d5968:	ffffffff ffffffff ffffffff ffffffff     ................
   d5978:	ffffffff ffffffff ffffffff ffffffff     ................
   d5988:	ffffffff ffffffff ffffffff ffffffff     ................
   d5998:	ffffffff ffffffff ffffffff ffffffff     ................
   d59a8:	ffffffff ffffffff ffffffff ffffffff     ................
   d59b8:	ffffffff ffffffff ffffffff ffffffff     ................
   d59c8:	ffffffff ffffffff ffffffff ffffffff     ................
   d59d8:	ffffffff ffffffff ffffffff ffffffff     ................
   d59e8:	ffffffff ffffffff ffffffff ffffffff     ................
   d59f8:	ffffffff ffffffff ffffffff ffffffff     ................
   d5a08:	ffffffff ffffffff ffffffff ffffffff     ................
   d5a18:	ffffffff ffffffff ffffffff ffffffff     ................
   d5a28:	ffffffff ffffffff ffffffff ffffffff     ................
   d5a38:	ffffffff ffffffff ffffffff ffffffff     ................
   d5a48:	ffffffff ffffffff ffffffff ffffffff     ................
   d5a58:	ffffffff ffffffff ffffffff ffffffff     ................
   d5a68:	ffffffff ffffffff ffffffff ffffffff     ................
   d5a78:	ffffffff ffffffff ffffffff ffffffff     ................
   d5a88:	ffffffff ffffffff ffffffff ffffffff     ................
   d5a98:	ffffffff 00000000 00000000 00000000     ................
	...
   d5d24:	03000000 ffffffff 00000000 00000000     ................
	...
   d5d58:	ffff0700 00f8ffff 00000000 00000000     ................
	...
   d5d88:	07000000 ffffffff 000000ff 00000000     ................
	...
   d5dbc:	ffff0700 e0ffffff 00000000 00000000     ................
	...
   d5dec:	07000000 ffffffff 0000f0ff 00000000     ................
	...
   d5e20:	ffff0700 fcffffff 00000000 00000000     ................
	...
   d5e50:	07000000 ffffffff 0000feff e001000f     ................
   d5e60:	7f007800 007c00fe ffcf0700 7f80ffff     .x....|.........
   d5e70:	001efeff 3f001e00 ff0f00ff ff1fe0ff     .......?........
   d5e80:	0000ffff ffff0700 ffffffff 000f0080     ................
   d5e90:	7800e001 80ffff01 0f00003e ffffff8f     ...x....>.......
   d5ea0:	feffff81 1e00001e c0ffff00 f8ffff0f     ................
   d5eb0:	ffffff1f 07000000 ffffffff 00c0ffff     ................
   d5ec0:	e001000f ff077800 003ee0ff ff8f0f00     .....x....>.....
   d5ed0:	ff83ffff 001efeff ff031e00 ff0ff0ff     ................
   d5ee0:	ff1ffcff 0000ffff ffff0700 fff9ffff     ................
   d5ef0:	000f00e0 7800e001 f0ffff0f 1f00001f     .......x........
   d5f00:	ffffff0f feffff87 1e00001e f8ffff07     ................
   d5f10:	feffff0f ffffff1f 07000000 ffffffff     ................
   d5f20:	00f0fff1 e001000f ff1f7800 001ff8ff     .........x......
   d5f30:	ff0f1f00 ff87ffff 001efeff ff0f1e00     ................
   d5f40:	ff0ffcff ff1fffff 0000ffff ffff0700     ................
   d5f50:	ffe1ffff 000f00f8 7800e001 f807e01f     ...........x....
   d5f60:	3e00800f 0000800f 0000f007 1e00001e     ...>............
   d5f70:	fc03f00f ff01000f 0000001f 07000000     ................
   d5f80:	ffffffff 00fcffc1 e001000f 803f7800     .............x?.
   d5f90:	8007fc01 000f3e00 80070000 001e0000     .....>..........
   d5fa0:	c01f1e00 000f7e00 001e1f00 00000000     .....~..........
   d5fb0:	ffff0700 ff81ffff 000f00fc 7800e001     ...............x
   d5fc0:	7c00003f 7c00c007 0000000f 00008007     ?..|...|........
   d5fd0:	1e00001e 3e00801f 0f00000f 0000001e     .......>........
   d5fe0:	07000000 ffffffff 00feff01 e001000f     ................
   d5ff0:	003e7800 c0037c00 000f7c00 80070000     .x>..|...|......
   d6000:	001e0000 001f1e00 000f1e00 001e0f00     ................
   d6010:	00000000 ffff0700 ff01feff 000f00ff     ................
   d6020:	7800e001 3c00003c f800e003 0000800f     ...x<..<........
   d6030:	0000c007 1e00001f 1e00001e 0f00000f     ................
   d6040:	0000001f 07000000 fcffffff 00ffff01     ................
   d6050:	e001000f 003c7800 e0013c00 ff0ff800     .....x<..<......
   d6060:	ff07f0ff ff1ff0ff 001efeff 000f1e00     ................
   d6070:	ff1f0f00 0000e0ff ffff0700 ff01f8ff     ................
   d6080:	000f80ff 7800e001 3c00003c f001f001     .......x<..<....
   d6090:	f0ffff0f fcffff07 feffff1f 1e00001e     ................
   d60a0:	0f00000f e0ffff1f 07000000 f8ffffff     ................
   d60b0:	80ffff01 e001000f 003c7800 f8003c00     .........x<..<..
   d60c0:	ff0fe001 ff07f0ff ff1ffeff 001efeff     ................
   d60d0:	000f1e00 ff1f0f00 0000e0ff ffff0700     ................
   d60e0:	ff01f8ff 000fc0ff 7800e001 3c00003c     ...........x<..<
   d60f0:	e003f800 f0ffff0f feffff01 feffff1f     ................
   d6100:	1e00001e 1f00000f e0ffff1f 07000000     ................
   d6110:	fc011fc0 c0ffe001 e001000f 003c7800     .............x<.
   d6120:	7c003c00 ff0fc003 7f00f0ff ff1fffff     .<.|............
   d6130:	001efeff ff0f1e00 ff1fffff 0000e0ff     ................
   d6140:	1fc00700 c001f801 000fc07f 7800e001     ...............x
   d6150:	fcffff3f c0077c00 0000000f 3f000000     ?....|.........?
   d6160:	1e00001e feffff1f ffffff0f 0000001f     ................
   d6170:	07000000 f8011fc0 e07fc001 e001000f     ................
   d6180:	ff3f7800 3e00fcff 000f8007 00000000     .x?....>........
   d6190:	001e1f00 ff1f1e00 ff0ffeff 001efeff     ................
   d61a0:	00000000 0ec00700 c007f000 000fe03f     ............?...
   d61b0:	7800e001 fcffff3f 800f3e00 0000000f     ...x?....>......
   d61c0:	0f000000 1e00001e feffff1f fcffff0f     ................
   d61d0:	0000001e 07000000 f0000ec0 e03f8007     ..............?.
   d61e0:	e001000f ff3f7800 1f00fcff 000f000f     .....x?.........
   d61f0:	00000000 001e0f00 ff1f1e00 ff0ffeff     ................
   d6200:	001ef8ff 00000000 0cc00700 800ff000     ................
   d6210:	000ff01f 7800e001 fcffff3f 001f1f00     .......x?.......
   d6220:	0000000f 0f000000 1e00001e feffff1f     ................
   d6230:	80f7ff0f 0000001e 07000000 600004e0     ...............`
   d6240:	f01f000f e001000f 003c7800 0f003c00     .........x<..<..
   d6250:	000f009e 00000000 001e0f00 001e1e00     ................
   d6260:	0f0f1e00 001e00f0 00000000 04e00700     ................
   d6270:	001f6000 000ff00f 7800e001 3c00003c     .`.........x<..<
   d6280:	00be0f00 0000000f 0f000000 1e00001e     ................
   d6290:	1e00001e 00f8070f 0000001e 07000000     ................
   d62a0:	400004e0 f00f001e e001000f 003c7800     ...@.........x<.
   d62b0:	07003c00 000f00fc 00000000 001e0f00     .<..............
   d62c0:	001e1e00 010f1e00 001e00fe 00000000     ................
   d62d0:	00f00700 000e0000 800ff007 f800e001     ................
   d62e0:	3c00003c 00fc0700 0000000f 1f000000     <..<............
   d62f0:	1e00001e 1e00001e 00ff000f 0000001e     ................
   d6300:	07000000 000000f0 f007000c e003f00f     ................
   d6310:	003cf807 03003c00 800f00f8 00000000     ..<..<..........
   d6320:	001eff00 001e1e00 000f1e00 001f803f     ............?...
   d6330:	00000000 00f00700 00040000 ff0ff003     ................
   d6340:	f8ffffff 3c00003c 00f80300 ffffff0f     ....<..<........
   d6350:	feffff87 1e00001e 1e00001e e01f000f     ................
   d6360:	ffffff1f 07000000 000000f8 f0030004     ................
   d6370:	ffffff0f 003cf8ff 01003c00 ff0f00f0     ......<..<......
   d6380:	ff87ffff 001efeff 001e1e00 000f1e00     ................
   d6390:	ff1ff007 0000ffff 00f80700 00000000     ................
   d63a0:	ff07f001 f0ffffff 3c00003c 00f00100     ........<..<....
   d63b0:	ffffff0f fcffff87 1e00001e 1e00001e     ................
   d63c0:	fc03000f ffffff1f 03000000 000000f8     ................
   d63d0:	f0010400 ffffff01 003ce0ff 00003c00     ..........<..<..
   d63e0:	ff0f00e0 ff87ffff 001ef8ff 001e1e00     ................
   d63f0:	000f1e00 ff1ffe01 0000ffff 00fc0300     ................
   d6400:	06000020 3f00f000 00ffffff 3c00003c      ......?....<..<
   d6410:	00c00000 ffffff0f c0ffff07 1e00001e     ................
   d6420:	1e00001e 7f00000f ffffff9f 03000000     ................
   d6430:	002000fc f0000e00 00000000 00000000     .. .............
	...
   d6460:	00fc0300 0f000030 0000f000 00000000     ....0...........
	...
   d6490:	03000000 017000fe f0000f00 00000000     ......p.........
	...
   d64c4:	00fe0300 1e000378 0000f000 00000000     ....x...........
	...
   d64f4:	01000000 037800fe f0011e80 00000000     ......x.........
	...
   d6528:	00ff0100 3e8003f8 0000f001 00000000     .......>........
	...
   d6558:	01000000 07fc00ff f0033c80 00000000     .........<......
	...
   d658c:	00ff0000 7cc007fc 0400f003 00000000     .......|........
	...
   d65ac:	00200000 00000000 00000010 00000000     .. .............
   d65bc:	00000000 0ffc81ff f00778c0 00000400     .........x......
	...
   d65e0:	00000020 00100000 00000000 00000000      ...............
   d65f0:	817f0000 e0ff0ffe 0400f007 00000000     ................
	...
   d6610:	00200000 00000000 00000010 00000000     .. .............
   d6620:	00000000 ffffff7f f00fe0ff 00000400     ................
	...
   d6644:	00000020 00100000 00000000 00000000      ...............
   d6654:	ff3f0000 e0ffffff 040ff00f 13e20178     ..?.........x...
   d6664:	0f00e003 40000088 7c0007f8 01387804     .......@...|.x8.
   d6674:	c02300e0 1f98100f 81000010 e08101f1     ..#.............
   d6684:	00000000 ffffff3f f00fe0ff 068c8519     ....?...........
   d6694:	300c141a 80481800 0c8c4180 8c0486c1     ...0..H..A......
   d66a4:	001806c6 d030602c 019171a0 1e198300     ....,`0..q......
   d66b4:	00001806 ff1f0000 e0ffffff 0610f00f     ................
   d66c4:	18060c06 20000818 82c08038 01030802     ....... 8.......
   d66d4:	0c020507 30300004 c0c03060 04810171     ......00`0..q...
   d66e4:	0c081c07 00000000 ffffff0f f00fe0ff     ................
   d66f4:	18020610 04101806 41184000 080184c0     .........@.A....
   d6704:	03860002 00020802 30c01030 83308080     ........0..0..0.
   d6714:	18030881 00000418 ff0f0000 e0ffffff     ................
   d6724:	0410f03f 10021002 c0000430 84214118     ?.......0....A!.
   d6734:	00040801 10030286 10200002 80811080     .......... .....
   d6744:	18c28230 02101803 00000000 ffffff07     0...............
   d6754:	f07fe0ff 1002040c fe3f1002 21088000     ..........?....!
   d6764:	86ff0f21 02c40004 00fe1f03 10801020     !........... ...
   d6774:	c6100081 18011042 0000fe1f ff030000     ....B...........
   d6784:	e0ffffff 0406f0ff 10021002 80000030     ............0...
   d6794:	0c312208 00040300 10030244 10200000     ."1.....D..... .
   d67a4:	00811080 10464410 00101801 00000000     .....DF.........
   d67b4:	ffffff01 f0ffe1ff 10028401 00201002     .............. .
   d67c4:	32088000 00000812 02c40084 00001003     ...2............
   d67d4:	10801020 44100081 18011024 00000010      ......D$.......
   d67e4:	ff000000 e3ffffff 8400f0ff 10021002     ................
   d67f4:	c0000030 04121418 00440000 10030284     0.........D.....
   d6804:	10200000 80811080 18242830 00101803     .. .....0($.....
   d6814:	00000000 ffff7f00 f0ffffff 18028400     ................
   d6824:	04101006 1c184000 0001040c 02840042     .....@......B...
   d6834:	00020803 30c01020 38308080 18030818     .... ..0..08....
   d6844:	00000418 1f000000 ffffffff 8400f0ff     ................
   d6854:	10060c02 20000818 020c0c38 01430003     ....... 8.....C.
   d6864:	0c030204 10200004 c0803060 04181070     ...... .`0..p...
   d6874:	0c081807 00000000 ffff0f00 f0ffffff     ................
   d6884:	06028411 300c101a 08c81800 188e0304     .......0........
   d6894:	02048681 00180603 d0301020 10907180     ........ .0..q..
   d68a4:	18190710 00001806 03000000 ffffffff     ................
   d68b4:	040ef0ff 10e20102 0f00e003 00000088     ................
   d68c4:	7c0007f8 01000204 102000f0 1f80100f     ...|...... .....
   d68d4:	01000010 e00300f1 00000000 ffff0000     ................
   d68e4:	f0ffffff 00000000 00000000 00000000     ................
	...
   d6914:	ffffff1f 0000f0ff 00000000 00000000     ................
	...
   d6944:	ff030000 f0ffffff 00000000 00000000     ................
	...
   d6c30:	61666564 20746c75 42534d00 42534c00     default .MSB.LSB
   d6c40:	50533c00 74655349 676e6974 65642073     .<SPISettings de
   d6c50:	6c756166 3c003e74 53495053 69747465     fault>.<SPISetti
   d6c60:	2073676e 75257325 20732520 45444f4d     ngs %s%u %s MODE
   d6c70:	003e7525 65626968 74616e72 20676e69     %u>.hibernating 
   d6c80:	002e2e2e 656b6f77 00707520 6d6f7266     ....woke up.from
   d6c90:	65656420 6c732070 00706565 69616761      deep sleep.agai
   d6ca0:	6573006e 00707574 65657246 6f6e6f4d     n.setup.FreeMono
   d6cb0:	646c6f42 37747039 65730062 20707574     Bold9pt7b.setup 
   d6cc0:	656e6f64 00000000                       done....

000d6cc8 <_ZTVN8particle11SPISettingsE>:
	...
   d6cd0:	000b5ac5 000b51a9 000b5a89              .Z...Q...Z..

000d6cdc <_ZTV9GxEPD2_3CI11GxEPD2_420cLt300EE>:
	...
   d6ce4:	000b5235 000b5a97 000b6911 000b8265     5R...Z...i..e...
   d6cf4:	000b568d 000b63e3 000b63e5 000b6417     .V...c...c...d..
   d6d04:	000b63f3 000b6405 000b6325 000b63e3     .c...d..%c...c..
   d6d14:	000b660f 000b660d 000b642f 000b646d     .f...f../d..md..
   d6d24:	000b64a7 000b51e7 000b6509 000b658d     .d...Q...e...e..
   d6d34:	000b5237 000b5241 000b524b 000b5a65     7R..AR..KR..eZ..
   d6d44:	000b52ed 000b53a9 000b6149 000b51ab     .R...S..Ia...Q..
   d6d54:	000b5e67 000b51c9 000b53f5 000b5531     g^...Q...S..1U..
   d6d64:	000b5259 000b5a5f 000b5a59 000b5a31     YR.._Z..YZ..1Z..
   d6d74:	000b59ed 000b5349 000b5321 000b59a3     .Y..IS..!S...Y..
   d6d84:	000b5963 000b5933 000b590b 000b58c7     cY..3Y...Y...X..
   d6d94:	000b5897 000b586f 000b5825 000b57e5     .X..oX..%X...W..
   d6da4:	000b57b5 000b538b 000b5379 000b531b     .W...S..yS...S..
   d6db4:	000b5687                                .V..

000d6db8 <_ZL17FreeMonoBold9pt7b>:
   d6db8:	000d70bc 000d6dc4 00127e20              .p...m.. ~..

000d6dc4 <_ZL23FreeMonoBold9pt7bGlyphs>:
   d6dc4:	00000000 0001000b 0b030000 00f6040b     ................
   d6dd4:	05070005 00f6020b 0c08000a 00f6010b     ................
   d6de4:	0e070016 00f5020b 0b070023 00f6020b     ........#.......
   d6df4:	0a08002d 00f7010b 05030037 00f6040b     -.......7.......
   d6e04:	0e040039 00f6050b 0e040040 00f6020b     9.......@.......
   d6e14:	07080047 00f6020b 0908004e 00f8020b     G.......N.......
   d6e24:	05030057 00ff030b 02090059 00fb010b     W.......Y.......
   d6e34:	0202005c 00ff040b 0f07005d 00f4020b     \.......].......
   d6e44:	0c07006b 00f5020b 0b070076 00f6020b     k.......v.......
   d6e54:	0c080080 00f5010b 0c08008c 00f5020b     ................
   d6e64:	0a070098 00f7020b 0b0900a1 00f6010b     ................
   d6e74:	0c0800ae 00f5020b 0b0800ba 00f6010b     ................
   d6e84:	0c0700c5 00f5020b 0c0800d0 00f5020b     ................
   d6e94:	080200dc 00f9040b 0b0300de 00f9030b     ................
   d6ea4:	080900e3 00f8010b 060900ec 00f9010b     ................
   d6eb4:	080900f3 00f8010b 0b0800fc 00f6020b     ................
   d6ec4:	0f090107 00f5010b 0b0b0118 00f6000b     ................
   d6ed4:	0b0a0128 00f6010b 0b090136 00f6010b     (.......6.......
   d6ee4:	0b0a0143 00f6000b 0b090151 00f6010b     C.......Q.......
   d6ef4:	0b09015e 00f6010b 0b0a016b 00f6010b     ^.......k.......
   d6f04:	0b090179 00f6010b 0b060186 00f6030b     y...............
   d6f14:	0b0a018f 00f6010b 0b0a019d 00f6010b     ................
   d6f24:	0b0901ab 00f6010b 0b0b01b8 00f6000b     ................
   d6f34:	0b0b01c8 00f6000b 0b0b01d8 00f6000b     ................
   d6f44:	0b0901e8 00f6010b 0e0b01f5 00f6000b     ................
   d6f54:	0b090209 00f6010b 0b090216 00f6010b     ................
   d6f64:	0b090223 00f6010b 0b0b0230 00f6000b     #.......0.......
   d6f74:	0b0b0240 00f6000b 0b0a0250 00f6000b     @.......P.......
   d6f84:	0b0a025e 00f6000b 0b0a026c 00f6000b     ^.......l.......
   d6f94:	0b08027a 00f6020b 0e040285 00f6050b     z...............
   d6fa4:	0f07028c 00f4020b 0e04029a 00f6020b     ................
   d6fb4:	060702a1 00f5020b 020b02a7 0003000b     ................
   d6fc4:	030302aa 00f5030b 080902ac 00f9010b     ................
   d6fd4:	0b0a02b5 00f6000b 080902c3 00f9010b     ................
   d6fe4:	0b0a02cc 00f6010b 080902da 00f9010b     ................
   d6ff4:	0b0802e3 00f6020b 0c0902ee 00f9010b     ................
   d7004:	0b0902fc 00f6010b 0b080309 00f6020b     ................
   d7014:	0f060314 00f6020b 0b090320 00f6010b     ........ .......
   d7024:	0b08032d 00f6020b 080b0338 00f9000b     -.......8.......
   d7034:	08090343 00f9010b 0809034c 00f9010b     C.......L.......
   d7044:	0c0b0355 00f9000b 0c0b0366 00f9000b     U.......f.......
   d7054:	08090377 00f9010b 08080380 00f9020b     w...............
   d7064:	0b080388 00f6010b 08090393 00f9010b     ................
   d7074:	080b039c 00f9000b 080b03a7 00f9000b     ................
   d7084:	080903b2 00f9010b 0c0a03bb 00f9000b     ................
   d7094:	080703ca 00f9020b 0e0403d1 00f6030b     ................
   d70a4:	0e0203d8 00f6050b 0e0403dc 00f6040b     ................
   d70b4:	040903e3 00fa010b                       ........

000d70bc <_ZL24FreeMonoBold9pt7bBitmaps>:
   d70bc:	1fd2ffff 1289ec80 36364024 367f7f36     ........$@666..6
   d70cc:	3c3cffff ff18003c 1f1f3cfe f08d4683     ..<<<....<...F..
   d70dc:	610083c1 67864422 4c221137 607e3c70     ...a"D.g7."Lp<~`
   d70ec:	df7b3060 c97fffce cc663724 3166cccc     `0{.....$7f...f1
   d70fc:	333366ce 18c86633 3cffff18 1818663c     .f333f.....<<f..
   d710c:	18ffff18 6b181818 c0ffff48 180c02f0     .......kH.......
   d711c:	0c06c360 0c836130 38002018 783cbefb     `...0a... .8..<x
   d712c:	ddc7e3f1 f338c0f1 0683c160 f8fd180c     ......8.`.......
   d713c:	03c7fe3c 180c0603 ffffe370 0303fe7c     <.......p...|...
   d714c:	071e1e03 7cfe0303 64b1381c 3effbfd9     .......|.8.d...>
   d715c:	183f7e7c 1cf3c70f ffc30306 3f0f809f     |~?............?
   d716c:	dc606030 63c3e3fe ffff3c7e 060603c3     0``....c~<......
   d717c:	0c0c0c06 1efb3818 639f6f3c c0f18fc7     .....8..<o.c....
   d718c:	c3e67e3c 3b7fe7c3 f0fc0e06 006c0ff0     <~.....;......l.
   d719c:	0100d21a 0f0e8783 031ce080 00c0ffff     ................
   d71ac:	c0fcff0f e0010f78 80c1e3f9 03c7fe7c     ....x.......|...
   d71bc:	00001c0e 1e303000 6cdc1c1f b66d7b76     .....00....lv{m.
   d71cc:	fcf36fdb 78f83306 38c0073c 36b08105     .o...3.x<..8...6
   d71dc:	71fce10f 80ef7fdf 19e63fff e61f7f86     ...q.....?......
   d71ec:	ff60831d bf1ff0ff 063cf8d8 61800103     ..`.......<....a
   d71fc:	fec0c7bf 8319e63f 0d36d860 efbf6183     ....?...`.6..a..
   d720c:	d8ffffe0 e1c3b76d ff61c3b0 ffffe0ff     ....m.....a.....
   d721c:	c3b76dd8 60c0b0e1 1f003e7c 061be69f     .m.....`|>......
   d722c:	7f0c30c0 e39fe11f d8fbf7f0 f93366cc     .0...........f3.
   d723c:	7b63c6fc f3ffe0fd 0cc3300c 1fc0ff33     ..c{.....0..3...
   d724c:	0c30f0c7 33cc0003 873fc70c e6bdf7c0     ..0....3..?.....
   d725c:	1f78b061 6398e106 fc3cff3c 03060c7e     a.x....c<.<.~...
   d726c:	63c68001 e0ffff31 c73dfee0 d7bce73d     ...c1.....=.=...
   d727c:	6076b39b 80c73fde e33dfee1 ddcc663c     ..v`.?....=.<f..
   d728c:	631eb399 00c33bde c7f1071f 80077c70     ...c.;......p|..
   d729c:	71071ff0 007cf0c7 6c987ffe f8f91b36     ...q..|....l6...
   d72ac:	3e7c60c0 f1071f00 077c70c7 071ff080     .`|>.....p|.....
   d72bc:	7cf0c771 7ffe330c 187ffc80 f17366cc     q..|.3.......fs.
   d72cc:	7d63ccf0 bf3f60fe 030f78f0 c3833ff8     ..c}.`?..x...?..
   d72dc:	ff80bfff 3d7bf6ff 3060c098 801f3f18     ......{=..`0.?..
   d72ec:	833dfef1 c10c6630 60063398 007cf0c7     ..=.0f...3.`..|.
   d72fc:	c37dfffb 3618c318 0e50c006 0010c001     ..}....6..P.....
   d730c:	0df6fefb b7db6e93 8e7beead fcf318e3     .....n....{.....
   d731c:	1efc38f7 cce00103 3cffbc73 38f7fcf3     .8......s..<...8
   d732c:	80071ecc 0f0c30c0 fefef0c3 1818ccc6     .....0..........
   d733c:	ffc36330 ccccffff ffcccccc 06060301     0c..............
   d734c:	18180c0c 60603030 33ff80c0 33333333     ....00``...33333
   d735c:	e37110ff ff40706c 8088fcff cf8f3f7e     ..q.lp@.....~?..
   d736c:	fe1b36ee 0638e0ff 9c7fbc01 71830d76     .6....8.....v..q
   d737c:	3ff0eeff 3c78f8bf 7efe0507 18e08003     ...?..x<...~....
   d738c:	ecb87ff6 9fe3061b 3f3efcf3 feffffb0     ..........>?....
   d739c:	1f7efe01 7e7e303f 30303030 bf3ffefe     ..~.?0~~0000..?.
   d73ac:	376cd8f9 0376fc39 c0c78f01 0d1870e0     ..l79.v......p..
   d73bc:	8c99f3c7 fd7b63c6 001818e0 18187878     .....c{.....xx..
   d73cc:	ffff1818 fc3f6018 300cc330 80ff0fc3     .....`?.0..0....
   d73dc:	0d1870e0 e0e1f3e6 f9736ef8 187878e0     .p.......ns..xx.
   d73ec:	18181818 ffff1818 9bf99ffd cd6c6633     ............3fl.
   d73fc:	eebfffbd 66cc987f efdf1b33 f8b83f3e     .......f3...>?..
   d740c:	fc1d1f3c f91fef7c 0636b0c3 78f3dfe1     <...|.....6....x
   d741c:	e0030c60 ef1e007c 6c6087ff f09fc30d     `...|.....`l....
   d742c:	18c000f6 77f0810f 0306cfbf fcf98301     .......w........
   d743c:	fcc3ff3f fcffc33f fe606060 606060fe     ?...?...```..```
   d744c:	e73e7f61 66cc9873 7ffe1933 c67cfffb     a.>.s..f3.....|.
   d745c:	36b0c118 f1708003 37bb3dfe 0e77f863     ...6..p..=.7c.w.
   d746c:	fbf78ce1 c38383cd f3efdfbb cc18f6fc     ................
   d747c:	e0810733 0f060c30 fffff0c3 7f0cc330     3...0.......0...
   d748c:	666637ff 736666cc f0ffffff 336666ce     .7ff.ffs.....ff3
   d749c:	70ec6666 c0c0f37c                       ff.p|...

000d74a4 <_ZL4font>:
   d74a4:	00000000 4f5b3e00 6b3e3e5b 1c3e6b4f     .....>[O[>>kOk>.
   d74b4:	1c3e7c3e 3c7e3c18 7d571c18 5e1c1c57     >|>..<~<..W}W..^
   d74c4:	001c5e7f 00183c18 e7c3e7ff 241800ff     .^...<.........$
   d74d4:	e7ff0018 30ffe7db 0e063a48 29792926     .......0H:..&)y)
   d74e4:	057f4026 7f400705 5a3f2505 5a3ce73c     &@....@..%?Z<.<Z
   d74f4:	1c1c3e7f 1c1c0808 22147f3e 5f14227f     .>......>.."."._
   d7504:	5f5f005f 017f0906 8966007f 60606a95     _.__......f..j``
   d7514:	94606060 94a2ffa2 047e0408 7e201008     ```.......~... ~
   d7524:	08081020 08081c2a 08082a1c 1010101e      ...*....*......
   d7534:	0c1e0c10 38300c1e 0630383e 060e3e0e     ......08>80..>..
   d7544:	00000000 5f000000 07000000 14000700     ......._........
   d7554:	147f147f 2a7f2a24 08132312 49366264     ....$*.*.#..db6I
   d7564:	00502056 00030708 41221c00 22410000     V P......."A..A"
   d7574:	1c2a001c 082a1c7f 08083e08 30708000     ..*...*..>....p0
   d7584:	08080800 00000808 20006060 02040810     ........``. ....
   d7594:	4549513e 7f42003e 49720040 21464949     >QIE>.B.@.rIIIF!
   d75a4:	334d4941 7f121418 45452710 4a3c3945     AIM3.....'EEE9<J
   d75b4:	41314949 07091121 49494936 49494636     II1A!...6III6FII
   d75c4:	00001e29 00000014 00003440 22140800     ).......@4....."
   d75d4:	14141441 41001414 02081422 06095901     A......A"....Y..
   d75e4:	595d413e 11127c4e 497f7c12 3e364949     >A]YN|...|.III6>
   d75f4:	22414141 4141417f 49497f3e 097f4149     AAA".AAA>.IIIA..
   d7604:	3e010909 73514141 0808087f 7f41007f     ...>AAQs......A.
   d7614:	40200041 7f013f41 41221408 4040407f     A. @A?...."A.@@@
   d7624:	1c027f40 047f7f02 3e7f1008 3e414141     @..........>AAA>
   d7634:	0909097f 51413e06 097f5e21 26462919     .....>AQ!^...)F&
   d7644:	32494949 017f0103 40403f03 201f3f40     III2.....?@@@?. 
   d7654:	3f1f2040 3f403840 14081463 78040363     @ .?@8@?c...c..x
   d7664:	59610304 00434d49 4141417f 10080402     ..aYIMC..AAA....
   d7674:	41410020 02047f41 40040201 40404040      .AAA......@@@@@
   d7684:	08070300 54542000 287f4078 38384444     ..... TTx@.(DD88
   d7694:	28444444 28444438 5454387f 08001854     DDD(8DD(.8TTT...
   d76a4:	1802097e 789ca4a4 0404087f 7d440078     ~......x....x.D}
   d76b4:	40200040 7f003d40 00442810 407f4100     @. @@=...(D..A.@
   d76c4:	78047c00 087c7804 38780404 38444444     .|.x.x|...x8DDD8
   d76d4:	242418fc 24241818 087cfc18 48080404     ..$$..$$..|....H
   d76e4:	24545454 443f0404 40403c24 201c7c20     TTT$..?D$<@@ |. 
   d76f4:	3c1c2040 3c403040 28102844 90904c44     @ .<@0@<D(.(DL..
   d7704:	64447c90 00444c54 00413608 00770000     .|DdTLD..6A...w.
   d7714:	36410000 01020008 3c020402 3c262326     ..A6.......<&#&<
   d7724:	61a1a11e 40403a12 54387a20 21595554     ...a.:@@ z8TTUY!
   d7734:	41795555 78545422 54552142 54204078     UUyA"TTxB!UTx@ T
   d7744:	0c407955 1272521e 55555539 54543959     Uy@..Rr.9UUUY9TT
   d7754:	55395954 00585454 417c4500 7d450200     TY9UTTX..E|A..E}
   d7764:	45010042 127d407c f07d1211 f0282528     B..E|@}...}.(%(.
   d7774:	4555547c 54542000 0a7c547c 32497f09     |TUE. TT|T|...I2
   d7784:	32494949 4444443a 484a323a 413a3048     III2:DDD:2JHH0:A
   d7794:	3a7a2141 78204042 a0a09d00 42423d7d     A!z:B@ x....}=BB
   d77a4:	403d3d42 3c3d4040 2424ff24 43497e48     B==@@@=<$.$$H~IC
   d77b4:	fc2f2b66 09ff2b2f c020f629 03097e88     f+/./+..). ..~..
   d77c4:	79545420 44000041 4830417d 38324a48      TTyA..D}A0HHJ28
   d77d4:	7a224040 0a0a7a00 190d7d72 29267d31     @@"z.z..r}..1}&)
   d77e4:	26282f29 26292929 404d4830 08083820     )/(&)))&0HM@ 8..
   d77f4:	08080808 2f380808 baacc810 3428102f     ......8/..../.(4
   d7804:	7b0000fa 14080000 2222142a 08142a14     ...{....*."".*..
   d7814:	00550055 aa55aa55 55ffaa55 00ff55ff     U.U.U.U.U..U.U..
   d7824:	00ff0000 ff101010 14141400 101000ff     ................
   d7834:	10ff00ff f010f010 fc141414 f7141400     ................
   d7844:	0000ff00 14ff00ff fc04f414 10171414     ................
   d7854:	1f10101f 14141f10 10001f14 00f01010     ................
   d7864:	1f000000 10101010 1010101f 0010f010     ................
   d7874:	10ff0000 10101010 10101010 000010ff     ................
   d7884:	0014ff00 ff00ff00 101f0000 fc000017     ................
   d7894:	1414f404 14171017 f404f414 00ff0000     ................
   d78a4:	141414f7 14141414 14f700f7 14171414     ................
   d78b4:	101f1010 1414141f 101014f4 00f010f0     ................
   d78c4:	1f101f00 1f000000 00000014 000014fc     ................
   d78d4:	10f010f0 ff10ff10 ff141414 10101014     ................
   d78e4:	0000001f ff10f000 ffffffff f0f0f0f0     ................
   d78f4:	fffffff0 00000000 0fffff00 0f0f0f0f     ................
   d7904:	38444438 4a4afc44 027e344a 02060602     8DD8D.JJJ4~.....
   d7914:	027e027e 41495563 44443863 7e40043c     ~.~.cUIAc8DD<.@~
   d7924:	06201e20 02027e02 a5e7a599 492a1c99      . ..~........*I
   d7934:	724c1c2a 304c7201 304d4d4a 48784830     *.Lr.rL0JMM00HxH
   d7944:	5a62bc30 493e3d46 7e004949 7e010101     0.bZF=>III.~...~
   d7954:	2a2a2a2a 5f44442a 51404444 4040444a     *****DD_DD@QJD@@
   d7964:	40514a44 01ff0000 ff80e003 08080000     DJQ@............
   d7974:	36086b6b 36243612 0f090f06 18000006     kk.6.6$6........
   d7984:	00000018 30001010 0101ff40 01011f00     .......0@.......
   d7994:	1d19001e 3c001217 003c3c3c 00000000     .......<<<<.....

000d79a4 <_ZTV12Adafruit_GFX>:
	...
   d79b4:	000b6911 000b8265 000b4a15 000b63e3     .i..e....J...c..
   d79c4:	000b63e5 000b6417 000b63f3 000b6405     .c...d...c...d..
   d79d4:	000b6325 000b63e3 000b660f 000b660d     %c...c...f...f..
   d79e4:	000b642f 000b646d 000b64a7 000b64ed     /d..md...d...d..
   d79f4:	000b6509 000b658d 79737542 6d695420     .e...e..Busy Tim
   d7a04:	74756f65 3a200021 00000020              eout!. : ...

000d7a10 <_ZTV10GxEPD2_EPD>:
	...
   d7a18:	000b6d11 000b6e8f 000b6d25 000b4a15     .m...n..%m...J..
   d7a28:	000b4a15 000b4a15 000b6c67 000b4a15     .J...J..gl...J..
   d7a38:	000b6c93 000b6c99 000b6cc5 000b6d0b     .l...l...l...m..
   d7a48:	000b6d0d 000b4a15 000b4a15 000b4a15     .m...J...J...J..
   d7a58:	000b4a15 000b6d0f 776f505f 6e4f7265     .J...m.._PowerOn
   d7a68:	6f505f00 4f726577 5f006666 61647055     ._PowerOff._Upda
   d7a78:	465f6574 006c6c75 6470555f 5f657461     te_Full._Update_
   d7a88:	74726150 00000000                       Part....

000d7a90 <_ZTV11GxEPD2_420c>:
	...
   d7a98:	000b6d11 000b6e8f 000b6d25 000b7b33     .m...n..%m..3{..
   d7aa8:	000b7a39 000b792f 000b6c67 000b767f     9z../y..gl...v..
   d7ab8:	000b6c93 000b6c99 000b6cc5 000b6d0b     .l...l...l...m..
   d7ac8:	000b6d0d 000b7a61 000b7b39 000b732d     .m..az..9{..-s..
   d7ad8:	000b7331 000b6d0f                       1s...m..

000d7ae0 <_ZTVN5spark13EthernetClassE>:
	...
   d7ae8:	000b808b 000b8081 000b8077 000b806d     ........w...m...
   d7af8:	000b8061 000b8055 000b8ab5 000b8abd     a...U...........
   d7b08:	000b8049 000b8041 000b8037 000b802d     I...A...7...-...
   d7b18:	000b8bf1 000b8aed 000b8af5              ............

000d7b24 <_ZN12_GLOBAL__N_1L14clock_divisorsE>:
   d7b24:	18100800 38302820 006e616e 00666e69     .... (08nan.inf.
   d7b34:	0066766f 00707061 252d5925 64252d6d     ovf.app.%Y-%m-%d
   d7b44:	3a482554 253a4d25 007a2553 74637361     T%H:%M:%S%z.asct
   d7b54:	00656d69                                ime.

000d7b58 <_ZTV9IPAddress>:
	...
   d7b60:	000b86bd 000b86ad 000b86af              ............

000d7b6c <_ZTV9USBSerial>:
	...
   d7b74:	000b87a3 000b880b 000b87e1 000b8265     ............e...
   d7b84:	000b87d3 000b87a5 000b87b5 000b8805     ................
   d7b94:	000b87c5 000b879d                       ........

000d7b9c <_ZTVN5spark13CellularClassE>:
	...
   d7ba4:	000b8903 000b88f9 000b88ef 000b88a5     ................
   d7bb4:	000b88e3 000b88d7 000b8ab5 000b8abd     ................
   d7bc4:	000b88cb 000b88c3 000b88b9 000b88af     ................
   d7bd4:	000b8bf1 000b8aed 000b8af5              ............

000d7be0 <_ZTV11USARTSerial>:
	...
   d7be8:	000b893d 000b89a9 000b8981 000b8265     =...........e...
   d7bf8:	000b8951 000b896d 000b895f 000b897b     Q...m..._...{...
   d7c08:	000b893f 000b8943                       ?...C...

000d7c10 <_ZTV7TwoWire>:
	...
   d7c18:	000b89e1 000b8a2b 000b8a03 000b89e3     ....+...........
   d7c28:	000b8a0b 000b8a13 000b8a1b 000b8a23     ............#...

000d7c38 <_ZTVN5spark12NetworkClassE>:
	...
   d7c40:	000b8a75 000b8a7f 000b8a89 000b8a93     u...............
   d7c50:	000b8a9d 000b8aa9 000b8ab5 000b8abd     ................
   d7c60:	000b8ac5 000b8ad1 000b8ad9 000b8ae3     ................
   d7c70:	000b8bf1 000b8aed 000b8af5              ............

000d7c7c <_ZSt7nothrow>:
   d7c7c:	45455200 6d20544e 6f6c6c61 75732063     .REENT malloc su
   d7c8c:	65656363 00646564 746e6d2f 726f772f     cceeded./mnt/wor
   d7c9c:	6170736b 772f6563 736b726f 65636170     kspace/workspace
   d7cac:	4343472f 2d30312d 65706970 656e696c     /GCC-10-pipeline
   d7cbc:	6e656a2f 736e696b 4343472d 2d30312d     /jenkins-GCC-10-
   d7ccc:	65706970 656e696c 5f38342d 30323032     pipeline-48_2020
   d7cdc:	34323131 3036315f 30383136 2f313436     1124_1606180641/
   d7cec:	2f637273 6c77656e 6e2f6269 696c7765     src/newlib/newli
   d7cfc:	696c2f62 732f6362 696c6474 61722f62     b/libc/stdlib/ra
   d7d0c:	632e646e                                 nd.c.

000d7d11 <link_const_data_end>:
   d7d11:	00          	.byte	0x00
	...

000d7d14 <link_constructors_location>:
   d7d14:	000b6231 	.word	0x000b6231
   d7d18:	000b8095 	.word	0x000b8095
   d7d1c:	000b8231 	.word	0x000b8231
   d7d20:	000b8255 	.word	0x000b8255
   d7d24:	000b853d 	.word	0x000b853d
   d7d28:	000b854d 	.word	0x000b854d
   d7d2c:	000b8569 	.word	0x000b8569
   d7d30:	000b890d 	.word	0x000b890d
   d7d34:	000b8c05 	.word	0x000b8c05
